ARM GAS  C:\Users\boise\AppData\Local\Temp\ccQfJPUV.s 			page 1


   1              		.syntax unified
   2              		.cpu cortex-m0
   3              		.fpu softvfp
   4              		.eabi_attribute 20, 1
   5              		.eabi_attribute 21, 1
   6              		.eabi_attribute 23, 3
   7              		.eabi_attribute 24, 1
   8              		.eabi_attribute 25, 1
   9              		.eabi_attribute 26, 1
  10              		.eabi_attribute 30, 1
  11              		.eabi_attribute 34, 0
  12              		.eabi_attribute 18, 4
  13              		.thumb
  14              		.syntax unified
  15              		.file	"main.c"
  16              		.text
  17              	.Ltext0:
  18              		.cfi_sections	.debug_frame
  19              		.section	.text.main,"ax",%progbits
  20              		.align	2
  21              		.global	main
  22              		.code	16
  23              		.thumb_func
  24              		.type	main, %function
  25              	main:
  26              	.LFB32:
  27              		.file 1 "main.c"
   1:main.c        **** /* ========================================
   2:main.c        ****  *
   3:main.c        ****  * Copyright YOUR COMPANY, THE YEAR
   4:main.c        ****  * All Rights Reserved
   5:main.c        ****  * UNPUBLISHED, LICENSED SOFTWARE.
   6:main.c        ****  *
   7:main.c        ****  * CONFIDENTIAL AND PROPRIETARY INFORMATION
   8:main.c        ****  * WHICH IS THE PROPERTY OF your company.
   9:main.c        ****  *
  10:main.c        ****  * ========================================
  11:main.c        **** */
  12:main.c        **** #include "project.h"
  13:main.c        **** #include "ssd1306.h"
  14:main.c        **** 
  15:main.c        **** #define DISPLAY_ADDRESS 0x3C // 011110+SA0+RW - 0x3C or 0x3D
  16:main.c        **** 
  17:main.c        **** 
  18:main.c        **** int main(void){
  28              		.loc 1 18 0
  29              		.cfi_startproc
  30              		@ args = 0, pretend = 0, frame = 8
  31              		@ frame_needed = 0, uses_anonymous_args = 0
  32 0000 F0B5     		push	{r4, r5, r6, r7, lr}
  33              		.cfi_def_cfa_offset 20
  34              		.cfi_offset 4, -20
  35              		.cfi_offset 5, -16
  36              		.cfi_offset 6, -12
  37              		.cfi_offset 7, -8
  38              		.cfi_offset 14, -4
  39 0002 5746     		mov	r7, r10
ARM GAS  C:\Users\boise\AppData\Local\Temp\ccQfJPUV.s 			page 2


  40 0004 4E46     		mov	r6, r9
  41 0006 4546     		mov	r5, r8
  42 0008 E0B4     		push	{r5, r6, r7}
  43              		.cfi_def_cfa_offset 32
  44              		.cfi_offset 8, -32
  45              		.cfi_offset 9, -28
  46              		.cfi_offset 10, -24
  47 000a 86B0     		sub	sp, sp, #24
  48              		.cfi_def_cfa_offset 56
  19:main.c        ****     CyGlobalIntEnable; /* Enable global interrupts. */
  49              		.loc 1 19 0
  50              		.syntax divided
  51              	@ 19 "main.c" 1
  52 000c 62B6     		CPSIE   i
  53              	@ 0 "" 2
  20:main.c        **** 
  21:main.c        ****     /* Place your initialization/startup code here (e.g. MyInst_Start()) */
  22:main.c        ****     PWM_Start();
  54              		.loc 1 22 0
  55              		.thumb
  56              		.syntax unified
  57 000e FFF7FEFF 		bl	PWM_Start
  58              	.LVL0:
  23:main.c        ****     I2C_Start();
  59              		.loc 1 23 0
  60 0012 FFF7FEFF 		bl	I2C_Start
  61              	.LVL1:
  24:main.c        ****     OLED_Start();
  62              		.loc 1 24 0
  63 0016 FFF7FEFF 		bl	OLED_Start
  64              	.LVL2:
  25:main.c        ****     ADC_Start();
  65              		.loc 1 25 0
  66 001a FFF7FEFF 		bl	ADC_Start
  67              	.LVL3:
  26:main.c        ****     
  27:main.c        **** 
  28:main.c        ****     //I2COLED_Start();
  29:main.c        **** 
  30:main.c        ****     CyGlobalIntEnable;
  68              		.loc 1 30 0
  69              		.syntax divided
  70              	@ 30 "main.c" 1
  71 001e 62B6     		CPSIE   i
  72              	@ 0 "" 2
  31:main.c        **** 
  32:main.c        ****     display_init(DISPLAY_ADDRESS);
  73              		.loc 1 32 0
  74              		.thumb
  75              		.syntax unified
  76 0020 3C20     		movs	r0, #60
  77 0022 FFF7FEFF 		bl	display_init
  78              	.LVL4:
  79              	.L31:
  80              	.LBB2:
  33:main.c        **** 
  34:main.c        ****     
ARM GAS  C:\Users\boise\AppData\Local\Temp\ccQfJPUV.s 			page 3


  35:main.c        ****     for(;;){
  36:main.c        **** 
  37:main.c        ****         // clearing display
  38:main.c        ****         display_clear();    
  81              		.loc 1 38 0
  82 0026 FFF7FEFF 		bl	display_clear
  83              	.LVL5:
  39:main.c        ****         display_update();    
  84              		.loc 1 39 0
  85 002a FFF7FEFF 		bl	display_update
  86              	.LVL6:
  40:main.c        **** 
  41:main.c        **** 
  42:main.c        ****         // drawing a pixel
  43:main.c        ****         gfx_drawPixel(40, 40, WHITE);    
  87              		.loc 1 43 0
  88 002e 0122     		movs	r2, #1
  89 0030 2821     		movs	r1, #40
  90 0032 2820     		movs	r0, #40
  91 0034 FFF7FEFF 		bl	gfx_drawPixel
  92              	.LVL7:
  44:main.c        ****         display_update(); 
  93              		.loc 1 44 0
  94 0038 FFF7FEFF 		bl	display_update
  95              	.LVL8:
  45:main.c        **** 
  46:main.c        ****         CyDelay(1000);
  96              		.loc 1 46 0
  97 003c FA20     		movs	r0, #250
  98 003e 8000     		lsls	r0, r0, #2
  99 0040 FFF7FEFF 		bl	CyDelay
 100              	.LVL9:
  47:main.c        ****         display_clear();    
 101              		.loc 1 47 0
 102 0044 FFF7FEFF 		bl	display_clear
 103              	.LVL10:
  48:main.c        ****         display_update();    
 104              		.loc 1 48 0
 105 0048 FFF7FEFF 		bl	display_update
 106              	.LVL11:
  49:main.c        **** 
  50:main.c        ****         
  51:main.c        ****         // line drawing
  52:main.c        ****         int16_t i = 0;
  53:main.c        ****         for( i = 0 ; i < gfx_width(); i+=4) {
 107              		.loc 1 53 0
 108 004c 0024     		movs	r4, #0
 109 004e 0EE0     		b	.L2
 110              	.LVL12:
 111              	.L3:
  54:main.c        ****             gfx_drawLine(0, 0, i, gfx_height()-1, WHITE);
 112              		.loc 1 54 0 discriminator 3
 113 0050 FFF7FEFF 		bl	gfx_height
 114              	.LVL13:
 115 0054 0138     		subs	r0, r0, #1
 116 0056 03B2     		sxth	r3, r0
 117 0058 0122     		movs	r2, #1
ARM GAS  C:\Users\boise\AppData\Local\Temp\ccQfJPUV.s 			page 4


 118 005a 0092     		str	r2, [sp]
 119 005c 2200     		movs	r2, r4
 120 005e 0021     		movs	r1, #0
 121 0060 0020     		movs	r0, #0
 122 0062 FFF7FEFF 		bl	gfx_drawLine
 123              	.LVL14:
  55:main.c        ****             display_update();
 124              		.loc 1 55 0 discriminator 3
 125 0066 FFF7FEFF 		bl	display_update
 126              	.LVL15:
  53:main.c        ****             gfx_drawLine(0, 0, i, gfx_height()-1, WHITE);
 127              		.loc 1 53 0 discriminator 3
 128 006a 0434     		adds	r4, r4, #4
 129              	.LVL16:
 130 006c 24B2     		sxth	r4, r4
 131              	.LVL17:
 132              	.L2:
  53:main.c        ****             gfx_drawLine(0, 0, i, gfx_height()-1, WHITE);
 133              		.loc 1 53 0 is_stmt 0 discriminator 1
 134 006e FFF7FEFF 		bl	gfx_width
 135              	.LVL18:
 136 0072 8442     		cmp	r4, r0
 137 0074 ECDB     		blt	.L3
 138 0076 0024     		movs	r4, #0
 139              	.LVL19:
 140 0078 0EE0     		b	.L4
 141              	.LVL20:
 142              	.L5:
  56:main.c        ****         }
  57:main.c        ****         for( i = 0 ; i < gfx_height() ; i += 4 ){
  58:main.c        ****             gfx_drawLine(0, 0, gfx_width()-1, i, WHITE);
 143              		.loc 1 58 0 is_stmt 1 discriminator 3
 144 007a FFF7FEFF 		bl	gfx_width
 145              	.LVL21:
 146 007e 0138     		subs	r0, r0, #1
 147 0080 02B2     		sxth	r2, r0
 148 0082 0123     		movs	r3, #1
 149 0084 0093     		str	r3, [sp]
 150 0086 2300     		movs	r3, r4
 151 0088 0021     		movs	r1, #0
 152 008a 0020     		movs	r0, #0
 153 008c FFF7FEFF 		bl	gfx_drawLine
 154              	.LVL22:
  59:main.c        ****             display_update();
 155              		.loc 1 59 0 discriminator 3
 156 0090 FFF7FEFF 		bl	display_update
 157              	.LVL23:
  57:main.c        ****             gfx_drawLine(0, 0, gfx_width()-1, i, WHITE);
 158              		.loc 1 57 0 discriminator 3
 159 0094 0434     		adds	r4, r4, #4
 160              	.LVL24:
 161 0096 24B2     		sxth	r4, r4
 162              	.LVL25:
 163              	.L4:
  57:main.c        ****             gfx_drawLine(0, 0, gfx_width()-1, i, WHITE);
 164              		.loc 1 57 0 is_stmt 0 discriminator 1
 165 0098 FFF7FEFF 		bl	gfx_height
ARM GAS  C:\Users\boise\AppData\Local\Temp\ccQfJPUV.s 			page 5


 166              	.LVL26:
 167 009c 8442     		cmp	r4, r0
 168 009e ECDB     		blt	.L5
  60:main.c        ****         }    
  61:main.c        ****      
  62:main.c        ****         CyDelay(3000);
 169              		.loc 1 62 0 is_stmt 1
 170 00a0 E948     		ldr	r0, .L32
 171 00a2 FFF7FEFF 		bl	CyDelay
 172              	.LVL27:
  63:main.c        ****         display_clear();    
 173              		.loc 1 63 0
 174 00a6 FFF7FEFF 		bl	display_clear
 175              	.LVL28:
  64:main.c        ****         display_update();    
 176              		.loc 1 64 0
 177 00aa FFF7FEFF 		bl	display_update
 178              	.LVL29:
  65:main.c        **** 
  66:main.c        ****         // text settings
  67:main.c        ****         gfx_setTextSize(1);
 179              		.loc 1 67 0
 180 00ae 0120     		movs	r0, #1
 181 00b0 FFF7FEFF 		bl	gfx_setTextSize
 182              	.LVL30:
  68:main.c        ****         gfx_setTextColor(WHITE);
 183              		.loc 1 68 0
 184 00b4 0120     		movs	r0, #1
 185 00b6 FFF7FEFF 		bl	gfx_setTextColor
 186              	.LVL31:
  69:main.c        ****         gfx_setCursor(0,0);
 187              		.loc 1 69 0
 188 00ba 0021     		movs	r1, #0
 189 00bc 0020     		movs	r0, #0
 190 00be FFF7FEFF 		bl	gfx_setCursor
 191              	.LVL32:
  70:main.c        **** 
  71:main.c        ****         // text display
  72:main.c        ****         for( i = 0 ; i < 168 ; i++){
 192              		.loc 1 72 0
 193 00c2 0024     		movs	r4, #0
 194 00c4 06E0     		b	.L6
 195              	.LVL33:
 196              	.L8:
  73:main.c        ****             if( i == '\n' ) 
 197              		.loc 1 73 0
 198 00c6 0A2C     		cmp	r4, #10
 199 00c8 02D0     		beq	.L7
  74:main.c        ****                 continue;
  75:main.c        ****             gfx_write(i);
 200              		.loc 1 75 0
 201 00ca E0B2     		uxtb	r0, r4
 202 00cc FFF7FEFF 		bl	gfx_write
 203              	.LVL34:
 204              	.L7:
  72:main.c        ****             if( i == '\n' ) 
 205              		.loc 1 72 0 discriminator 2
ARM GAS  C:\Users\boise\AppData\Local\Temp\ccQfJPUV.s 			page 6


 206 00d0 0134     		adds	r4, r4, #1
 207              	.LVL35:
 208 00d2 24B2     		sxth	r4, r4
 209              	.LVL36:
 210              	.L6:
  72:main.c        ****             if( i == '\n' ) 
 211              		.loc 1 72 0 is_stmt 0 discriminator 1
 212 00d4 A72C     		cmp	r4, #167
 213 00d6 F6DD     		ble	.L8
  76:main.c        ****           }    
  77:main.c        ****         display_update(); 
 214              		.loc 1 77 0 is_stmt 1
 215 00d8 FFF7FEFF 		bl	display_update
 216              	.LVL37:
  78:main.c        ****         
  79:main.c        ****         CyDelay(3000);
 217              		.loc 1 79 0
 218 00dc DA4C     		ldr	r4, .L32
 219              	.LVL38:
 220 00de 2000     		movs	r0, r4
 221 00e0 FFF7FEFF 		bl	CyDelay
 222              	.LVL39:
  80:main.c        ****         display_clear();    
 223              		.loc 1 80 0
 224 00e4 FFF7FEFF 		bl	display_clear
 225              	.LVL40:
  81:main.c        ****         display_update();    
 226              		.loc 1 81 0
 227 00e8 FFF7FEFF 		bl	display_update
 228              	.LVL41:
  82:main.c        ****         
  83:main.c        ****         // cursor
  84:main.c        ****         gfx_setCursor( 0, 0 );
 229              		.loc 1 84 0
 230 00ec 0021     		movs	r1, #0
 231 00ee 0020     		movs	r0, #0
 232 00f0 FFF7FEFF 		bl	gfx_setCursor
 233              	.LVL42:
  85:main.c        ****         
  86:main.c        ****         // text sizes
  87:main.c        ****         gfx_setTextSize(2);
 234              		.loc 1 87 0
 235 00f4 0220     		movs	r0, #2
 236 00f6 FFF7FEFF 		bl	gfx_setTextSize
 237              	.LVL43:
  88:main.c        ****         gfx_write( '8' );
 238              		.loc 1 88 0
 239 00fa 3820     		movs	r0, #56
 240 00fc FFF7FEFF 		bl	gfx_write
 241              	.LVL44:
  89:main.c        ****         gfx_setTextSize(3);
 242              		.loc 1 89 0
 243 0100 0320     		movs	r0, #3
 244 0102 FFF7FEFF 		bl	gfx_setTextSize
 245              	.LVL45:
  90:main.c        ****         gfx_write( '8' );
 246              		.loc 1 90 0
ARM GAS  C:\Users\boise\AppData\Local\Temp\ccQfJPUV.s 			page 7


 247 0106 3820     		movs	r0, #56
 248 0108 FFF7FEFF 		bl	gfx_write
 249              	.LVL46:
  91:main.c        ****         gfx_setTextSize(4);
 250              		.loc 1 91 0
 251 010c 0420     		movs	r0, #4
 252 010e FFF7FEFF 		bl	gfx_setTextSize
 253              	.LVL47:
  92:main.c        ****         gfx_write( '8' );
 254              		.loc 1 92 0
 255 0112 3820     		movs	r0, #56
 256 0114 FFF7FEFF 		bl	gfx_write
 257              	.LVL48:
  93:main.c        ****         display_update(); 
 258              		.loc 1 93 0
 259 0118 FFF7FEFF 		bl	display_update
 260              	.LVL49:
  94:main.c        ****         
  95:main.c        ****         CyDelay(3000);
 261              		.loc 1 95 0
 262 011c 2000     		movs	r0, r4
 263 011e FFF7FEFF 		bl	CyDelay
 264              	.LVL50:
  96:main.c        ****         display_clear();    
 265              		.loc 1 96 0
 266 0122 FFF7FEFF 		bl	display_clear
 267              	.LVL51:
  97:main.c        ****         display_update();    
 268              		.loc 1 97 0
 269 0126 FFF7FEFF 		bl	display_update
 270              	.LVL52:
  98:main.c        **** 
  99:main.c        ****         // line printing
 100:main.c        ****         gfx_setTextSize(1);
 271              		.loc 1 100 0
 272 012a 0120     		movs	r0, #1
 273 012c FFF7FEFF 		bl	gfx_setTextSize
 274              	.LVL53:
 101:main.c        ****         gfx_setTextColor(WHITE);
 275              		.loc 1 101 0
 276 0130 0120     		movs	r0, #1
 277 0132 FFF7FEFF 		bl	gfx_setTextColor
 278              	.LVL54:
 102:main.c        ****         gfx_setCursor(0,0);
 279              		.loc 1 102 0
 280 0136 0021     		movs	r1, #0
 281 0138 0020     		movs	r0, #0
 282 013a FFF7FEFF 		bl	gfx_setCursor
 283              	.LVL55:
 103:main.c        ****         gfx_println("test line 1 ...");
 284              		.loc 1 103 0
 285 013e C348     		ldr	r0, .L32+4
 286 0140 FFF7FEFF 		bl	gfx_println
 287              	.LVL56:
 104:main.c        ****         gfx_println("2nd line ...");
 288              		.loc 1 104 0
 289 0144 C248     		ldr	r0, .L32+8
ARM GAS  C:\Users\boise\AppData\Local\Temp\ccQfJPUV.s 			page 8


 290 0146 FFF7FEFF 		bl	gfx_println
 291              	.LVL57:
 105:main.c        ****         display_update();    
 292              		.loc 1 105 0
 293 014a FFF7FEFF 		bl	display_update
 294              	.LVL58:
 106:main.c        **** 
 107:main.c        ****         CyDelay(3000);
 295              		.loc 1 107 0
 296 014e 2000     		movs	r0, r4
 297 0150 FFF7FEFF 		bl	CyDelay
 298              	.LVL59:
 108:main.c        ****         display_clear();    
 299              		.loc 1 108 0
 300 0154 FFF7FEFF 		bl	display_clear
 301              	.LVL60:
 109:main.c        ****         display_update();    
 302              		.loc 1 109 0
 303 0158 FFF7FEFF 		bl	display_update
 304              	.LVL61:
 110:main.c        **** 
 111:main.c        ****         
 112:main.c        ****         // scrolling
 113:main.c        ****         gfx_setTextSize(1);
 305              		.loc 1 113 0
 306 015c 0120     		movs	r0, #1
 307 015e FFF7FEFF 		bl	gfx_setTextSize
 308              	.LVL62:
 114:main.c        ****         gfx_setTextColor(WHITE);
 309              		.loc 1 114 0
 310 0162 0120     		movs	r0, #1
 311 0164 FFF7FEFF 		bl	gfx_setTextColor
 312              	.LVL63:
 115:main.c        ****         gfx_setCursor(0,0);
 313              		.loc 1 115 0
 314 0168 0021     		movs	r1, #0
 315 016a 0020     		movs	r0, #0
 316 016c FFF7FEFF 		bl	gfx_setCursor
 317              	.LVL64:
 116:main.c        **** 
 117:main.c        ****         for( i = 1 ; i < 16 ; i++ ){
 318              		.loc 1 117 0
 319 0170 0124     		movs	r4, #1
 320 0172 04E0     		b	.L9
 321              	.LVL65:
 322              	.L10:
 118:main.c        ****             gfx_println("scroll");
 323              		.loc 1 118 0 discriminator 3
 324 0174 B748     		ldr	r0, .L32+12
 325 0176 FFF7FEFF 		bl	gfx_println
 326              	.LVL66:
 117:main.c        ****             gfx_println("scroll");
 327              		.loc 1 117 0 discriminator 3
 328 017a 0134     		adds	r4, r4, #1
 329              	.LVL67:
 330 017c 24B2     		sxth	r4, r4
 331              	.LVL68:
ARM GAS  C:\Users\boise\AppData\Local\Temp\ccQfJPUV.s 			page 9


 332              	.L9:
 117:main.c        ****             gfx_println("scroll");
 333              		.loc 1 117 0 is_stmt 0 discriminator 1
 334 017e 0F2C     		cmp	r4, #15
 335 0180 F8DD     		ble	.L10
 119:main.c        ****         
 120:main.c        ****         }
 121:main.c        ****         display_update();    
 336              		.loc 1 121 0 is_stmt 1
 337 0182 FFF7FEFF 		bl	display_update
 338              	.LVL69:
 122:main.c        ****         
 123:main.c        ****         
 124:main.c        ****         
 125:main.c        ****         display_scroll(SCROLL_PAGE_0,SCROLL_PAGE_7,SCROLL_RIGHT,SCROLL_SPEED_7);
 339              		.loc 1 125 0
 340 0186 0723     		movs	r3, #7
 341 0188 2622     		movs	r2, #38
 342 018a 0721     		movs	r1, #7
 343 018c 0020     		movs	r0, #0
 344 018e FFF7FEFF 		bl	display_scroll
 345              	.LVL70:
 126:main.c        ****         CyDelay(2000);
 346              		.loc 1 126 0
 347 0192 FA24     		movs	r4, #250
 348              	.LVL71:
 349 0194 E400     		lsls	r4, r4, #3
 350 0196 2000     		movs	r0, r4
 351 0198 FFF7FEFF 		bl	CyDelay
 352              	.LVL72:
 127:main.c        ****         display_stopscroll();
 353              		.loc 1 127 0
 354 019c FFF7FEFF 		bl	display_stopscroll
 355              	.LVL73:
 128:main.c        ****         display_scroll(SCROLL_PAGE_2,SCROLL_PAGE_4,SCROLL_LEFT,SCROLL_SPEED_3);
 356              		.loc 1 128 0
 357 01a0 0623     		movs	r3, #6
 358 01a2 2A22     		movs	r2, #42
 359 01a4 0421     		movs	r1, #4
 360 01a6 0220     		movs	r0, #2
 361 01a8 FFF7FEFF 		bl	display_scroll
 362              	.LVL74:
 129:main.c        ****         CyDelay(2000);
 363              		.loc 1 129 0
 364 01ac 2000     		movs	r0, r4
 365 01ae FFF7FEFF 		bl	CyDelay
 366              	.LVL75:
 130:main.c        ****         display_stopscroll();
 367              		.loc 1 130 0
 368 01b2 FFF7FEFF 		bl	display_stopscroll
 369              	.LVL76:
 131:main.c        ****         
 132:main.c        ****         
 133:main.c        **** 
 134:main.c        ****         CyDelay(3000);
 370              		.loc 1 134 0
 371 01b6 A448     		ldr	r0, .L32
ARM GAS  C:\Users\boise\AppData\Local\Temp\ccQfJPUV.s 			page 10


 372 01b8 FFF7FEFF 		bl	CyDelay
 373              	.LVL77:
 135:main.c        ****         display_clear();    
 374              		.loc 1 135 0
 375 01bc FFF7FEFF 		bl	display_clear
 376              	.LVL78:
 136:main.c        ****         display_update();    
 377              		.loc 1 136 0
 378 01c0 FFF7FEFF 		bl	display_update
 379              	.LVL79:
 137:main.c        ****         
 138:main.c        ****         
 139:main.c        ****         // rectangles
 140:main.c        ****         for( i = 0 ; i < gfx_height()/2 ; i += 2 ){
 380              		.loc 1 140 0
 381 01c4 0024     		movs	r4, #0
 382 01c6 15E0     		b	.L11
 383              	.LVL80:
 384              	.L12:
 141:main.c        ****             gfx_drawRect(i, i, gfx_width()-2*i, gfx_height()-2*i, WHITE);
 385              		.loc 1 141 0 discriminator 3
 386 01c8 FFF7FEFF 		bl	gfx_width
 387              	.LVL81:
 388 01cc 0500     		movs	r5, r0
 389 01ce A6B2     		uxth	r6, r4
 390 01d0 7200     		lsls	r2, r6, #1
 391 01d2 97B2     		uxth	r7, r2
 392 01d4 FFF7FEFF 		bl	gfx_height
 393              	.LVL82:
 394 01d8 C31B     		subs	r3, r0, r7
 395 01da 1BB2     		sxth	r3, r3
 396 01dc EA1B     		subs	r2, r5, r7
 397 01de 12B2     		sxth	r2, r2
 398 01e0 0121     		movs	r1, #1
 399 01e2 0091     		str	r1, [sp]
 400 01e4 2100     		movs	r1, r4
 401 01e6 2000     		movs	r0, r4
 402 01e8 FFF7FEFF 		bl	gfx_drawRect
 403              	.LVL83:
 142:main.c        ****             display_update();   
 404              		.loc 1 142 0 discriminator 3
 405 01ec FFF7FEFF 		bl	display_update
 406              	.LVL84:
 140:main.c        ****             gfx_drawRect(i, i, gfx_width()-2*i, gfx_height()-2*i, WHITE);
 407              		.loc 1 140 0 discriminator 3
 408 01f0 0236     		adds	r6, r6, #2
 409 01f2 34B2     		sxth	r4, r6
 410              	.LVL85:
 411              	.L11:
 140:main.c        ****             gfx_drawRect(i, i, gfx_width()-2*i, gfx_height()-2*i, WHITE);
 412              		.loc 1 140 0 is_stmt 0 discriminator 1
 413 01f4 FFF7FEFF 		bl	gfx_height
 414              	.LVL86:
 415 01f8 C30F     		lsrs	r3, r0, #31
 416 01fa 1818     		adds	r0, r3, r0
 417 01fc 4010     		asrs	r0, r0, #1
 418 01fe 00B2     		sxth	r0, r0
ARM GAS  C:\Users\boise\AppData\Local\Temp\ccQfJPUV.s 			page 11


 419 0200 8442     		cmp	r4, r0
 420 0202 E1DB     		blt	.L12
 143:main.c        ****         }
 144:main.c        ****         
 145:main.c        ****         CyDelay(3000);
 421              		.loc 1 145 0 is_stmt 1
 422 0204 9048     		ldr	r0, .L32
 423 0206 FFF7FEFF 		bl	CyDelay
 424              	.LVL87:
 146:main.c        ****         display_clear();    
 425              		.loc 1 146 0
 426 020a FFF7FEFF 		bl	display_clear
 427              	.LVL88:
 147:main.c        ****         display_update();    
 428              		.loc 1 147 0
 429 020e FFF7FEFF 		bl	display_update
 430              	.LVL89:
 148:main.c        **** 
 149:main.c        ****         // filled rectangles
 150:main.c        ****         uint8_t color = 1;
 431              		.loc 1 150 0
 432 0212 0126     		movs	r6, #1
 151:main.c        ****         for( i = 0 ; i < gfx_height()/2 ; i += 3 ){
 433              		.loc 1 151 0
 434 0214 0024     		movs	r4, #0
 435 0216 19E0     		b	.L13
 436              	.LVL90:
 437              	.L14:
 152:main.c        ****             // alternate colors
 153:main.c        ****             gfx_fillRect(i, i, gfx_width()-i*2, gfx_height()-i*2, color%2);
 438              		.loc 1 153 0 discriminator 3
 439 0218 FFF7FEFF 		bl	gfx_width
 440              	.LVL91:
 441 021c 8046     		mov	r8, r0
 442 021e A7B2     		uxth	r7, r4
 443 0220 7A00     		lsls	r2, r7, #1
 444 0222 95B2     		uxth	r5, r2
 445 0224 FFF7FEFF 		bl	gfx_height
 446              	.LVL92:
 447 0228 431B     		subs	r3, r0, r5
 448 022a 1BB2     		sxth	r3, r3
 449 022c 4246     		mov	r2, r8
 450 022e 521B     		subs	r2, r2, r5
 451 0230 12B2     		sxth	r2, r2
 452 0232 0121     		movs	r1, #1
 453 0234 3140     		ands	r1, r6
 454 0236 0091     		str	r1, [sp]
 455 0238 2100     		movs	r1, r4
 456 023a 2000     		movs	r0, r4
 457 023c FFF7FEFF 		bl	gfx_fillRect
 458              	.LVL93:
 154:main.c        ****             display_update();    
 459              		.loc 1 154 0 discriminator 3
 460 0240 FFF7FEFF 		bl	display_update
 461              	.LVL94:
 155:main.c        ****             color++;
 462              		.loc 1 155 0 discriminator 3
ARM GAS  C:\Users\boise\AppData\Local\Temp\ccQfJPUV.s 			page 12


 463 0244 0136     		adds	r6, r6, #1
 464              	.LVL95:
 465 0246 F6B2     		uxtb	r6, r6
 466              	.LVL96:
 151:main.c        ****             // alternate colors
 467              		.loc 1 151 0 discriminator 3
 468 0248 0337     		adds	r7, r7, #3
 469 024a 3CB2     		sxth	r4, r7
 470              	.LVL97:
 471              	.L13:
 151:main.c        ****             // alternate colors
 472              		.loc 1 151 0 is_stmt 0 discriminator 1
 473 024c FFF7FEFF 		bl	gfx_height
 474              	.LVL98:
 475 0250 C30F     		lsrs	r3, r0, #31
 476 0252 1818     		adds	r0, r3, r0
 477 0254 4010     		asrs	r0, r0, #1
 478 0256 00B2     		sxth	r0, r0
 479 0258 8442     		cmp	r4, r0
 480 025a DDDB     		blt	.L14
 156:main.c        ****         }    
 157:main.c        **** 
 158:main.c        ****         CyDelay(3000);
 481              		.loc 1 158 0 is_stmt 1
 482 025c 7A48     		ldr	r0, .L32
 483 025e FFF7FEFF 		bl	CyDelay
 484              	.LVL99:
 159:main.c        ****         display_clear();    
 485              		.loc 1 159 0
 486 0262 FFF7FEFF 		bl	display_clear
 487              	.LVL100:
 160:main.c        ****         display_update();    
 488              		.loc 1 160 0
 489 0266 FFF7FEFF 		bl	display_update
 490              	.LVL101:
 161:main.c        ****         
 162:main.c        ****         // circles
 163:main.c        ****         for( i = 0 ; i < gfx_height() ; i += 2 ){
 491              		.loc 1 163 0
 492 026a 0025     		movs	r5, #0
 493 026c 14E0     		b	.L15
 494              	.LVL102:
 495              	.L16:
 164:main.c        ****             gfx_drawCircle( gfx_width()/2, gfx_height()/2, i, WHITE );
 496              		.loc 1 164 0 discriminator 3
 497 026e FFF7FEFF 		bl	gfx_width
 498              	.LVL103:
 499 0272 0400     		movs	r4, r0
 500 0274 FFF7FEFF 		bl	gfx_height
 501              	.LVL104:
 502 0278 C10F     		lsrs	r1, r0, #31
 503 027a 0818     		adds	r0, r1, r0
 504 027c 4010     		asrs	r0, r0, #1
 505 027e 01B2     		sxth	r1, r0
 506 0280 E00F     		lsrs	r0, r4, #31
 507 0282 0419     		adds	r4, r0, r4
 508 0284 6410     		asrs	r4, r4, #1
ARM GAS  C:\Users\boise\AppData\Local\Temp\ccQfJPUV.s 			page 13


 509 0286 20B2     		sxth	r0, r4
 510 0288 0123     		movs	r3, #1
 511 028a 2A00     		movs	r2, r5
 512 028c FFF7FEFF 		bl	gfx_drawCircle
 513              	.LVL105:
 165:main.c        ****             display_update();    
 514              		.loc 1 165 0 discriminator 3
 515 0290 FFF7FEFF 		bl	display_update
 516              	.LVL106:
 163:main.c        ****             gfx_drawCircle( gfx_width()/2, gfx_height()/2, i, WHITE );
 517              		.loc 1 163 0 discriminator 3
 518 0294 0235     		adds	r5, r5, #2
 519              	.LVL107:
 520 0296 2DB2     		sxth	r5, r5
 521              	.LVL108:
 522              	.L15:
 163:main.c        ****             gfx_drawCircle( gfx_width()/2, gfx_height()/2, i, WHITE );
 523              		.loc 1 163 0 is_stmt 0 discriminator 1
 524 0298 FFF7FEFF 		bl	gfx_height
 525              	.LVL109:
 526 029c 8542     		cmp	r5, r0
 527 029e E6DB     		blt	.L16
 166:main.c        ****         }    
 167:main.c        **** 
 168:main.c        ****         CyDelay(3000);
 528              		.loc 1 168 0 is_stmt 1
 529 02a0 6948     		ldr	r0, .L32
 530 02a2 FFF7FEFF 		bl	CyDelay
 531              	.LVL110:
 169:main.c        ****         display_clear();    
 532              		.loc 1 169 0
 533 02a6 FFF7FEFF 		bl	display_clear
 534              	.LVL111:
 170:main.c        ****         display_update();    
 535              		.loc 1 170 0
 536 02aa FFF7FEFF 		bl	display_update
 537              	.LVL112:
 171:main.c        ****         
 172:main.c        ****         
 173:main.c        ****     #define MIN(x, y) (((x) < (y)) ? (x) : (y))
 174:main.c        ****         
 175:main.c        ****         // triangles
 176:main.c        ****         for( i = 0 ; i < MIN(gfx_width(),gfx_height())/2; i+=5) {
 538              		.loc 1 176 0
 539 02ae 0024     		movs	r4, #0
 540 02b0 3BE0     		b	.L17
 541              	.LVL113:
 542              	.L20:
 177:main.c        ****             gfx_drawTriangle(gfx_width()/2, gfx_height()/2-i,
 543              		.loc 1 177 0 discriminator 7
 544 02b2 FFF7FEFF 		bl	gfx_width
 545              	.LVL114:
 546 02b6 0600     		movs	r6, r0
 547 02b8 FFF7FEFF 		bl	gfx_height
 548              	.LVL115:
 549 02bc 0700     		movs	r7, r0
 550 02be A4B2     		uxth	r4, r4
ARM GAS  C:\Users\boise\AppData\Local\Temp\ccQfJPUV.s 			page 14


 178:main.c        ****                              gfx_width()/2-i, gfx_height()/2+i,
 551              		.loc 1 178 0 discriminator 7
 552 02c0 FFF7FEFF 		bl	gfx_width
 553              	.LVL116:
 554 02c4 8046     		mov	r8, r0
 555 02c6 FFF7FEFF 		bl	gfx_height
 556              	.LVL117:
 557 02ca 8146     		mov	r9, r0
 179:main.c        ****                              gfx_width()/2+i, gfx_height()/2+i, WHITE);
 558              		.loc 1 179 0 discriminator 7
 559 02cc FFF7FEFF 		bl	gfx_width
 560              	.LVL118:
 561 02d0 0500     		movs	r5, r0
 562 02d2 FFF7FEFF 		bl	gfx_height
 563              	.LVL119:
 177:main.c        ****             gfx_drawTriangle(gfx_width()/2, gfx_height()/2-i,
 564              		.loc 1 177 0 discriminator 7
 565 02d6 4B46     		mov	r3, r9
 566 02d8 DB0F     		lsrs	r3, r3, #31
 567 02da 4B44     		add	r3, r3, r9
 568 02dc 5B10     		asrs	r3, r3, #1
 569 02de E318     		adds	r3, r4, r3
 570 02e0 1BB2     		sxth	r3, r3
 571 02e2 4246     		mov	r2, r8
 572 02e4 D20F     		lsrs	r2, r2, #31
 573 02e6 4244     		add	r2, r2, r8
 574 02e8 5210     		asrs	r2, r2, #1
 575 02ea 121B     		subs	r2, r2, r4
 576 02ec 12B2     		sxth	r2, r2
 577 02ee F90F     		lsrs	r1, r7, #31
 578 02f0 CF19     		adds	r7, r1, r7
 579 02f2 7F10     		asrs	r7, r7, #1
 580 02f4 391B     		subs	r1, r7, r4
 581 02f6 09B2     		sxth	r1, r1
 582 02f8 F70F     		lsrs	r7, r6, #31
 583 02fa BE19     		adds	r6, r7, r6
 584 02fc 7610     		asrs	r6, r6, #1
 585 02fe 36B2     		sxth	r6, r6
 586 0300 0127     		movs	r7, #1
 587 0302 0297     		str	r7, [sp, #8]
 588 0304 C70F     		lsrs	r7, r0, #31
 589 0306 3818     		adds	r0, r7, r0
 590 0308 4010     		asrs	r0, r0, #1
 591 030a 2018     		adds	r0, r4, r0
 592 030c 00B2     		sxth	r0, r0
 593 030e 0190     		str	r0, [sp, #4]
 594 0310 E80F     		lsrs	r0, r5, #31
 595 0312 4519     		adds	r5, r0, r5
 596 0314 6D10     		asrs	r5, r5, #1
 597 0316 6519     		adds	r5, r4, r5
 598 0318 2DB2     		sxth	r5, r5
 599 031a 0095     		str	r5, [sp]
 600 031c 3000     		movs	r0, r6
 601 031e FFF7FEFF 		bl	gfx_drawTriangle
 602              	.LVL120:
 180:main.c        ****             display_update();    
 603              		.loc 1 180 0 discriminator 7
ARM GAS  C:\Users\boise\AppData\Local\Temp\ccQfJPUV.s 			page 15


 604 0322 FFF7FEFF 		bl	display_update
 605              	.LVL121:
 176:main.c        ****             gfx_drawTriangle(gfx_width()/2, gfx_height()/2-i,
 606              		.loc 1 176 0 discriminator 7
 607 0326 0534     		adds	r4, r4, #5
 608              	.LVL122:
 609 0328 24B2     		sxth	r4, r4
 610              	.LVL123:
 611              	.L17:
 176:main.c        ****             gfx_drawTriangle(gfx_width()/2, gfx_height()/2-i,
 612              		.loc 1 176 0 is_stmt 0 discriminator 1
 613 032a 2500     		movs	r5, r4
 614 032c FFF7FEFF 		bl	gfx_width
 615              	.LVL124:
 616 0330 0600     		movs	r6, r0
 617 0332 FFF7FEFF 		bl	gfx_height
 618              	.LVL125:
 619 0336 8642     		cmp	r6, r0
 620 0338 05DA     		bge	.L18
 176:main.c        ****             gfx_drawTriangle(gfx_width()/2, gfx_height()/2-i,
 621              		.loc 1 176 0 discriminator 3
 622 033a FFF7FEFF 		bl	gfx_width
 623              	.LVL126:
 624 033e C30F     		lsrs	r3, r0, #31
 625 0340 1818     		adds	r0, r3, r0
 626 0342 4010     		asrs	r0, r0, #1
 627 0344 04E0     		b	.L19
 628              	.L18:
 176:main.c        ****             gfx_drawTriangle(gfx_width()/2, gfx_height()/2-i,
 629              		.loc 1 176 0 discriminator 4
 630 0346 FFF7FEFF 		bl	gfx_height
 631              	.LVL127:
 632 034a C30F     		lsrs	r3, r0, #31
 633 034c 1818     		adds	r0, r3, r0
 634 034e 4010     		asrs	r0, r0, #1
 635              	.L19:
 176:main.c        ****             gfx_drawTriangle(gfx_width()/2, gfx_height()/2-i,
 636              		.loc 1 176 0 discriminator 6
 637 0350 A842     		cmp	r0, r5
 638 0352 AEDC     		bgt	.L20
 181:main.c        ****         }    
 182:main.c        **** 
 183:main.c        ****         
 184:main.c        ****         CyDelay(3000);
 639              		.loc 1 184 0 is_stmt 1
 640 0354 3C48     		ldr	r0, .L32
 641 0356 FFF7FEFF 		bl	CyDelay
 642              	.LVL128:
 185:main.c        ****         display_clear();    
 643              		.loc 1 185 0
 644 035a FFF7FEFF 		bl	display_clear
 645              	.LVL129:
 186:main.c        ****         display_update();    
 646              		.loc 1 186 0
 647 035e FFF7FEFF 		bl	display_update
 648              	.LVL130:
 187:main.c        ****        
ARM GAS  C:\Users\boise\AppData\Local\Temp\ccQfJPUV.s 			page 16


 188:main.c        ****         // rotation
 189:main.c        ****         int16_t j = 0;
 190:main.c        ****         for( j = 0 ; j < 4 ; j++ ){
 649              		.loc 1 190 0
 650 0362 0023     		movs	r3, #0
 651 0364 9846     		mov	r8, r3
 652 0366 5FE0     		b	.L21
 653              	.LVL131:
 654              	.L26:
 191:main.c        ****             gfx_setRotation(j);
 655              		.loc 1 191 0
 656 0368 4346     		mov	r3, r8
 657 036a 6A46     		mov	r2, sp
 658 036c D375     		strb	r3, [r2, #23]
 659 036e D07D     		ldrb	r0, [r2, #23]
 660 0370 FFF7FEFF 		bl	gfx_setRotation
 661              	.LVL132:
 192:main.c        ****             for( i = 0 ; i < MIN(gfx_width(),gfx_height())/2; i+=5) {
 662              		.loc 1 192 0
 663 0374 0024     		movs	r4, #0
 664 0376 3EE0     		b	.L22
 665              	.LVL133:
 666              	.L25:
 193:main.c        ****                 gfx_drawTriangle(gfx_width()/2, gfx_height()/2-i,
 667              		.loc 1 193 0 discriminator 7
 668 0378 FFF7FEFF 		bl	gfx_width
 669              	.LVL134:
 670 037c 0700     		movs	r7, r0
 671 037e FFF7FEFF 		bl	gfx_height
 672              	.LVL135:
 673 0382 0600     		movs	r6, r0
 674 0384 A4B2     		uxth	r4, r4
 194:main.c        ****                                  gfx_width()/2-i, gfx_height()/2+i,
 675              		.loc 1 194 0 discriminator 7
 676 0386 FFF7FEFF 		bl	gfx_width
 677              	.LVL136:
 678 038a 8146     		mov	r9, r0
 679 038c FFF7FEFF 		bl	gfx_height
 680              	.LVL137:
 681 0390 8246     		mov	r10, r0
 195:main.c        ****                                  gfx_width()/2+i, gfx_height()/2+i, WHITE);
 682              		.loc 1 195 0 discriminator 7
 683 0392 FFF7FEFF 		bl	gfx_width
 684              	.LVL138:
 685 0396 0500     		movs	r5, r0
 686 0398 FFF7FEFF 		bl	gfx_height
 687              	.LVL139:
 193:main.c        ****                 gfx_drawTriangle(gfx_width()/2, gfx_height()/2-i,
 688              		.loc 1 193 0 discriminator 7
 689 039c 5346     		mov	r3, r10
 690 039e DB0F     		lsrs	r3, r3, #31
 691 03a0 5344     		add	r3, r3, r10
 692 03a2 5B10     		asrs	r3, r3, #1
 693 03a4 E318     		adds	r3, r4, r3
 694 03a6 1BB2     		sxth	r3, r3
 695 03a8 4A46     		mov	r2, r9
 696 03aa D20F     		lsrs	r2, r2, #31
ARM GAS  C:\Users\boise\AppData\Local\Temp\ccQfJPUV.s 			page 17


 697 03ac 4A44     		add	r2, r2, r9
 698 03ae 5210     		asrs	r2, r2, #1
 699 03b0 121B     		subs	r2, r2, r4
 700 03b2 12B2     		sxth	r2, r2
 701 03b4 F10F     		lsrs	r1, r6, #31
 702 03b6 8919     		adds	r1, r1, r6
 703 03b8 4910     		asrs	r1, r1, #1
 704 03ba 091B     		subs	r1, r1, r4
 705 03bc 09B2     		sxth	r1, r1
 706 03be FE0F     		lsrs	r6, r7, #31
 707 03c0 F719     		adds	r7, r6, r7
 708 03c2 7F10     		asrs	r7, r7, #1
 709 03c4 3FB2     		sxth	r7, r7
 710 03c6 0126     		movs	r6, #1
 711 03c8 0296     		str	r6, [sp, #8]
 712 03ca C60F     		lsrs	r6, r0, #31
 713 03cc 3018     		adds	r0, r6, r0
 714 03ce 4010     		asrs	r0, r0, #1
 715 03d0 2018     		adds	r0, r4, r0
 716 03d2 00B2     		sxth	r0, r0
 717 03d4 0190     		str	r0, [sp, #4]
 718 03d6 E80F     		lsrs	r0, r5, #31
 719 03d8 4519     		adds	r5, r0, r5
 720 03da 6D10     		asrs	r5, r5, #1
 721 03dc 6519     		adds	r5, r4, r5
 722 03de 2DB2     		sxth	r5, r5
 723 03e0 0095     		str	r5, [sp]
 724 03e2 3800     		movs	r0, r7
 725 03e4 FFF7FEFF 		bl	gfx_drawTriangle
 726              	.LVL140:
 196:main.c        ****                 display_update(); 
 727              		.loc 1 196 0 discriminator 7
 728 03e8 FFF7FEFF 		bl	display_update
 729              	.LVL141:
 197:main.c        ****                 CyDelay(200);
 730              		.loc 1 197 0 discriminator 7
 731 03ec C820     		movs	r0, #200
 732 03ee FFF7FEFF 		bl	CyDelay
 733              	.LVL142:
 192:main.c        ****                 gfx_drawTriangle(gfx_width()/2, gfx_height()/2-i,
 734              		.loc 1 192 0 discriminator 7
 735 03f2 0534     		adds	r4, r4, #5
 736              	.LVL143:
 737 03f4 24B2     		sxth	r4, r4
 738              	.LVL144:
 739              	.L22:
 192:main.c        ****                 gfx_drawTriangle(gfx_width()/2, gfx_height()/2-i,
 740              		.loc 1 192 0 is_stmt 0 discriminator 1
 741 03f6 2500     		movs	r5, r4
 742 03f8 FFF7FEFF 		bl	gfx_width
 743              	.LVL145:
 744 03fc 0700     		movs	r7, r0
 745 03fe FFF7FEFF 		bl	gfx_height
 746              	.LVL146:
 747 0402 8742     		cmp	r7, r0
 748 0404 05DA     		bge	.L23
 192:main.c        ****                 gfx_drawTriangle(gfx_width()/2, gfx_height()/2-i,
ARM GAS  C:\Users\boise\AppData\Local\Temp\ccQfJPUV.s 			page 18


 749              		.loc 1 192 0 discriminator 3
 750 0406 FFF7FEFF 		bl	gfx_width
 751              	.LVL147:
 752 040a C30F     		lsrs	r3, r0, #31
 753 040c 1818     		adds	r0, r3, r0
 754 040e 4010     		asrs	r0, r0, #1
 755 0410 04E0     		b	.L24
 756              	.L23:
 192:main.c        ****                 gfx_drawTriangle(gfx_width()/2, gfx_height()/2-i,
 757              		.loc 1 192 0 discriminator 4
 758 0412 FFF7FEFF 		bl	gfx_height
 759              	.LVL148:
 760 0416 C30F     		lsrs	r3, r0, #31
 761 0418 1818     		adds	r0, r3, r0
 762 041a 4010     		asrs	r0, r0, #1
 763              	.L24:
 192:main.c        ****                 gfx_drawTriangle(gfx_width()/2, gfx_height()/2-i,
 764              		.loc 1 192 0 discriminator 6
 765 041c A842     		cmp	r0, r5
 766 041e ABDC     		bgt	.L25
 190:main.c        ****             gfx_setRotation(j);
 767              		.loc 1 190 0 is_stmt 1 discriminator 2
 768 0420 4646     		mov	r6, r8
 769 0422 0136     		adds	r6, r6, #1
 770 0424 33B2     		sxth	r3, r6
 771 0426 9846     		mov	r8, r3
 772              	.LVL149:
 773              	.L21:
 190:main.c        ****             gfx_setRotation(j);
 774              		.loc 1 190 0 is_stmt 0 discriminator 1
 775 0428 4346     		mov	r3, r8
 776 042a 032B     		cmp	r3, #3
 777 042c 9CDD     		ble	.L26
 198:main.c        ****             }    
 199:main.c        ****         }
 200:main.c        ****         
 201:main.c        ****         CyDelay(3000);
 778              		.loc 1 201 0 is_stmt 1
 779 042e 0648     		ldr	r0, .L32
 780 0430 FFF7FEFF 		bl	CyDelay
 781              	.LVL150:
 202:main.c        ****        
 203:main.c        ****         // invert and dim
 204:main.c        ****         display_invert(1);
 782              		.loc 1 204 0
 783 0434 0120     		movs	r0, #1
 784 0436 FFF7FEFF 		bl	display_invert
 785              	.LVL151:
 205:main.c        ****         CyDelay(1000);
 786              		.loc 1 205 0
 787 043a FA20     		movs	r0, #250
 788 043c 8000     		lsls	r0, r0, #2
 789 043e FFF7FEFF 		bl	CyDelay
 790              	.LVL152:
 206:main.c        ****         
 207:main.c        ****         for( i = 256 ; i >= 0 ; i-- ){
 791              		.loc 1 207 0
ARM GAS  C:\Users\boise\AppData\Local\Temp\ccQfJPUV.s 			page 19


 792 0442 8024     		movs	r4, #128
 793 0444 6400     		lsls	r4, r4, #1
 794 0446 0FE0     		b	.L27
 795              	.L33:
 796              		.align	2
 797              	.L32:
 798 0448 B80B0000 		.word	3000
 799 044c 00000000 		.word	.LC0
 800 0450 10000000 		.word	.LC2
 801 0454 20000000 		.word	.LC4
 802              	.LVL153:
 803              	.L28:
 208:main.c        ****             display_contrast(i); 
 804              		.loc 1 208 0 discriminator 3
 805 0458 E0B2     		uxtb	r0, r4
 806 045a FFF7FEFF 		bl	display_contrast
 807              	.LVL154:
 209:main.c        ****             CyDelay(10);
 808              		.loc 1 209 0 discriminator 3
 809 045e 0A20     		movs	r0, #10
 810 0460 FFF7FEFF 		bl	CyDelay
 811              	.LVL155:
 207:main.c        ****             display_contrast(i); 
 812              		.loc 1 207 0 discriminator 3
 813 0464 013C     		subs	r4, r4, #1
 814              	.LVL156:
 815 0466 24B2     		sxth	r4, r4
 816              	.LVL157:
 817              	.L27:
 207:main.c        ****             display_contrast(i); 
 818              		.loc 1 207 0 is_stmt 0 discriminator 1
 819 0468 002C     		cmp	r4, #0
 820 046a F5DA     		bge	.L28
 210:main.c        ****         }
 211:main.c        ****         
 212:main.c        ****         
 213:main.c        ****         
 214:main.c        ****         display_invert(0);
 821              		.loc 1 214 0 is_stmt 1
 822 046c 0020     		movs	r0, #0
 823 046e FFF7FEFF 		bl	display_invert
 824              	.LVL158:
 215:main.c        ****         CyDelay(1000);
 825              		.loc 1 215 0
 826 0472 FA20     		movs	r0, #250
 827 0474 8000     		lsls	r0, r0, #2
 828 0476 FFF7FEFF 		bl	CyDelay
 829              	.LVL159:
 216:main.c        ****         for( i = 0 ; i < 256 ; i++ ){
 830              		.loc 1 216 0
 831 047a 0024     		movs	r4, #0
 832 047c 07E0     		b	.L29
 833              	.LVL160:
 834              	.L30:
 217:main.c        ****             display_contrast(i); 
 835              		.loc 1 217 0 discriminator 3
 836 047e E0B2     		uxtb	r0, r4
ARM GAS  C:\Users\boise\AppData\Local\Temp\ccQfJPUV.s 			page 20


 837 0480 FFF7FEFF 		bl	display_contrast
 838              	.LVL161:
 218:main.c        ****             CyDelay(10);
 839              		.loc 1 218 0 discriminator 3
 840 0484 0A20     		movs	r0, #10
 841 0486 FFF7FEFF 		bl	CyDelay
 842              	.LVL162:
 216:main.c        ****         for( i = 0 ; i < 256 ; i++ ){
 843              		.loc 1 216 0 discriminator 3
 844 048a 0134     		adds	r4, r4, #1
 845              	.LVL163:
 846 048c 24B2     		sxth	r4, r4
 847              	.LVL164:
 848              	.L29:
 216:main.c        ****         for( i = 0 ; i < 256 ; i++ ){
 849              		.loc 1 216 0 is_stmt 0 discriminator 1
 850 048e FF2C     		cmp	r4, #255
 851 0490 F5DD     		ble	.L30
 219:main.c        ****         }
 220:main.c        ****         
 221:main.c        ****     
 222:main.c        ****         CyDelay(3000);
 852              		.loc 1 222 0 is_stmt 1
 853 0492 0248     		ldr	r0, .L34
 854 0494 FFF7FEFF 		bl	CyDelay
 855              	.LVL165:
 856              	.LBE2:
 223:main.c        **** 
 224:main.c        ****     
 225:main.c        ****     
 226:main.c        ****     
 227:main.c        ****     }
 857              		.loc 1 227 0
 858 0498 C5E5     		b	.L31
 859              	.L35:
 860 049a C046     		.align	2
 861              	.L34:
 862 049c B80B0000 		.word	3000
 863              		.cfi_endproc
 864              	.LFE32:
 865              		.size	main, .-main
 866              		.section	.rodata.str1.4,"aMS",%progbits,1
 867              		.align	2
 868              	.LC0:
 869 0000 74657374 		.ascii	"test line 1 ...\000"
 869      206C696E 
 869      65203120 
 869      2E2E2E00 
 870              	.LC2:
 871 0010 326E6420 		.ascii	"2nd line ...\000"
 871      6C696E65 
 871      202E2E2E 
 871      00
 872 001d 000000   		.space	3
 873              	.LC4:
 874 0020 7363726F 		.ascii	"scroll\000"
 874      6C6C00
ARM GAS  C:\Users\boise\AppData\Local\Temp\ccQfJPUV.s 			page 21


 875              		.text
 876              	.Letext0:
 877              		.file 2 "c:\\program files (x86)\\cypress\\psoc creator\\4.4\\psoc creator\\import\\gnu\\arm\\5.4.
 878              		.file 3 "c:\\program files (x86)\\cypress\\psoc creator\\4.4\\psoc creator\\import\\gnu\\arm\\5.4.
 879              		.file 4 "ssd1306.h"
 880              		.file 5 "Generated_Source\\PSoC4/CyLib.h"
 881              		.file 6 "Generated_Source\\PSoC4/PWM.h"
 882              		.file 7 "Generated_Source\\PSoC4/I2C.h"
 883              		.file 8 "Generated_Source\\PSoC4/OLED.h"
 884              		.file 9 "Generated_Source\\PSoC4/ADC.h"