ARM GAS  C:\Users\boise\AppData\Local\Temp\ccatBvcZ.s 			page 1


   1              		.syntax unified
   2              		.cpu cortex-m0
   3              		.fpu softvfp
   4              		.eabi_attribute 20, 1
   5              		.eabi_attribute 21, 1
   6              		.eabi_attribute 23, 3
   7              		.eabi_attribute 24, 1
   8              		.eabi_attribute 25, 1
   9              		.eabi_attribute 26, 1
  10              		.eabi_attribute 30, 1
  11              		.eabi_attribute 34, 0
  12              		.eabi_attribute 18, 4
  13              		.thumb
  14              		.syntax unified
  15              		.file	"printf.c"
  16              		.text
  17              	.Ltext0:
  18              		.cfi_sections	.debug_frame
  19              		.global	__aeabi_uidiv
  20              		.global	__aeabi_uidivmod
  21              		.section	.text.ui2a,"ax",%progbits
  22              		.align	2
  23              		.code	16
  24              		.thumb_func
  25              		.type	ui2a, %function
  26              	ui2a:
  27              	.LFB0:
  28              		.file 1 "tinyprintf\\API\\printf.c"
   1:tinyprintf\API/printf.c **** /*
   2:tinyprintf\API/printf.c ****  * Copyright (c) 2004,2012 Kustaa Nyholm / SpareTimeLabs
   3:tinyprintf\API/printf.c ****  *
   4:tinyprintf\API/printf.c ****  * All rights reserved.
   5:tinyprintf\API/printf.c ****  *
   6:tinyprintf\API/printf.c ****  * Redistribution and use in source and binary forms, with or without modification, 
   7:tinyprintf\API/printf.c ****  * are permitted provided that the following conditions are met:
   8:tinyprintf\API/printf.c ****  *
   9:tinyprintf\API/printf.c ****  * Redistributions of source code must retain the above copyright notice, this list 
  10:tinyprintf\API/printf.c ****  * of conditions and the following disclaimer.
  11:tinyprintf\API/printf.c ****  * 
  12:tinyprintf\API/printf.c ****  * Redistributions in binary form must reproduce the above copyright notice, this 
  13:tinyprintf\API/printf.c ****  * list of conditions and the following disclaimer in the documentation and/or other
  14:tinyprintf\API/printf.c ****  * materials provided with the distribution.
  15:tinyprintf\API/printf.c ****  *  
  16:tinyprintf\API/printf.c ****  * Neither the name of the Kustaa Nyholm or SpareTimeLabs nor the names of its 
  17:tinyprintf\API/printf.c ****  * contributors may be used to endorse or promote products derived from this software 
  18:tinyprintf\API/printf.c ****  * without specific prior written permission.
  19:tinyprintf\API/printf.c ****  * 
  20:tinyprintf\API/printf.c ****  * THIS SOFTWARE IS PROVIDED BY THE COPYRIGHT HOLDERS AND CONTRIBUTORS "AS IS" 
  21:tinyprintf\API/printf.c ****  * AND ANY EXPRESS OR IMPLIED WARRANTIES, INCLUDING, BUT NOT LIMITED TO, THE IMPLIED 
  22:tinyprintf\API/printf.c ****  * WARRANTIES OF MERCHANTABILITY AND FITNESS FOR A PARTICULAR PURPOSE ARE DISCLAIMED. 
  23:tinyprintf\API/printf.c ****  * IN NO EVENT SHALL THE COPYRIGHT HOLDER OR CONTRIBUTORS BE LIABLE FOR ANY DIRECT, 
  24:tinyprintf\API/printf.c ****  * INDIRECT, INCIDENTAL, SPECIAL, EXEMPLARY, OR CONSEQUENTIAL DAMAGES (INCLUDING, BUT 
  25:tinyprintf\API/printf.c ****  * NOT LIMITED TO, PROCUREMENT OF SUBSTITUTE GOODS OR SERVICES; LOSS OF USE, DATA, 
  26:tinyprintf\API/printf.c ****  * OR PROFITS; OR BUSINESS INTERRUPTION) HOWEVER CAUSED AND ON ANY THEORY OF LIABILITY, 
  27:tinyprintf\API/printf.c ****  * WHETHER IN CONTRACT, STRICT LIABILITY, OR TORT (INCLUDING NEGLIGENCE OR OTHERWISE) 
  28:tinyprintf\API/printf.c ****  * ARISING IN ANY WAY OUT OF THE USE OF THIS SOFTWARE, EVEN IF ADVISED OF THE POSSIBILITY
  29:tinyprintf\API/printf.c ****  * OF SUCH DAMAGE.
ARM GAS  C:\Users\boise\AppData\Local\Temp\ccatBvcZ.s 			page 2


  30:tinyprintf\API/printf.c ****  */
  31:tinyprintf\API/printf.c **** 
  32:tinyprintf\API/printf.c **** #include "printf.h"
  33:tinyprintf\API/printf.c **** 
  34:tinyprintf\API/printf.c **** typedef void (*putcf) (void*,char);
  35:tinyprintf\API/printf.c **** static putcf stdout_putf;
  36:tinyprintf\API/printf.c **** static void* stdout_putp;
  37:tinyprintf\API/printf.c **** 
  38:tinyprintf\API/printf.c **** 
  39:tinyprintf\API/printf.c **** #ifdef PRINTF_LONG_SUPPORT
  40:tinyprintf\API/printf.c **** 
  41:tinyprintf\API/printf.c **** static void uli2a(unsigned long int num, unsigned int base, int uc,char * bf)
  42:tinyprintf\API/printf.c **** 	{
  43:tinyprintf\API/printf.c **** 	int n=0;
  44:tinyprintf\API/printf.c **** 	unsigned int d=1;
  45:tinyprintf\API/printf.c **** 	while (num/d >= base)
  46:tinyprintf\API/printf.c **** 		d*=base;		 
  47:tinyprintf\API/printf.c **** 	while (d!=0) {
  48:tinyprintf\API/printf.c **** 		int dgt = num / d;
  49:tinyprintf\API/printf.c **** 		num%=d;
  50:tinyprintf\API/printf.c **** 		d/=base;
  51:tinyprintf\API/printf.c **** 		if (n || dgt>0|| d==0) {
  52:tinyprintf\API/printf.c **** 			*bf++ = dgt+(dgt<10 ? '0' : (uc ? 'A' : 'a')-10);
  53:tinyprintf\API/printf.c **** 			++n;
  54:tinyprintf\API/printf.c **** 			}
  55:tinyprintf\API/printf.c **** 		}
  56:tinyprintf\API/printf.c **** 	*bf=0;
  57:tinyprintf\API/printf.c **** 	}
  58:tinyprintf\API/printf.c **** 
  59:tinyprintf\API/printf.c **** static void li2a (long num, char * bf)
  60:tinyprintf\API/printf.c **** 	{
  61:tinyprintf\API/printf.c **** 	if (num<0) {
  62:tinyprintf\API/printf.c **** 		num=-num;
  63:tinyprintf\API/printf.c **** 		*bf++ = '-';
  64:tinyprintf\API/printf.c **** 		}
  65:tinyprintf\API/printf.c **** 	uli2a(num,10,0,bf);
  66:tinyprintf\API/printf.c **** 	}
  67:tinyprintf\API/printf.c **** 
  68:tinyprintf\API/printf.c **** #endif
  69:tinyprintf\API/printf.c **** 
  70:tinyprintf\API/printf.c **** static void ui2a(unsigned int num, unsigned int base, int uc,char * bf)
  71:tinyprintf\API/printf.c **** 	{
  29              		.loc 1 71 0
  30              		.cfi_startproc
  31              		@ args = 0, pretend = 0, frame = 8
  32              		@ frame_needed = 0, uses_anonymous_args = 0
  33              	.LVL0:
  34 0000 F0B5     		push	{r4, r5, r6, r7, lr}
  35              		.cfi_def_cfa_offset 20
  36              		.cfi_offset 4, -20
  37              		.cfi_offset 5, -16
  38              		.cfi_offset 6, -12
  39              		.cfi_offset 7, -8
  40              		.cfi_offset 14, -4
  41 0002 5746     		mov	r7, r10
  42 0004 4E46     		mov	r6, r9
  43 0006 C0B4     		push	{r6, r7}
ARM GAS  C:\Users\boise\AppData\Local\Temp\ccatBvcZ.s 			page 3


  44              		.cfi_def_cfa_offset 28
  45              		.cfi_offset 9, -28
  46              		.cfi_offset 10, -24
  47 0008 83B0     		sub	sp, sp, #12
  48              		.cfi_def_cfa_offset 40
  49 000a 0090     		str	r0, [sp]
  50 000c 0F00     		movs	r7, r1
  51 000e 9246     		mov	r10, r2
  52 0010 1E00     		movs	r6, r3
  53              	.LVL1:
  72:tinyprintf\API/printf.c **** 	int n=0;
  73:tinyprintf\API/printf.c **** 	unsigned int d=1;
  54              		.loc 1 73 0
  55 0012 0124     		movs	r4, #1
  74:tinyprintf\API/printf.c **** 	while (num/d >= base)
  56              		.loc 1 74 0
  57 0014 00E0     		b	.L2
  58              	.LVL2:
  59              	.L3:
  75:tinyprintf\API/printf.c **** 		d*=base;		
  60              		.loc 1 75 0
  61 0016 7C43     		muls	r4, r7
  62              	.LVL3:
  63              	.L2:
  74:tinyprintf\API/printf.c **** 	while (num/d >= base)
  64              		.loc 1 74 0
  65 0018 2100     		movs	r1, r4
  66 001a 0098     		ldr	r0, [sp]
  67 001c FFF7FEFF 		bl	__aeabi_uidiv
  68              	.LVL4:
  69 0020 B842     		cmp	r0, r7
  70 0022 F8D2     		bcs	.L3
  71 0024 0023     		movs	r3, #0
  72 0026 9946     		mov	r9, r3
  73 0028 28E0     		b	.L4
  74              	.LVL5:
  75              	.L8:
  76              	.LBB2:
  76:tinyprintf\API/printf.c **** 	while (d!=0) {
  77:tinyprintf\API/printf.c **** 		int dgt = num / d;
  77              		.loc 1 77 0
  78 002a 2100     		movs	r1, r4
  79 002c 0098     		ldr	r0, [sp]
  80 002e FFF7FEFF 		bl	__aeabi_uidiv
  81              	.LVL6:
  82 0032 0500     		movs	r5, r0
  83 0034 0190     		str	r0, [sp, #4]
  84              	.LVL7:
  78:tinyprintf\API/printf.c **** 		num%= d;
  85              		.loc 1 78 0
  86 0036 2100     		movs	r1, r4
  87 0038 0098     		ldr	r0, [sp]
  88              	.LVL8:
  89 003a FFF7FEFF 		bl	__aeabi_uidivmod
  90              	.LVL9:
  91 003e 0091     		str	r1, [sp]
  92              	.LVL10:
ARM GAS  C:\Users\boise\AppData\Local\Temp\ccatBvcZ.s 			page 4


  79:tinyprintf\API/printf.c **** 		d/=base;
  93              		.loc 1 79 0
  94 0040 3900     		movs	r1, r7
  95              	.LVL11:
  96 0042 2000     		movs	r0, r4
  97 0044 FFF7FEFF 		bl	__aeabi_uidiv
  98              	.LVL12:
  99 0048 0400     		movs	r4, r0
 100              	.LVL13:
  80:tinyprintf\API/printf.c **** 		if (n || dgt>0 || d==0) {
 101              		.loc 1 80 0
 102 004a 4B46     		mov	r3, r9
 103 004c 002B     		cmp	r3, #0
 104 004e 03D1     		bne	.L5
 105              	.LVL14:
 106              		.loc 1 80 0 is_stmt 0 discriminator 1
 107 0050 002D     		cmp	r5, #0
 108 0052 01DC     		bgt	.L5
 109              		.loc 1 80 0 discriminator 2
 110 0054 0028     		cmp	r0, #0
 111 0056 11D1     		bne	.L4
 112              	.L5:
  81:tinyprintf\API/printf.c **** 			*bf++ = dgt+(dgt<10 ? '0' : (uc ? 'A' : 'a')-10);
 113              		.loc 1 81 0 is_stmt 1
 114 0058 731C     		adds	r3, r6, #1
 115              	.LVL15:
 116 005a 092D     		cmp	r5, #9
 117 005c 04DD     		ble	.L9
 118              		.loc 1 81 0 is_stmt 0 discriminator 1
 119 005e 5246     		mov	r2, r10
 120 0060 002A     		cmp	r2, #0
 121 0062 03D0     		beq	.L10
 122              	.LVL16:
 123              		.loc 1 81 0
 124 0064 3722     		movs	r2, #55
 125              	.LVL17:
 126 0066 02E0     		b	.L7
 127              	.L9:
 128 0068 3022     		movs	r2, #48
 129 006a 00E0     		b	.L7
 130              	.LVL18:
 131              	.L10:
 132 006c 5722     		movs	r2, #87
 133              	.LVL19:
 134              	.L7:
 135              		.loc 1 81 0 discriminator 8
 136 006e 0199     		ldr	r1, [sp, #4]
 137 0070 5518     		adds	r5, r2, r1
 138              	.LVL20:
 139 0072 3570     		strb	r5, [r6]
  82:tinyprintf\API/printf.c **** 			++n;
 140              		.loc 1 82 0 is_stmt 1 discriminator 8
 141 0074 0122     		movs	r2, #1
 142 0076 9446     		mov	ip, r2
 143 0078 E144     		add	r9, r9, ip
 144              	.LVL21:
  81:tinyprintf\API/printf.c **** 			*bf++ = dgt+(dgt<10 ? '0' : (uc ? 'A' : 'a')-10);
ARM GAS  C:\Users\boise\AppData\Local\Temp\ccatBvcZ.s 			page 5


 145              		.loc 1 81 0 discriminator 8
 146 007a 1E00     		movs	r6, r3
 147              	.LVL22:
 148              	.L4:
 149              	.LBE2:
  76:tinyprintf\API/printf.c **** 		int dgt = num / d;
 150              		.loc 1 76 0
 151 007c 002C     		cmp	r4, #0
 152 007e D4D1     		bne	.L8
  83:tinyprintf\API/printf.c **** 			}
  84:tinyprintf\API/printf.c **** 		}
  85:tinyprintf\API/printf.c **** 	*bf=0;
 153              		.loc 1 85 0
 154 0080 0023     		movs	r3, #0
 155 0082 3370     		strb	r3, [r6]
  86:tinyprintf\API/printf.c **** 	}
 156              		.loc 1 86 0
 157 0084 03B0     		add	sp, sp, #12
 158              	.LVL23:
 159              		@ sp needed
 160              	.LVL24:
 161              	.LVL25:
 162              	.LVL26:
 163              	.LVL27:
 164              	.LVL28:
 165 0086 0CBC     		pop	{r2, r3}
 166 0088 9146     		mov	r9, r2
 167 008a 9A46     		mov	r10, r3
 168 008c F0BD     		pop	{r4, r5, r6, r7, pc}
 169              		.cfi_endproc
 170              	.LFE0:
 171              		.size	ui2a, .-ui2a
 172 008e C046     		.section	.text.i2a,"ax",%progbits
 173              		.align	2
 174              		.code	16
 175              		.thumb_func
 176              		.type	i2a, %function
 177              	i2a:
 178              	.LFB1:
  87:tinyprintf\API/printf.c **** 
  88:tinyprintf\API/printf.c **** static void i2a (int num, char * bf)
  89:tinyprintf\API/printf.c **** 	{
 179              		.loc 1 89 0
 180              		.cfi_startproc
 181              		@ args = 0, pretend = 0, frame = 0
 182              		@ frame_needed = 0, uses_anonymous_args = 0
 183              	.LVL29:
 184 0000 10B5     		push	{r4, lr}
 185              		.cfi_def_cfa_offset 8
 186              		.cfi_offset 4, -8
 187              		.cfi_offset 14, -4
 188 0002 0B00     		movs	r3, r1
  90:tinyprintf\API/printf.c **** 	if (num<0) {
 189              		.loc 1 90 0
 190 0004 0028     		cmp	r0, #0
 191 0006 03DA     		bge	.L12
  91:tinyprintf\API/printf.c **** 		num=-num;
ARM GAS  C:\Users\boise\AppData\Local\Temp\ccatBvcZ.s 			page 6


 192              		.loc 1 91 0
 193 0008 4042     		rsbs	r0, r0, #0
 194              	.LVL30:
  92:tinyprintf\API/printf.c **** 		*bf++ = '-';
 195              		.loc 1 92 0
 196 000a 2D22     		movs	r2, #45
 197 000c 0A70     		strb	r2, [r1]
 198 000e 0133     		adds	r3, r3, #1
 199              	.LVL31:
 200              	.L12:
  93:tinyprintf\API/printf.c **** 		}
  94:tinyprintf\API/printf.c **** 	ui2a(num,10,0,bf);
 201              		.loc 1 94 0
 202 0010 0022     		movs	r2, #0
 203 0012 0A21     		movs	r1, #10
 204 0014 FFF7FEFF 		bl	ui2a
 205              	.LVL32:
  95:tinyprintf\API/printf.c **** 	}
 206              		.loc 1 95 0
 207              		@ sp needed
 208 0018 10BD     		pop	{r4, pc}
 209              		.cfi_endproc
 210              	.LFE1:
 211              		.size	i2a, .-i2a
 212 001a C046     		.section	.text.a2d,"ax",%progbits
 213              		.align	2
 214              		.code	16
 215              		.thumb_func
 216              		.type	a2d, %function
 217              	a2d:
 218              	.LFB2:
  96:tinyprintf\API/printf.c **** 
  97:tinyprintf\API/printf.c **** static int a2d(char ch)
  98:tinyprintf\API/printf.c **** 	{
 219              		.loc 1 98 0
 220              		.cfi_startproc
 221              		@ args = 0, pretend = 0, frame = 0
 222              		@ frame_needed = 0, uses_anonymous_args = 0
 223              		@ link register save eliminated.
 224              	.LVL33:
  99:tinyprintf\API/printf.c **** 	if (ch>='0' && ch<='9') 
 225              		.loc 1 99 0
 226 0000 0300     		movs	r3, r0
 227 0002 303B     		subs	r3, r3, #48
 228 0004 DBB2     		uxtb	r3, r3
 229 0006 092B     		cmp	r3, #9
 230 0008 01D8     		bhi	.L14
 100:tinyprintf\API/printf.c **** 		return ch-'0';
 231              		.loc 1 100 0
 232 000a 3038     		subs	r0, r0, #48
 233              	.LVL34:
 234 000c 0FE0     		b	.L15
 235              	.LVL35:
 236              	.L14:
 101:tinyprintf\API/printf.c **** 	else if (ch>='a' && ch<='f')
 237              		.loc 1 101 0
 238 000e 0300     		movs	r3, r0
ARM GAS  C:\Users\boise\AppData\Local\Temp\ccatBvcZ.s 			page 7


 239 0010 613B     		subs	r3, r3, #97
 240 0012 DBB2     		uxtb	r3, r3
 241 0014 052B     		cmp	r3, #5
 242 0016 01D8     		bhi	.L16
 102:tinyprintf\API/printf.c **** 		return ch-'a'+10;
 243              		.loc 1 102 0
 244 0018 5738     		subs	r0, r0, #87
 245              	.LVL36:
 246 001a 08E0     		b	.L15
 247              	.LVL37:
 248              	.L16:
 103:tinyprintf\API/printf.c **** 	else if (ch>='A' && ch<='F')
 249              		.loc 1 103 0
 250 001c 0300     		movs	r3, r0
 251 001e 413B     		subs	r3, r3, #65
 252 0020 DBB2     		uxtb	r3, r3
 253 0022 052B     		cmp	r3, #5
 254 0024 01D8     		bhi	.L17
 104:tinyprintf\API/printf.c **** 		return ch-'A'+10;
 255              		.loc 1 104 0
 256 0026 3738     		subs	r0, r0, #55
 257              	.LVL38:
 258 0028 01E0     		b	.L15
 259              	.LVL39:
 260              	.L17:
 105:tinyprintf\API/printf.c **** 	else return -1;
 261              		.loc 1 105 0
 262 002a 0120     		movs	r0, #1
 263              	.LVL40:
 264 002c 4042     		rsbs	r0, r0, #0
 265              	.L15:
 106:tinyprintf\API/printf.c **** 	}
 266              		.loc 1 106 0
 267              		@ sp needed
 268 002e 7047     		bx	lr
 269              		.cfi_endproc
 270              	.LFE2:
 271              		.size	a2d, .-a2d
 272              		.section	.text.a2i,"ax",%progbits
 273              		.align	2
 274              		.code	16
 275              		.thumb_func
 276              		.type	a2i, %function
 277              	a2i:
 278              	.LFB3:
 107:tinyprintf\API/printf.c **** 
 108:tinyprintf\API/printf.c **** static char a2i(char ch, char** src,int base,int* nump)
 109:tinyprintf\API/printf.c **** 	{
 279              		.loc 1 109 0
 280              		.cfi_startproc
 281              		@ args = 0, pretend = 0, frame = 0
 282              		@ frame_needed = 0, uses_anonymous_args = 0
 283              	.LVL41:
 284 0000 F8B5     		push	{r3, r4, r5, r6, r7, lr}
 285              		.cfi_def_cfa_offset 24
 286              		.cfi_offset 3, -24
 287              		.cfi_offset 4, -20
ARM GAS  C:\Users\boise\AppData\Local\Temp\ccatBvcZ.s 			page 8


 288              		.cfi_offset 5, -16
 289              		.cfi_offset 6, -12
 290              		.cfi_offset 7, -8
 291              		.cfi_offset 14, -4
 292 0002 4F46     		mov	r7, r9
 293 0004 4646     		mov	r6, r8
 294 0006 C0B4     		push	{r6, r7}
 295              		.cfi_def_cfa_offset 32
 296              		.cfi_offset 8, -32
 297              		.cfi_offset 9, -28
 298 0008 0600     		movs	r6, r0
 299 000a 8846     		mov	r8, r1
 300 000c 1700     		movs	r7, r2
 301 000e 9946     		mov	r9, r3
 110:tinyprintf\API/printf.c **** 	char* p= *src;
 302              		.loc 1 110 0
 303 0010 0D68     		ldr	r5, [r1]
 304              	.LVL42:
 111:tinyprintf\API/printf.c **** 	int num=0;
 305              		.loc 1 111 0
 306 0012 0024     		movs	r4, #0
 112:tinyprintf\API/printf.c **** 	int digit;
 113:tinyprintf\API/printf.c **** 	while ((digit=a2d(ch))>=0) {
 307              		.loc 1 113 0
 308 0014 05E0     		b	.L19
 309              	.LVL43:
 310              	.L21:
 114:tinyprintf\API/printf.c **** 		if (digit>base) break;
 311              		.loc 1 114 0
 312 0016 B842     		cmp	r0, r7
 313 0018 08DC     		bgt	.L20
 115:tinyprintf\API/printf.c **** 		num=num*base+digit;
 314              		.loc 1 115 0
 315 001a 7C43     		muls	r4, r7
 316              	.LVL44:
 317 001c 0419     		adds	r4, r0, r4
 318              	.LVL45:
 116:tinyprintf\API/printf.c **** 		ch=*p++;
 319              		.loc 1 116 0
 320 001e 2E78     		ldrb	r6, [r5]
 321              	.LVL46:
 322 0020 0135     		adds	r5, r5, #1
 323              	.LVL47:
 324              	.L19:
 113:tinyprintf\API/printf.c **** 		if (digit>base) break;
 325              		.loc 1 113 0
 326 0022 3000     		movs	r0, r6
 327 0024 FFF7FEFF 		bl	a2d
 328              	.LVL48:
 329 0028 0028     		cmp	r0, #0
 330 002a F4DA     		bge	.L21
 331              	.L20:
 117:tinyprintf\API/printf.c **** 		}
 118:tinyprintf\API/printf.c **** 	*src=p;
 332              		.loc 1 118 0
 333 002c 4346     		mov	r3, r8
 334 002e 1D60     		str	r5, [r3]
ARM GAS  C:\Users\boise\AppData\Local\Temp\ccatBvcZ.s 			page 9


 119:tinyprintf\API/printf.c **** 	*nump=num;
 335              		.loc 1 119 0
 336 0030 4B46     		mov	r3, r9
 337 0032 1C60     		str	r4, [r3]
 120:tinyprintf\API/printf.c **** 	return ch;
 121:tinyprintf\API/printf.c **** 	}
 338              		.loc 1 121 0
 339 0034 3000     		movs	r0, r6
 340              	.LVL49:
 341              		@ sp needed
 342              	.LVL50:
 343              	.LVL51:
 344              	.LVL52:
 345              	.LVL53:
 346              	.LVL54:
 347              	.LVL55:
 348 0036 0CBC     		pop	{r2, r3}
 349 0038 9046     		mov	r8, r2
 350 003a 9946     		mov	r9, r3
 351 003c F8BD     		pop	{r3, r4, r5, r6, r7, pc}
 352              		.cfi_endproc
 353              	.LFE3:
 354              		.size	a2i, .-a2i
 355 003e C046     		.section	.text.putchw,"ax",%progbits
 356              		.align	2
 357              		.code	16
 358              		.thumb_func
 359              		.type	putchw, %function
 360              	putchw:
 361              	.LFB4:
 122:tinyprintf\API/printf.c **** 
 123:tinyprintf\API/printf.c **** static void putchw(void* putp,putcf putf,int n, char z, char* bf)
 124:tinyprintf\API/printf.c **** 	{
 362              		.loc 1 124 0
 363              		.cfi_startproc
 364              		@ args = 4, pretend = 0, frame = 8
 365              		@ frame_needed = 0, uses_anonymous_args = 0
 366              	.LVL56:
 367 0000 F0B5     		push	{r4, r5, r6, r7, lr}
 368              		.cfi_def_cfa_offset 20
 369              		.cfi_offset 4, -20
 370              		.cfi_offset 5, -16
 371              		.cfi_offset 6, -12
 372              		.cfi_offset 7, -8
 373              		.cfi_offset 14, -4
 374 0002 83B0     		sub	sp, sp, #12
 375              		.cfi_def_cfa_offset 32
 376 0004 0500     		movs	r5, r0
 377 0006 0F00     		movs	r7, r1
 378 0008 089C     		ldr	r4, [sp, #32]
 125:tinyprintf\API/printf.c **** 	char fc=z? '0' : ' ';
 379              		.loc 1 125 0
 380 000a 002B     		cmp	r3, #0
 381 000c 02D0     		beq	.L30
 382 000e 3023     		movs	r3, #48
 383              	.LVL57:
 384 0010 0193     		str	r3, [sp, #4]
ARM GAS  C:\Users\boise\AppData\Local\Temp\ccatBvcZ.s 			page 10


 385 0012 01E0     		b	.L23
 386              	.LVL58:
 387              	.L30:
 388 0014 2023     		movs	r3, #32
 389              	.LVL59:
 390 0016 0193     		str	r3, [sp, #4]
 391              	.L23:
 392              	.LVL60:
 126:tinyprintf\API/printf.c **** 	char ch;
 127:tinyprintf\API/printf.c **** 	char* p=bf;
 393              		.loc 1 127 0 discriminator 4
 394 0018 2300     		movs	r3, r4
 128:tinyprintf\API/printf.c **** 	while (*p++ && n > 0)
 395              		.loc 1 128 0 discriminator 4
 396 001a 01E0     		b	.L24
 397              	.LVL61:
 398              	.L26:
 129:tinyprintf\API/printf.c **** 		n--;
 399              		.loc 1 129 0
 400 001c 013A     		subs	r2, r2, #1
 401              	.LVL62:
 128:tinyprintf\API/printf.c **** 	while (*p++ && n > 0)
 402              		.loc 1 128 0
 403 001e 0B00     		movs	r3, r1
 404              	.LVL63:
 405              	.L24:
 406 0020 591C     		adds	r1, r3, #1
 407              	.LVL64:
 408 0022 1B78     		ldrb	r3, [r3]
 409 0024 002B     		cmp	r3, #0
 410 0026 06D0     		beq	.L25
 128:tinyprintf\API/printf.c **** 	while (*p++ && n > 0)
 411              		.loc 1 128 0 is_stmt 0 discriminator 1
 412 0028 002A     		cmp	r2, #0
 413 002a F7DC     		bgt	.L26
 414 002c 03E0     		b	.L25
 415              	.LVL65:
 416              	.L27:
 130:tinyprintf\API/printf.c **** 	while (n-- > 0) 
 131:tinyprintf\API/printf.c **** 		putf(putp,fc);
 417              		.loc 1 131 0 is_stmt 1
 418 002e 0199     		ldr	r1, [sp, #4]
 419 0030 2800     		movs	r0, r5
 420 0032 B847     		blx	r7
 421              	.LVL66:
 130:tinyprintf\API/printf.c **** 	while (n-- > 0) 
 422              		.loc 1 130 0
 423 0034 3200     		movs	r2, r6
 424              	.LVL67:
 425              	.L25:
 426 0036 561E     		subs	r6, r2, #1
 427              	.LVL68:
 428 0038 002A     		cmp	r2, #0
 429 003a F8DC     		bgt	.L27
 430 003c 02E0     		b	.L28
 431              	.LVL69:
 432              	.L29:
ARM GAS  C:\Users\boise\AppData\Local\Temp\ccatBvcZ.s 			page 11


 132:tinyprintf\API/printf.c **** 	while ((ch= *bf++))
 133:tinyprintf\API/printf.c **** 		putf(putp,ch);
 433              		.loc 1 133 0
 434 003e 2800     		movs	r0, r5
 435 0040 B847     		blx	r7
 436              	.LVL70:
 132:tinyprintf\API/printf.c **** 	while ((ch= *bf++))
 437              		.loc 1 132 0
 438 0042 3400     		movs	r4, r6
 439              	.LVL71:
 440              	.L28:
 441 0044 661C     		adds	r6, r4, #1
 442              	.LVL72:
 443 0046 2178     		ldrb	r1, [r4]
 444              	.LVL73:
 445 0048 0029     		cmp	r1, #0
 446 004a F8D1     		bne	.L29
 134:tinyprintf\API/printf.c **** 	}
 447              		.loc 1 134 0
 448 004c 03B0     		add	sp, sp, #12
 449              		@ sp needed
 450              	.LVL74:
 451              	.LVL75:
 452              	.LVL76:
 453 004e F0BD     		pop	{r4, r5, r6, r7, pc}
 454              		.cfi_endproc
 455              	.LFE4:
 456              		.size	putchw, .-putchw
 457              		.section	.text.putcp,"ax",%progbits
 458              		.align	2
 459              		.code	16
 460              		.thumb_func
 461              		.type	putcp, %function
 462              	putcp:
 463              	.LFB8:
 135:tinyprintf\API/printf.c **** 
 136:tinyprintf\API/printf.c **** void tfp_format(void* putp,putcf putf,char *fmt, va_list va)
 137:tinyprintf\API/printf.c **** 	{
 138:tinyprintf\API/printf.c **** 	char bf[12];
 139:tinyprintf\API/printf.c ****     
 140:tinyprintf\API/printf.c **** 	char ch;
 141:tinyprintf\API/printf.c **** 
 142:tinyprintf\API/printf.c **** 
 143:tinyprintf\API/printf.c **** 	while ((ch=*(fmt++))) {
 144:tinyprintf\API/printf.c **** 		if (ch!='%') 
 145:tinyprintf\API/printf.c **** 			putf(putp,ch);
 146:tinyprintf\API/printf.c **** 		else {
 147:tinyprintf\API/printf.c **** 			char lz=0;
 148:tinyprintf\API/printf.c **** #ifdef 	PRINTF_LONG_SUPPORT
 149:tinyprintf\API/printf.c **** 			char lng=0;
 150:tinyprintf\API/printf.c **** #endif
 151:tinyprintf\API/printf.c **** 			int w=0;
 152:tinyprintf\API/printf.c **** 			ch=*(fmt++);
 153:tinyprintf\API/printf.c **** 			if (ch=='0') {
 154:tinyprintf\API/printf.c **** 				ch=*(fmt++);
 155:tinyprintf\API/printf.c **** 				lz=1;
 156:tinyprintf\API/printf.c **** 				}
ARM GAS  C:\Users\boise\AppData\Local\Temp\ccatBvcZ.s 			page 12


 157:tinyprintf\API/printf.c **** 			if (ch>='0' && ch<='9') {
 158:tinyprintf\API/printf.c **** 				ch=a2i(ch,&fmt,10,&w);
 159:tinyprintf\API/printf.c **** 				}
 160:tinyprintf\API/printf.c **** #ifdef 	PRINTF_LONG_SUPPORT
 161:tinyprintf\API/printf.c **** 			if (ch=='l') {
 162:tinyprintf\API/printf.c **** 				ch=*(fmt++);
 163:tinyprintf\API/printf.c **** 				lng=1;
 164:tinyprintf\API/printf.c **** 			}
 165:tinyprintf\API/printf.c **** #endif
 166:tinyprintf\API/printf.c **** 			switch (ch) {
 167:tinyprintf\API/printf.c **** 				case 0: 
 168:tinyprintf\API/printf.c **** 					goto abort;
 169:tinyprintf\API/printf.c **** 				case 'u' : {
 170:tinyprintf\API/printf.c **** #ifdef 	PRINTF_LONG_SUPPORT
 171:tinyprintf\API/printf.c **** 					if (lng)
 172:tinyprintf\API/printf.c **** 						uli2a(va_arg(va, unsigned long int),10,0,bf);
 173:tinyprintf\API/printf.c **** 					else
 174:tinyprintf\API/printf.c **** #endif
 175:tinyprintf\API/printf.c **** 					ui2a(va_arg(va, unsigned int),10,0,bf);
 176:tinyprintf\API/printf.c **** 					putchw(putp,putf,w,lz,bf);
 177:tinyprintf\API/printf.c **** 					break;
 178:tinyprintf\API/printf.c **** 					}
 179:tinyprintf\API/printf.c **** 				case 'd' :  {
 180:tinyprintf\API/printf.c **** #ifdef 	PRINTF_LONG_SUPPORT
 181:tinyprintf\API/printf.c **** 					if (lng)
 182:tinyprintf\API/printf.c **** 						li2a(va_arg(va, unsigned long int),bf);
 183:tinyprintf\API/printf.c **** 					else
 184:tinyprintf\API/printf.c **** #endif
 185:tinyprintf\API/printf.c **** 					i2a(va_arg(va, int),bf);
 186:tinyprintf\API/printf.c **** 					putchw(putp,putf,w,lz,bf);
 187:tinyprintf\API/printf.c **** 					break;
 188:tinyprintf\API/printf.c **** 					}
 189:tinyprintf\API/printf.c **** 				case 'x': case 'X' : 
 190:tinyprintf\API/printf.c **** #ifdef 	PRINTF_LONG_SUPPORT
 191:tinyprintf\API/printf.c **** 					if (lng)
 192:tinyprintf\API/printf.c **** 						uli2a(va_arg(va, unsigned long int),16,(ch=='X'),bf);
 193:tinyprintf\API/printf.c **** 					else
 194:tinyprintf\API/printf.c **** #endif
 195:tinyprintf\API/printf.c **** 					ui2a(va_arg(va, unsigned int),16,(ch=='X'),bf);
 196:tinyprintf\API/printf.c **** 					putchw(putp,putf,w,lz,bf);
 197:tinyprintf\API/printf.c **** 					break;
 198:tinyprintf\API/printf.c **** 				case 'c' : 
 199:tinyprintf\API/printf.c **** 					putf(putp,(char)(va_arg(va, int)));
 200:tinyprintf\API/printf.c **** 					break;
 201:tinyprintf\API/printf.c **** 				case 's' : 
 202:tinyprintf\API/printf.c **** 					putchw(putp,putf,w,0,va_arg(va, char*));
 203:tinyprintf\API/printf.c **** 					break;
 204:tinyprintf\API/printf.c **** 				case '%' :
 205:tinyprintf\API/printf.c **** 					putf(putp,ch);
 206:tinyprintf\API/printf.c **** 				default:
 207:tinyprintf\API/printf.c **** 					break;
 208:tinyprintf\API/printf.c **** 				}
 209:tinyprintf\API/printf.c **** 			}
 210:tinyprintf\API/printf.c **** 		}
 211:tinyprintf\API/printf.c **** 	abort:;
 212:tinyprintf\API/printf.c **** 	}
 213:tinyprintf\API/printf.c **** 
ARM GAS  C:\Users\boise\AppData\Local\Temp\ccatBvcZ.s 			page 13


 214:tinyprintf\API/printf.c **** 
 215:tinyprintf\API/printf.c **** void init_printf(void* putp,void (*putf) (void*,char))
 216:tinyprintf\API/printf.c **** 	{
 217:tinyprintf\API/printf.c **** 	stdout_putf=putf;
 218:tinyprintf\API/printf.c **** 	stdout_putp=putp;
 219:tinyprintf\API/printf.c **** 	}
 220:tinyprintf\API/printf.c **** 
 221:tinyprintf\API/printf.c **** void tfp_printf(char *fmt, ...)
 222:tinyprintf\API/printf.c **** 	{
 223:tinyprintf\API/printf.c **** 	va_list va;
 224:tinyprintf\API/printf.c **** 	va_start(va,fmt);
 225:tinyprintf\API/printf.c **** 	tfp_format(stdout_putp,stdout_putf,fmt,va);
 226:tinyprintf\API/printf.c **** 	va_end(va);
 227:tinyprintf\API/printf.c **** 	}
 228:tinyprintf\API/printf.c **** 
 229:tinyprintf\API/printf.c **** static void putcp(void* p,char c)
 230:tinyprintf\API/printf.c **** 	{
 464              		.loc 1 230 0
 465              		.cfi_startproc
 466              		@ args = 0, pretend = 0, frame = 0
 467              		@ frame_needed = 0, uses_anonymous_args = 0
 468              		@ link register save eliminated.
 469              	.LVL77:
 231:tinyprintf\API/printf.c **** 	*(*((char**)p))++ = c;
 470              		.loc 1 231 0
 471 0000 0368     		ldr	r3, [r0]
 472 0002 5A1C     		adds	r2, r3, #1
 473 0004 0260     		str	r2, [r0]
 474 0006 1970     		strb	r1, [r3]
 232:tinyprintf\API/printf.c **** 	}
 475              		.loc 1 232 0
 476              		@ sp needed
 477 0008 7047     		bx	lr
 478              		.cfi_endproc
 479              	.LFE8:
 480              		.size	putcp, .-putcp
 481 000a C046     		.section	.text.tfp_format,"ax",%progbits
 482              		.align	2
 483              		.global	tfp_format
 484              		.code	16
 485              		.thumb_func
 486              		.type	tfp_format, %function
 487              	tfp_format:
 488              	.LFB5:
 137:tinyprintf\API/printf.c **** 	char bf[12];
 489              		.loc 1 137 0
 490              		.cfi_startproc
 491              		@ args = 0, pretend = 0, frame = 24
 492              		@ frame_needed = 0, uses_anonymous_args = 0
 493              	.LVL78:
 494 0000 F0B5     		push	{r4, r5, r6, r7, lr}
 495              		.cfi_def_cfa_offset 20
 496              		.cfi_offset 4, -20
 497              		.cfi_offset 5, -16
 498              		.cfi_offset 6, -12
 499              		.cfi_offset 7, -8
 500              		.cfi_offset 14, -4
ARM GAS  C:\Users\boise\AppData\Local\Temp\ccatBvcZ.s 			page 14


 501 0002 4746     		mov	r7, r8
 502 0004 80B4     		push	{r7}
 503              		.cfi_def_cfa_offset 24
 504              		.cfi_offset 8, -24
 505 0006 88B0     		sub	sp, sp, #32
 506              		.cfi_def_cfa_offset 56
 507 0008 0400     		movs	r4, r0
 508 000a 0F00     		movs	r7, r1
 509 000c 0392     		str	r2, [sp, #12]
 510 000e 1D00     		movs	r5, r3
 143:tinyprintf\API/printf.c **** 		if (ch!='%') 
 511              		.loc 1 143 0
 512 0010 78E0     		b	.L33
 513              	.LVL79:
 514              	.L49:
 144:tinyprintf\API/printf.c **** 			putf(putp,ch);
 515              		.loc 1 144 0
 516 0012 2529     		cmp	r1, #37
 517 0014 02D0     		beq	.L34
 145:tinyprintf\API/printf.c **** 		else {
 518              		.loc 1 145 0
 519 0016 2000     		movs	r0, r4
 520 0018 B847     		blx	r7
 521              	.LVL80:
 522 001a 73E0     		b	.L33
 523              	.LVL81:
 524              	.L34:
 525              	.LBB3:
 151:tinyprintf\API/printf.c **** 			ch=*(fmt++);
 526              		.loc 1 151 0
 527 001c 0021     		movs	r1, #0
 528              	.LVL82:
 529 001e 0491     		str	r1, [sp, #16]
 530              	.LVL83:
 152:tinyprintf\API/printf.c **** 			if (ch=='0') {
 531              		.loc 1 152 0
 532 0020 511C     		adds	r1, r2, #1
 533 0022 0391     		str	r1, [sp, #12]
 534 0024 5878     		ldrb	r0, [r3, #1]
 535              	.LVL84:
 153:tinyprintf\API/printf.c **** 				ch=*(fmt++);
 536              		.loc 1 153 0
 537 0026 3028     		cmp	r0, #48
 538 0028 04D1     		bne	.L50
 154:tinyprintf\API/printf.c **** 				lz=1;
 539              		.loc 1 154 0
 540 002a 911C     		adds	r1, r2, #2
 541 002c 0391     		str	r1, [sp, #12]
 542 002e 5078     		ldrb	r0, [r2, #1]
 543              	.LVL85:
 155:tinyprintf\API/printf.c **** 				}
 544              		.loc 1 155 0
 545 0030 0126     		movs	r6, #1
 546 0032 00E0     		b	.L36
 547              	.LVL86:
 548              	.L50:
 147:tinyprintf\API/printf.c **** #ifdef 	PRINTF_LONG_SUPPORT
ARM GAS  C:\Users\boise\AppData\Local\Temp\ccatBvcZ.s 			page 15


 549              		.loc 1 147 0
 550 0034 0026     		movs	r6, #0
 551              	.LVL87:
 552              	.L36:
 157:tinyprintf\API/printf.c **** 				ch=a2i(ch,&fmt,10,&w);
 553              		.loc 1 157 0
 554 0036 0300     		movs	r3, r0
 555 0038 303B     		subs	r3, r3, #48
 556 003a DBB2     		uxtb	r3, r3
 557 003c 092B     		cmp	r3, #9
 558 003e 04D8     		bhi	.L37
 158:tinyprintf\API/printf.c **** 				}
 559              		.loc 1 158 0
 560 0040 04AB     		add	r3, sp, #16
 561 0042 0A22     		movs	r2, #10
 562 0044 03A9     		add	r1, sp, #12
 563 0046 FFF7FEFF 		bl	a2i
 564              	.LVL88:
 565              	.L37:
 166:tinyprintf\API/printf.c **** 				case 0: 
 566              		.loc 1 166 0
 567 004a 6328     		cmp	r0, #99
 568 004c 48D0     		beq	.L39
 569 004e 06D8     		bhi	.L40
 570 0050 2528     		cmp	r0, #37
 571 0052 54D0     		beq	.L41
 572 0054 5828     		cmp	r0, #88
 573 0056 2FD0     		beq	.L42
 574 0058 0028     		cmp	r0, #0
 575 005a 5AD0     		beq	.L32
 576 005c 52E0     		b	.L33
 577              	.L40:
 578 005e 7328     		cmp	r0, #115
 579 0060 43D0     		beq	.L44
 580 0062 02D8     		bhi	.L45
 581 0064 6428     		cmp	r0, #100
 582 0066 17D0     		beq	.L46
 583 0068 4CE0     		b	.L33
 584              	.L45:
 585 006a 7528     		cmp	r0, #117
 586 006c 02D0     		beq	.L47
 587 006e 7828     		cmp	r0, #120
 588 0070 22D0     		beq	.L42
 589 0072 47E0     		b	.L33
 590              	.L47:
 175:tinyprintf\API/printf.c **** 					putchw(putp,putf,w,lz,bf);
 591              		.loc 1 175 0
 592 0074 05AA     		add	r2, sp, #20
 593 0076 9046     		mov	r8, r2
 594 0078 2868     		ldr	r0, [r5]
 595              	.LVL89:
 596 007a 0435     		adds	r5, r5, #4
 597              	.LVL90:
 598 007c 1300     		movs	r3, r2
 599 007e 0022     		movs	r2, #0
 600 0080 0A21     		movs	r1, #10
 601 0082 FFF7FEFF 		bl	ui2a
ARM GAS  C:\Users\boise\AppData\Local\Temp\ccatBvcZ.s 			page 16


 602              	.LVL91:
 176:tinyprintf\API/printf.c **** 					break;
 603              		.loc 1 176 0
 604 0086 4346     		mov	r3, r8
 605 0088 0093     		str	r3, [sp]
 606 008a 3300     		movs	r3, r6
 607 008c 049A     		ldr	r2, [sp, #16]
 608 008e 3900     		movs	r1, r7
 609 0090 2000     		movs	r0, r4
 610 0092 FFF7FEFF 		bl	putchw
 611              	.LVL92:
 177:tinyprintf\API/printf.c **** 					}
 612              		.loc 1 177 0
 613 0096 35E0     		b	.L33
 614              	.LVL93:
 615              	.L46:
 185:tinyprintf\API/printf.c **** 					putchw(putp,putf,w,lz,bf);
 616              		.loc 1 185 0
 617 0098 05AA     		add	r2, sp, #20
 618 009a 9046     		mov	r8, r2
 619 009c 2868     		ldr	r0, [r5]
 620              	.LVL94:
 621 009e 0435     		adds	r5, r5, #4
 622              	.LVL95:
 623 00a0 1100     		movs	r1, r2
 624 00a2 FFF7FEFF 		bl	i2a
 625              	.LVL96:
 186:tinyprintf\API/printf.c **** 					break;
 626              		.loc 1 186 0
 627 00a6 4346     		mov	r3, r8
 628 00a8 0093     		str	r3, [sp]
 629 00aa 3300     		movs	r3, r6
 630 00ac 049A     		ldr	r2, [sp, #16]
 631 00ae 3900     		movs	r1, r7
 632 00b0 2000     		movs	r0, r4
 633 00b2 FFF7FEFF 		bl	putchw
 634              	.LVL97:
 187:tinyprintf\API/printf.c **** 					}
 635              		.loc 1 187 0
 636 00b6 25E0     		b	.L33
 637              	.LVL98:
 638              	.L42:
 195:tinyprintf\API/printf.c **** 					putchw(putp,putf,w,lz,bf);
 639              		.loc 1 195 0
 640 00b8 05AA     		add	r2, sp, #20
 641 00ba 9046     		mov	r8, r2
 642 00bc 5838     		subs	r0, r0, #88
 643              	.LVL99:
 644 00be 4242     		rsbs	r2, r0, #0
 645 00c0 4241     		adcs	r2, r2, r0
 646 00c2 2868     		ldr	r0, [r5]
 647              	.LVL100:
 648 00c4 0435     		adds	r5, r5, #4
 649              	.LVL101:
 650 00c6 4346     		mov	r3, r8
 651 00c8 1021     		movs	r1, #16
 652 00ca FFF7FEFF 		bl	ui2a
ARM GAS  C:\Users\boise\AppData\Local\Temp\ccatBvcZ.s 			page 17


 653              	.LVL102:
 196:tinyprintf\API/printf.c **** 					break;
 654              		.loc 1 196 0
 655 00ce 4346     		mov	r3, r8
 656 00d0 0093     		str	r3, [sp]
 657 00d2 3300     		movs	r3, r6
 658 00d4 049A     		ldr	r2, [sp, #16]
 659 00d6 3900     		movs	r1, r7
 660 00d8 2000     		movs	r0, r4
 661 00da FFF7FEFF 		bl	putchw
 662              	.LVL103:
 197:tinyprintf\API/printf.c **** 				case 'c' : 
 663              		.loc 1 197 0
 664 00de 11E0     		b	.L33
 665              	.LVL104:
 666              	.L39:
 199:tinyprintf\API/printf.c **** 					break;
 667              		.loc 1 199 0
 668 00e0 2978     		ldrb	r1, [r5]
 669              	.LVL105:
 670 00e2 0435     		adds	r5, r5, #4
 671              	.LVL106:
 672 00e4 2000     		movs	r0, r4
 673              	.LVL107:
 674 00e6 B847     		blx	r7
 675              	.LVL108:
 200:tinyprintf\API/printf.c **** 				case 's' : 
 676              		.loc 1 200 0
 677 00e8 0CE0     		b	.L33
 678              	.LVL109:
 679              	.L44:
 202:tinyprintf\API/printf.c **** 					break;
 680              		.loc 1 202 0
 681 00ea 2B68     		ldr	r3, [r5]
 682 00ec 0093     		str	r3, [sp]
 683              	.LVL110:
 684 00ee 0435     		adds	r5, r5, #4
 685              	.LVL111:
 686 00f0 0023     		movs	r3, #0
 687 00f2 049A     		ldr	r2, [sp, #16]
 688 00f4 3900     		movs	r1, r7
 689 00f6 2000     		movs	r0, r4
 690              	.LVL112:
 691 00f8 FFF7FEFF 		bl	putchw
 692              	.LVL113:
 203:tinyprintf\API/printf.c **** 				case '%' :
 693              		.loc 1 203 0
 694 00fc 02E0     		b	.L33
 695              	.LVL114:
 696              	.L41:
 205:tinyprintf\API/printf.c **** 				default:
 697              		.loc 1 205 0
 698 00fe 0100     		movs	r1, r0
 699 0100 2000     		movs	r0, r4
 700              	.LVL115:
 701 0102 B847     		blx	r7
 702              	.LVL116:
ARM GAS  C:\Users\boise\AppData\Local\Temp\ccatBvcZ.s 			page 18


 703              	.L33:
 704              	.LBE3:
 143:tinyprintf\API/printf.c **** 		if (ch!='%') 
 705              		.loc 1 143 0
 706 0104 039B     		ldr	r3, [sp, #12]
 707              	.LVL117:
 708 0106 5A1C     		adds	r2, r3, #1
 709 0108 0392     		str	r2, [sp, #12]
 710 010a 1978     		ldrb	r1, [r3]
 711              	.LVL118:
 712 010c 0029     		cmp	r1, #0
 713 010e 00D0     		beq	.LCB767
 714 0110 7FE7     		b	.L49	@long jump
 715              	.LCB767:
 716              	.L48:
 717              	.LVL119:
 718              	.L32:
 212:tinyprintf\API/printf.c **** 
 719              		.loc 1 212 0
 720 0112 08B0     		add	sp, sp, #32
 721              		@ sp needed
 722              	.LVL120:
 723              	.LVL121:
 724 0114 04BC     		pop	{r2}
 725 0116 9046     		mov	r8, r2
 726 0118 F0BD     		pop	{r4, r5, r6, r7, pc}
 727              		.cfi_endproc
 728              	.LFE5:
 729              		.size	tfp_format, .-tfp_format
 730 011a C046     		.section	.text.init_printf,"ax",%progbits
 731              		.align	2
 732              		.global	init_printf
 733              		.code	16
 734              		.thumb_func
 735              		.type	init_printf, %function
 736              	init_printf:
 737              	.LFB6:
 216:tinyprintf\API/printf.c **** 	stdout_putf=putf;
 738              		.loc 1 216 0
 739              		.cfi_startproc
 740              		@ args = 0, pretend = 0, frame = 0
 741              		@ frame_needed = 0, uses_anonymous_args = 0
 742              		@ link register save eliminated.
 743              	.LVL122:
 217:tinyprintf\API/printf.c **** 	stdout_putp=putp;
 744              		.loc 1 217 0
 745 0000 014B     		ldr	r3, .L52
 746 0002 1960     		str	r1, [r3]
 218:tinyprintf\API/printf.c **** 	}
 747              		.loc 1 218 0
 748 0004 5860     		str	r0, [r3, #4]
 219:tinyprintf\API/printf.c **** 
 749              		.loc 1 219 0
 750              		@ sp needed
 751 0006 7047     		bx	lr
 752              	.L53:
 753              		.align	2
ARM GAS  C:\Users\boise\AppData\Local\Temp\ccatBvcZ.s 			page 19


 754              	.L52:
 755 0008 00000000 		.word	.LANCHOR0
 756              		.cfi_endproc
 757              	.LFE6:
 758              		.size	init_printf, .-init_printf
 759              		.section	.text.tfp_printf,"ax",%progbits
 760              		.align	2
 761              		.global	tfp_printf
 762              		.code	16
 763              		.thumb_func
 764              		.type	tfp_printf, %function
 765              	tfp_printf:
 766              	.LFB7:
 222:tinyprintf\API/printf.c **** 	va_list va;
 767              		.loc 1 222 0
 768              		.cfi_startproc
 769              		@ args = 4, pretend = 16, frame = 8
 770              		@ frame_needed = 0, uses_anonymous_args = 1
 771              	.LVL123:
 772 0000 0FB4     		push	{r0, r1, r2, r3}
 773              		.cfi_def_cfa_offset 16
 774 0002 00B5     		push	{lr}
 775              		.cfi_def_cfa_offset 20
 776              		.cfi_offset 14, -20
 777 0004 83B0     		sub	sp, sp, #12
 778              		.cfi_def_cfa_offset 32
 779 0006 04AB     		add	r3, sp, #16
 780 0008 04CB     		ldmia	r3!, {r2}
 224:tinyprintf\API/printf.c **** 	tfp_format(stdout_putp,stdout_putf,fmt,va);
 781              		.loc 1 224 0
 782 000a 0193     		str	r3, [sp, #4]
 225:tinyprintf\API/printf.c **** 	va_end(va);
 783              		.loc 1 225 0
 784 000c 0448     		ldr	r0, .L55
 785 000e 0168     		ldr	r1, [r0]
 786 0010 4068     		ldr	r0, [r0, #4]
 787 0012 FFF7FEFF 		bl	tfp_format
 788              	.LVL124:
 227:tinyprintf\API/printf.c **** 
 789              		.loc 1 227 0
 790 0016 03B0     		add	sp, sp, #12
 791              		@ sp needed
 792 0018 08BC     		pop	{r3}
 793 001a 04B0     		add	sp, sp, #16
 794 001c 1847     		bx	r3
 795              	.L56:
 796 001e C046     		.align	2
 797              	.L55:
 798 0020 00000000 		.word	.LANCHOR0
 799              		.cfi_endproc
 800              	.LFE7:
 801              		.size	tfp_printf, .-tfp_printf
 802              		.section	.text.tfp_sprintf,"ax",%progbits
 803              		.align	2
 804              		.global	tfp_sprintf
 805              		.code	16
 806              		.thumb_func
ARM GAS  C:\Users\boise\AppData\Local\Temp\ccatBvcZ.s 			page 20


 807              		.type	tfp_sprintf, %function
 808              	tfp_sprintf:
 809              	.LFB9:
 233:tinyprintf\API/printf.c **** 
 234:tinyprintf\API/printf.c **** 
 235:tinyprintf\API/printf.c **** 
 236:tinyprintf\API/printf.c **** void tfp_sprintf(char* s,char *fmt, ...)
 237:tinyprintf\API/printf.c **** 	{
 810              		.loc 1 237 0
 811              		.cfi_startproc
 812              		@ args = 4, pretend = 12, frame = 16
 813              		@ frame_needed = 0, uses_anonymous_args = 1
 814              	.LVL125:
 815 0000 0EB4     		push	{r1, r2, r3}
 816              		.cfi_def_cfa_offset 12
 817 0002 00B5     		push	{lr}
 818              		.cfi_def_cfa_offset 16
 819              		.cfi_offset 14, -16
 820 0004 84B0     		sub	sp, sp, #16
 821              		.cfi_def_cfa_offset 32
 822 0006 0190     		str	r0, [sp, #4]
 823 0008 05AB     		add	r3, sp, #20
 824 000a 04CB     		ldmia	r3!, {r2}
 238:tinyprintf\API/printf.c **** 	va_list va;
 239:tinyprintf\API/printf.c **** 	va_start(va,fmt);
 825              		.loc 1 239 0
 826 000c 0393     		str	r3, [sp, #12]
 240:tinyprintf\API/printf.c **** 	tfp_format(&s,putcp,fmt,va);
 827              		.loc 1 240 0
 828 000e 0649     		ldr	r1, .L58
 829 0010 01A8     		add	r0, sp, #4
 830              	.LVL126:
 831 0012 FFF7FEFF 		bl	tfp_format
 832              	.LVL127:
 241:tinyprintf\API/printf.c **** 	putcp(&s,0);
 833              		.loc 1 241 0
 834 0016 0021     		movs	r1, #0
 835 0018 01A8     		add	r0, sp, #4
 836              	.LVL128:
 837 001a FFF7FEFF 		bl	putcp
 838              	.LVL129:
 242:tinyprintf\API/printf.c **** 	va_end(va);
 243:tinyprintf\API/printf.c **** 	}
 839              		.loc 1 243 0
 840 001e 04B0     		add	sp, sp, #16
 841              		@ sp needed
 842 0020 08BC     		pop	{r3}
 843 0022 03B0     		add	sp, sp, #12
 844 0024 1847     		bx	r3
 845              	.L59:
 846 0026 C046     		.align	2
 847              	.L58:
 848 0028 00000000 		.word	putcp
 849              		.cfi_endproc
 850              	.LFE9:
 851              		.size	tfp_sprintf, .-tfp_sprintf
 852              		.bss
ARM GAS  C:\Users\boise\AppData\Local\Temp\ccatBvcZ.s 			page 21


 853              		.align	2
 854              		.set	.LANCHOR0,. + 0
 855              		.type	stdout_putf, %object
 856              		.size	stdout_putf, 4
 857              	stdout_putf:
 858 0000 00000000 		.space	4
 859              		.type	stdout_putp, %object
 860              		.size	stdout_putp, 4
 861              	stdout_putp:
 862 0004 00000000 		.space	4
 863              		.text
 864              	.Letext0:
 865              		.file 2 "c:\\program files (x86)\\cypress\\psoc creator\\4.4\\psoc creator\\import\\gnu\\arm\\5.4.
 866              		.file 3 "<built-in>"