ARM GAS  C:\Users\boise\AppData\Local\Temp\ccDu5XGS.s 			page 1


   1              		.syntax unified
   2              		.cpu cortex-m0
   3              		.fpu softvfp
   4              		.eabi_attribute 20, 1
   5              		.eabi_attribute 21, 1
   6              		.eabi_attribute 23, 3
   7              		.eabi_attribute 24, 1
   8              		.eabi_attribute 25, 1
   9              		.eabi_attribute 26, 1
  10              		.eabi_attribute 30, 1
  11              		.eabi_attribute 34, 0
  12              		.eabi_attribute 18, 4
  13              		.thumb
  14              		.syntax unified
  15              		.file	"ssd1306.c"
  16              		.text
  17              	.Ltext0:
  18              		.cfi_sections	.debug_frame
  19              		.section	.text.display_setPixel,"ax",%progbits
  20              		.align	2
  21              		.code	16
  22              		.thumb_func
  23              		.type	display_setPixel, %function
  24              	display_setPixel:
  25              	.LFB34:
  26              		.file 1 "..\\..\\Cypress-PSOC-OLED-master\\Cypress-PSOC-OLED-master\\OLED.cydsn\\ssd1306.c"
   1:..\..\Cypress-PSOC-OLED-master\Cypress-PSOC-OLED-master\OLED.cydsn/ssd1306.c **** /*
   2:..\..\Cypress-PSOC-OLED-master\Cypress-PSOC-OLED-master\OLED.cydsn/ssd1306.c **** 
   3:..\..\Cypress-PSOC-OLED-master\Cypress-PSOC-OLED-master\OLED.cydsn/ssd1306.c **** SSD1306 OLED - I2C driver
   4:..\..\Cypress-PSOC-OLED-master\Cypress-PSOC-OLED-master\OLED.cydsn/ssd1306.c **** 
   5:..\..\Cypress-PSOC-OLED-master\Cypress-PSOC-OLED-master\OLED.cydsn/ssd1306.c **** Derk Steggewentz, 3/2015 
   6:..\..\Cypress-PSOC-OLED-master\Cypress-PSOC-OLED-master\OLED.cydsn/ssd1306.c **** 
   7:..\..\Cypress-PSOC-OLED-master\Cypress-PSOC-OLED-master\OLED.cydsn/ssd1306.c **** This is a I2C driver for SSD1306 OLED displays including graphics library.
   8:..\..\Cypress-PSOC-OLED-master\Cypress-PSOC-OLED-master\OLED.cydsn/ssd1306.c **** 
   9:..\..\Cypress-PSOC-OLED-master\Cypress-PSOC-OLED-master\OLED.cydsn/ssd1306.c **** 
  10:..\..\Cypress-PSOC-OLED-master\Cypress-PSOC-OLED-master\OLED.cydsn/ssd1306.c **** The graphics library part (gfx_ functions) is based on the Adafruit graphics library.
  11:..\..\Cypress-PSOC-OLED-master\Cypress-PSOC-OLED-master\OLED.cydsn/ssd1306.c **** 
  12:..\..\Cypress-PSOC-OLED-master\Cypress-PSOC-OLED-master\OLED.cydsn/ssd1306.c **** 
  13:..\..\Cypress-PSOC-OLED-master\Cypress-PSOC-OLED-master\OLED.cydsn/ssd1306.c **** No license restrictions on my part, do whatever you want as long as you follow the inherited
  14:..\..\Cypress-PSOC-OLED-master\Cypress-PSOC-OLED-master\OLED.cydsn/ssd1306.c **** license requirements (applying to the Adafruit graphics library part).
  15:..\..\Cypress-PSOC-OLED-master\Cypress-PSOC-OLED-master\OLED.cydsn/ssd1306.c **** 
  16:..\..\Cypress-PSOC-OLED-master\Cypress-PSOC-OLED-master\OLED.cydsn/ssd1306.c **** 
  17:..\..\Cypress-PSOC-OLED-master\Cypress-PSOC-OLED-master\OLED.cydsn/ssd1306.c **** ===== derived license (for graphics library) ======
  18:..\..\Cypress-PSOC-OLED-master\Cypress-PSOC-OLED-master\OLED.cydsn/ssd1306.c **** 
  19:..\..\Cypress-PSOC-OLED-master\Cypress-PSOC-OLED-master\OLED.cydsn/ssd1306.c **** Copyright (c) 2013 Adafruit Industries. All rights reserved.
  20:..\..\Cypress-PSOC-OLED-master\Cypress-PSOC-OLED-master\OLED.cydsn/ssd1306.c **** 
  21:..\..\Cypress-PSOC-OLED-master\Cypress-PSOC-OLED-master\OLED.cydsn/ssd1306.c **** Redistribution and use in source and binary forms, with or without
  22:..\..\Cypress-PSOC-OLED-master\Cypress-PSOC-OLED-master\OLED.cydsn/ssd1306.c **** modification, are permitted provided that the following conditions are met:
  23:..\..\Cypress-PSOC-OLED-master\Cypress-PSOC-OLED-master\OLED.cydsn/ssd1306.c **** - Redistributions of source code must retain the above copyright notice,
  24:..\..\Cypress-PSOC-OLED-master\Cypress-PSOC-OLED-master\OLED.cydsn/ssd1306.c **** this list of conditions and the following disclaimer.
  25:..\..\Cypress-PSOC-OLED-master\Cypress-PSOC-OLED-master\OLED.cydsn/ssd1306.c **** - Redistributions in binary form must reproduce the above copyright notice,
  26:..\..\Cypress-PSOC-OLED-master\Cypress-PSOC-OLED-master\OLED.cydsn/ssd1306.c **** this list of conditions and the following disclaimer in the documentation
  27:..\..\Cypress-PSOC-OLED-master\Cypress-PSOC-OLED-master\OLED.cydsn/ssd1306.c **** and/or other materials provided with the distribution.
  28:..\..\Cypress-PSOC-OLED-master\Cypress-PSOC-OLED-master\OLED.cydsn/ssd1306.c **** THIS SOFTWARE IS PROVIDED BY THE COPYRIGHT HOLDERS AND CONTRIBUTORS "AS IS"
  29:..\..\Cypress-PSOC-OLED-master\Cypress-PSOC-OLED-master\OLED.cydsn/ssd1306.c **** AND ANY EXPRESS OR IMPLIED WARRANTIES, INCLUDING, BUT NOT LIMITED TO, THE
  30:..\..\Cypress-PSOC-OLED-master\Cypress-PSOC-OLED-master\OLED.cydsn/ssd1306.c **** IMPLIED WARRANTIES OF MERCHANTABILITY AND FITNESS FOR A PARTICULAR PURPOSE
  31:..\..\Cypress-PSOC-OLED-master\Cypress-PSOC-OLED-master\OLED.cydsn/ssd1306.c **** ARE DISCLAIMED. IN NO EVENT SHALL THE COPYRIGHT HOLDER OR CONTRIBUTORS BE
ARM GAS  C:\Users\boise\AppData\Local\Temp\ccDu5XGS.s 			page 2


  32:..\..\Cypress-PSOC-OLED-master\Cypress-PSOC-OLED-master\OLED.cydsn/ssd1306.c **** LIABLE FOR ANY DIRECT, INDIRECT, INCIDENTAL, SPECIAL, EXEMPLARY, OR
  33:..\..\Cypress-PSOC-OLED-master\Cypress-PSOC-OLED-master\OLED.cydsn/ssd1306.c **** CONSEQUENTIAL DAMAGES (INCLUDING, BUT NOT LIMITED TO, PROCUREMENT OF
  34:..\..\Cypress-PSOC-OLED-master\Cypress-PSOC-OLED-master\OLED.cydsn/ssd1306.c **** SUBSTITUTE GOODS OR SERVICES; LOSS OF USE, DATA, OR PROFITS; OR BUSINESS
  35:..\..\Cypress-PSOC-OLED-master\Cypress-PSOC-OLED-master\OLED.cydsn/ssd1306.c **** INTERRUPTION) HOWEVER CAUSED AND ON ANY THEORY OF LIABILITY, WHETHER IN
  36:..\..\Cypress-PSOC-OLED-master\Cypress-PSOC-OLED-master\OLED.cydsn/ssd1306.c **** CONTRACT, STRICT LIABILITY, OR TORT (INCLUDING NEGLIGENCE OR OTHERWISE)
  37:..\..\Cypress-PSOC-OLED-master\Cypress-PSOC-OLED-master\OLED.cydsn/ssd1306.c **** ARISING IN ANY WAY OUT OF THE USE OF THIS SOFTWARE, EVEN IF ADVISED OF THE
  38:..\..\Cypress-PSOC-OLED-master\Cypress-PSOC-OLED-master\OLED.cydsn/ssd1306.c **** POSSIBILITY OF SUCH DAMAGE.
  39:..\..\Cypress-PSOC-OLED-master\Cypress-PSOC-OLED-master\OLED.cydsn/ssd1306.c **** 
  40:..\..\Cypress-PSOC-OLED-master\Cypress-PSOC-OLED-master\OLED.cydsn/ssd1306.c **** */
  41:..\..\Cypress-PSOC-OLED-master\Cypress-PSOC-OLED-master\OLED.cydsn/ssd1306.c **** 
  42:..\..\Cypress-PSOC-OLED-master\Cypress-PSOC-OLED-master\OLED.cydsn/ssd1306.c **** 
  43:..\..\Cypress-PSOC-OLED-master\Cypress-PSOC-OLED-master\OLED.cydsn/ssd1306.c **** #include <project.h>
  44:..\..\Cypress-PSOC-OLED-master\Cypress-PSOC-OLED-master\OLED.cydsn/ssd1306.c **** #include <stdlib.h>
  45:..\..\Cypress-PSOC-OLED-master\Cypress-PSOC-OLED-master\OLED.cydsn/ssd1306.c **** 
  46:..\..\Cypress-PSOC-OLED-master\Cypress-PSOC-OLED-master\OLED.cydsn/ssd1306.c **** #include "font.h"
  47:..\..\Cypress-PSOC-OLED-master\Cypress-PSOC-OLED-master\OLED.cydsn/ssd1306.c **** #include "ssd1306.h"
  48:..\..\Cypress-PSOC-OLED-master\Cypress-PSOC-OLED-master\OLED.cydsn/ssd1306.c **** 
  49:..\..\Cypress-PSOC-OLED-master\Cypress-PSOC-OLED-master\OLED.cydsn/ssd1306.c **** 
  50:..\..\Cypress-PSOC-OLED-master\Cypress-PSOC-OLED-master\OLED.cydsn/ssd1306.c **** #define DISPLAYWIDTH 128
  51:..\..\Cypress-PSOC-OLED-master\Cypress-PSOC-OLED-master\OLED.cydsn/ssd1306.c **** #define DISPLAYHEIGHT 64
  52:..\..\Cypress-PSOC-OLED-master\Cypress-PSOC-OLED-master\OLED.cydsn/ssd1306.c ****     
  53:..\..\Cypress-PSOC-OLED-master\Cypress-PSOC-OLED-master\OLED.cydsn/ssd1306.c **** #define SSD1306_SETCONTRAST 0x81
  54:..\..\Cypress-PSOC-OLED-master\Cypress-PSOC-OLED-master\OLED.cydsn/ssd1306.c **** #define SSD1306_DISPLAYALLON_RESUME 0xA4
  55:..\..\Cypress-PSOC-OLED-master\Cypress-PSOC-OLED-master\OLED.cydsn/ssd1306.c **** #define SSD1306_DISPLAYALLON 0xA5
  56:..\..\Cypress-PSOC-OLED-master\Cypress-PSOC-OLED-master\OLED.cydsn/ssd1306.c **** #define SSD1306_NORMALDISPLAY 0xA6
  57:..\..\Cypress-PSOC-OLED-master\Cypress-PSOC-OLED-master\OLED.cydsn/ssd1306.c **** #define SSD1306_INVERTDISPLAY 0xA7
  58:..\..\Cypress-PSOC-OLED-master\Cypress-PSOC-OLED-master\OLED.cydsn/ssd1306.c **** #define SSD1306_DISPLAYOFF 0xAE
  59:..\..\Cypress-PSOC-OLED-master\Cypress-PSOC-OLED-master\OLED.cydsn/ssd1306.c **** #define SSD1306_DISPLAYON 0xAF
  60:..\..\Cypress-PSOC-OLED-master\Cypress-PSOC-OLED-master\OLED.cydsn/ssd1306.c **** #define SSD1306_SETDISPLAYOFFSET 0xD3
  61:..\..\Cypress-PSOC-OLED-master\Cypress-PSOC-OLED-master\OLED.cydsn/ssd1306.c **** #define SSD1306_SETCOMPINS 0xDA
  62:..\..\Cypress-PSOC-OLED-master\Cypress-PSOC-OLED-master\OLED.cydsn/ssd1306.c **** #define SSD1306_SETVCOMDETECT 0xDB
  63:..\..\Cypress-PSOC-OLED-master\Cypress-PSOC-OLED-master\OLED.cydsn/ssd1306.c **** #define SSD1306_SETDISPLAYCLOCKDIV 0xD5
  64:..\..\Cypress-PSOC-OLED-master\Cypress-PSOC-OLED-master\OLED.cydsn/ssd1306.c **** #define SSD1306_SETPRECHARGE 0xD9
  65:..\..\Cypress-PSOC-OLED-master\Cypress-PSOC-OLED-master\OLED.cydsn/ssd1306.c **** #define SSD1306_SETMULTIPLEX 0xA8
  66:..\..\Cypress-PSOC-OLED-master\Cypress-PSOC-OLED-master\OLED.cydsn/ssd1306.c **** #define SSD1306_SETLOWCOLUMN 0x00
  67:..\..\Cypress-PSOC-OLED-master\Cypress-PSOC-OLED-master\OLED.cydsn/ssd1306.c **** #define SSD1306_SETHIGHCOLUMN 0x10
  68:..\..\Cypress-PSOC-OLED-master\Cypress-PSOC-OLED-master\OLED.cydsn/ssd1306.c **** #define SSD1306_SETSTARTLINE 0x40
  69:..\..\Cypress-PSOC-OLED-master\Cypress-PSOC-OLED-master\OLED.cydsn/ssd1306.c **** #define SSD1306_MEMORYMODE 0x20
  70:..\..\Cypress-PSOC-OLED-master\Cypress-PSOC-OLED-master\OLED.cydsn/ssd1306.c **** #define SSD1306_COLUMNADDR 0x21
  71:..\..\Cypress-PSOC-OLED-master\Cypress-PSOC-OLED-master\OLED.cydsn/ssd1306.c **** #define SSD1306_PAGEADDR 0x22
  72:..\..\Cypress-PSOC-OLED-master\Cypress-PSOC-OLED-master\OLED.cydsn/ssd1306.c **** #define SSD1306_COMSCANINC 0xC0
  73:..\..\Cypress-PSOC-OLED-master\Cypress-PSOC-OLED-master\OLED.cydsn/ssd1306.c **** #define SSD1306_COMSCANDEC 0xC8
  74:..\..\Cypress-PSOC-OLED-master\Cypress-PSOC-OLED-master\OLED.cydsn/ssd1306.c **** #define SSD1306_SEGREMAP 0xA0
  75:..\..\Cypress-PSOC-OLED-master\Cypress-PSOC-OLED-master\OLED.cydsn/ssd1306.c **** #define SSD1306_CHARGEPUMP 0x8D
  76:..\..\Cypress-PSOC-OLED-master\Cypress-PSOC-OLED-master\OLED.cydsn/ssd1306.c **** #define SSD1306_EXTERNALVCC 0x1
  77:..\..\Cypress-PSOC-OLED-master\Cypress-PSOC-OLED-master\OLED.cydsn/ssd1306.c **** #define SSD1306_SWITCHCAPVCC 0x2
  78:..\..\Cypress-PSOC-OLED-master\Cypress-PSOC-OLED-master\OLED.cydsn/ssd1306.c **** #define SSD1306_ACTIVATE_SCROLL 0x2F
  79:..\..\Cypress-PSOC-OLED-master\Cypress-PSOC-OLED-master\OLED.cydsn/ssd1306.c **** #define SSD1306_DEACTIVATE_SCROLL 0x2E
  80:..\..\Cypress-PSOC-OLED-master\Cypress-PSOC-OLED-master\OLED.cydsn/ssd1306.c **** 
  81:..\..\Cypress-PSOC-OLED-master\Cypress-PSOC-OLED-master\OLED.cydsn/ssd1306.c **** 
  82:..\..\Cypress-PSOC-OLED-master\Cypress-PSOC-OLED-master\OLED.cydsn/ssd1306.c **** // I2C result status
  83:..\..\Cypress-PSOC-OLED-master\Cypress-PSOC-OLED-master\OLED.cydsn/ssd1306.c **** #define TRANSFER_CMPLT    (0x00u)
  84:..\..\Cypress-PSOC-OLED-master\Cypress-PSOC-OLED-master\OLED.cydsn/ssd1306.c **** #define TRANSFER_ERROR    (0xFFu)
  85:..\..\Cypress-PSOC-OLED-master\Cypress-PSOC-OLED-master\OLED.cydsn/ssd1306.c **** 
  86:..\..\Cypress-PSOC-OLED-master\Cypress-PSOC-OLED-master\OLED.cydsn/ssd1306.c **** 
  87:..\..\Cypress-PSOC-OLED-master\Cypress-PSOC-OLED-master\OLED.cydsn/ssd1306.c **** static uint32 display_write_buf( uint8* buf, uint16_t size );
  88:..\..\Cypress-PSOC-OLED-master\Cypress-PSOC-OLED-master\OLED.cydsn/ssd1306.c **** 
ARM GAS  C:\Users\boise\AppData\Local\Temp\ccDu5XGS.s 			page 3


  89:..\..\Cypress-PSOC-OLED-master\Cypress-PSOC-OLED-master\OLED.cydsn/ssd1306.c **** void gfx_init( int16_t width, int16_t height );
  90:..\..\Cypress-PSOC-OLED-master\Cypress-PSOC-OLED-master\OLED.cydsn/ssd1306.c **** 
  91:..\..\Cypress-PSOC-OLED-master\Cypress-PSOC-OLED-master\OLED.cydsn/ssd1306.c **** static uint8 _i2caddr;
  92:..\..\Cypress-PSOC-OLED-master\Cypress-PSOC-OLED-master\OLED.cydsn/ssd1306.c **** 
  93:..\..\Cypress-PSOC-OLED-master\Cypress-PSOC-OLED-master\OLED.cydsn/ssd1306.c **** // display memory buffer ( === MUST INCLUDE === the preceding I2C 0x40 control byte for the display
  94:..\..\Cypress-PSOC-OLED-master\Cypress-PSOC-OLED-master\OLED.cydsn/ssd1306.c **** static uint8_t SSD1306_buffer[DISPLAYHEIGHT * DISPLAYWIDTH / 8 + 1] = { 0x40 };
  95:..\..\Cypress-PSOC-OLED-master\Cypress-PSOC-OLED-master\OLED.cydsn/ssd1306.c **** // pointer to actual display memory buffer
  96:..\..\Cypress-PSOC-OLED-master\Cypress-PSOC-OLED-master\OLED.cydsn/ssd1306.c **** static uint8_t* _displaybuf = SSD1306_buffer+1;
  97:..\..\Cypress-PSOC-OLED-master\Cypress-PSOC-OLED-master\OLED.cydsn/ssd1306.c **** static uint16_t _displaybuf_size = sizeof(SSD1306_buffer) - 1;
  98:..\..\Cypress-PSOC-OLED-master\Cypress-PSOC-OLED-master\OLED.cydsn/ssd1306.c **** 
  99:..\..\Cypress-PSOC-OLED-master\Cypress-PSOC-OLED-master\OLED.cydsn/ssd1306.c **** // see data sheet page 25 for Graphic Display Data RAM organization
 100:..\..\Cypress-PSOC-OLED-master\Cypress-PSOC-OLED-master\OLED.cydsn/ssd1306.c **** // 8 pages, each page a row of DISPLAYWIDTH bytes
 101:..\..\Cypress-PSOC-OLED-master\Cypress-PSOC-OLED-master\OLED.cydsn/ssd1306.c **** // start address of of row: y/8*DISPLAYWIDTH
 102:..\..\Cypress-PSOC-OLED-master\Cypress-PSOC-OLED-master\OLED.cydsn/ssd1306.c **** // x pos in row: == x 
 103:..\..\Cypress-PSOC-OLED-master\Cypress-PSOC-OLED-master\OLED.cydsn/ssd1306.c **** #define GDDRAM_ADDRESS(X,Y) ((_displaybuf)+((Y)/8)*(DISPLAYWIDTH)+(X))
 104:..\..\Cypress-PSOC-OLED-master\Cypress-PSOC-OLED-master\OLED.cydsn/ssd1306.c **** 
 105:..\..\Cypress-PSOC-OLED-master\Cypress-PSOC-OLED-master\OLED.cydsn/ssd1306.c **** // lower 3 bit of y determine vertical pixel position (pos 0...7) in GDDRAM byte
 106:..\..\Cypress-PSOC-OLED-master\Cypress-PSOC-OLED-master\OLED.cydsn/ssd1306.c **** // (y&0x07) == position of pixel on row (page). LSB is top, MSB bottom
 107:..\..\Cypress-PSOC-OLED-master\Cypress-PSOC-OLED-master\OLED.cydsn/ssd1306.c **** #define GDDRAM_PIXMASK(Y) (1 << ((Y)&0x07))
 108:..\..\Cypress-PSOC-OLED-master\Cypress-PSOC-OLED-master\OLED.cydsn/ssd1306.c **** 
 109:..\..\Cypress-PSOC-OLED-master\Cypress-PSOC-OLED-master\OLED.cydsn/ssd1306.c **** #define PIXEL_ON(X,Y) (*GDDRAM_ADDRESS(x,y) |= GDDRAM_PIXMASK(y))
 110:..\..\Cypress-PSOC-OLED-master\Cypress-PSOC-OLED-master\OLED.cydsn/ssd1306.c **** #define PIXEL_OFF(X,Y) (*GDDRAM_ADDRESS(x,y) &= ~GDDRAM_PIXMASK(y))
 111:..\..\Cypress-PSOC-OLED-master\Cypress-PSOC-OLED-master\OLED.cydsn/ssd1306.c **** #define PIXEL_TOGGLE(X,Y) (*GDDRAM_ADDRESS(x,y) ^= GDDRAM_PIXMASK(y)) 
 112:..\..\Cypress-PSOC-OLED-master\Cypress-PSOC-OLED-master\OLED.cydsn/ssd1306.c **** 
 113:..\..\Cypress-PSOC-OLED-master\Cypress-PSOC-OLED-master\OLED.cydsn/ssd1306.c **** 
 114:..\..\Cypress-PSOC-OLED-master\Cypress-PSOC-OLED-master\OLED.cydsn/ssd1306.c **** 
 115:..\..\Cypress-PSOC-OLED-master\Cypress-PSOC-OLED-master\OLED.cydsn/ssd1306.c **** // call before first use of other functions
 116:..\..\Cypress-PSOC-OLED-master\Cypress-PSOC-OLED-master\OLED.cydsn/ssd1306.c **** void display_init( uint8 i2caddr ){
 117:..\..\Cypress-PSOC-OLED-master\Cypress-PSOC-OLED-master\OLED.cydsn/ssd1306.c ****     
 118:..\..\Cypress-PSOC-OLED-master\Cypress-PSOC-OLED-master\OLED.cydsn/ssd1306.c ****     _i2caddr = i2caddr;
 119:..\..\Cypress-PSOC-OLED-master\Cypress-PSOC-OLED-master\OLED.cydsn/ssd1306.c ****     gfx_init( DISPLAYWIDTH, DISPLAYHEIGHT );
 120:..\..\Cypress-PSOC-OLED-master\Cypress-PSOC-OLED-master\OLED.cydsn/ssd1306.c ****     
 121:..\..\Cypress-PSOC-OLED-master\Cypress-PSOC-OLED-master\OLED.cydsn/ssd1306.c ****     uint8 cmdbuf[] = {
 122:..\..\Cypress-PSOC-OLED-master\Cypress-PSOC-OLED-master\OLED.cydsn/ssd1306.c ****         0x00,
 123:..\..\Cypress-PSOC-OLED-master\Cypress-PSOC-OLED-master\OLED.cydsn/ssd1306.c ****         SSD1306_DISPLAYOFF,
 124:..\..\Cypress-PSOC-OLED-master\Cypress-PSOC-OLED-master\OLED.cydsn/ssd1306.c ****         SSD1306_SETDISPLAYCLOCKDIV,
 125:..\..\Cypress-PSOC-OLED-master\Cypress-PSOC-OLED-master\OLED.cydsn/ssd1306.c ****         0x80,
 126:..\..\Cypress-PSOC-OLED-master\Cypress-PSOC-OLED-master\OLED.cydsn/ssd1306.c ****         SSD1306_SETMULTIPLEX,
 127:..\..\Cypress-PSOC-OLED-master\Cypress-PSOC-OLED-master\OLED.cydsn/ssd1306.c ****         0x3f,
 128:..\..\Cypress-PSOC-OLED-master\Cypress-PSOC-OLED-master\OLED.cydsn/ssd1306.c ****         SSD1306_SETDISPLAYOFFSET,
 129:..\..\Cypress-PSOC-OLED-master\Cypress-PSOC-OLED-master\OLED.cydsn/ssd1306.c ****         0x00,
 130:..\..\Cypress-PSOC-OLED-master\Cypress-PSOC-OLED-master\OLED.cydsn/ssd1306.c ****         SSD1306_SETSTARTLINE | 0x0,
 131:..\..\Cypress-PSOC-OLED-master\Cypress-PSOC-OLED-master\OLED.cydsn/ssd1306.c ****         SSD1306_CHARGEPUMP,
 132:..\..\Cypress-PSOC-OLED-master\Cypress-PSOC-OLED-master\OLED.cydsn/ssd1306.c ****         0x14,
 133:..\..\Cypress-PSOC-OLED-master\Cypress-PSOC-OLED-master\OLED.cydsn/ssd1306.c ****         SSD1306_MEMORYMODE,
 134:..\..\Cypress-PSOC-OLED-master\Cypress-PSOC-OLED-master\OLED.cydsn/ssd1306.c ****         0x00,
 135:..\..\Cypress-PSOC-OLED-master\Cypress-PSOC-OLED-master\OLED.cydsn/ssd1306.c ****         SSD1306_SEGREMAP | 0x1,
 136:..\..\Cypress-PSOC-OLED-master\Cypress-PSOC-OLED-master\OLED.cydsn/ssd1306.c ****         SSD1306_COMSCANDEC,
 137:..\..\Cypress-PSOC-OLED-master\Cypress-PSOC-OLED-master\OLED.cydsn/ssd1306.c ****         SSD1306_SETCOMPINS,
 138:..\..\Cypress-PSOC-OLED-master\Cypress-PSOC-OLED-master\OLED.cydsn/ssd1306.c ****         0x12,
 139:..\..\Cypress-PSOC-OLED-master\Cypress-PSOC-OLED-master\OLED.cydsn/ssd1306.c ****         SSD1306_SETCONTRAST,
 140:..\..\Cypress-PSOC-OLED-master\Cypress-PSOC-OLED-master\OLED.cydsn/ssd1306.c ****         0xcf,
 141:..\..\Cypress-PSOC-OLED-master\Cypress-PSOC-OLED-master\OLED.cydsn/ssd1306.c ****         SSD1306_SETPRECHARGE,
 142:..\..\Cypress-PSOC-OLED-master\Cypress-PSOC-OLED-master\OLED.cydsn/ssd1306.c ****         0xf1,
 143:..\..\Cypress-PSOC-OLED-master\Cypress-PSOC-OLED-master\OLED.cydsn/ssd1306.c ****         SSD1306_SETVCOMDETECT,
 144:..\..\Cypress-PSOC-OLED-master\Cypress-PSOC-OLED-master\OLED.cydsn/ssd1306.c ****         0x40,
 145:..\..\Cypress-PSOC-OLED-master\Cypress-PSOC-OLED-master\OLED.cydsn/ssd1306.c ****         SSD1306_DISPLAYALLON_RESUME,
ARM GAS  C:\Users\boise\AppData\Local\Temp\ccDu5XGS.s 			page 4


 146:..\..\Cypress-PSOC-OLED-master\Cypress-PSOC-OLED-master\OLED.cydsn/ssd1306.c ****         SSD1306_NORMALDISPLAY,
 147:..\..\Cypress-PSOC-OLED-master\Cypress-PSOC-OLED-master\OLED.cydsn/ssd1306.c ****         SSD1306_DISPLAYON
 148:..\..\Cypress-PSOC-OLED-master\Cypress-PSOC-OLED-master\OLED.cydsn/ssd1306.c ****     };
 149:..\..\Cypress-PSOC-OLED-master\Cypress-PSOC-OLED-master\OLED.cydsn/ssd1306.c ****     
 150:..\..\Cypress-PSOC-OLED-master\Cypress-PSOC-OLED-master\OLED.cydsn/ssd1306.c ****     display_write_buf( cmdbuf, sizeof(cmdbuf) ); 
 151:..\..\Cypress-PSOC-OLED-master\Cypress-PSOC-OLED-master\OLED.cydsn/ssd1306.c **** }
 152:..\..\Cypress-PSOC-OLED-master\Cypress-PSOC-OLED-master\OLED.cydsn/ssd1306.c **** 
 153:..\..\Cypress-PSOC-OLED-master\Cypress-PSOC-OLED-master\OLED.cydsn/ssd1306.c **** 
 154:..\..\Cypress-PSOC-OLED-master\Cypress-PSOC-OLED-master\OLED.cydsn/ssd1306.c **** // for submitting command sequences:
 155:..\..\Cypress-PSOC-OLED-master\Cypress-PSOC-OLED-master\OLED.cydsn/ssd1306.c **** //  buf[0] must be 0x00
 156:..\..\Cypress-PSOC-OLED-master\Cypress-PSOC-OLED-master\OLED.cydsn/ssd1306.c **** // for submitting bulk data (writing to display RAM):
 157:..\..\Cypress-PSOC-OLED-master\Cypress-PSOC-OLED-master\OLED.cydsn/ssd1306.c **** //  buf[0] must be 0x40
 158:..\..\Cypress-PSOC-OLED-master\Cypress-PSOC-OLED-master\OLED.cydsn/ssd1306.c **** static uint32 display_write_buf( uint8* buf, uint16_t size ){
 159:..\..\Cypress-PSOC-OLED-master\Cypress-PSOC-OLED-master\OLED.cydsn/ssd1306.c **** 
 160:..\..\Cypress-PSOC-OLED-master\Cypress-PSOC-OLED-master\OLED.cydsn/ssd1306.c ****     uint32 status = TRANSFER_ERROR;
 161:..\..\Cypress-PSOC-OLED-master\Cypress-PSOC-OLED-master\OLED.cydsn/ssd1306.c **** 
 162:..\..\Cypress-PSOC-OLED-master\Cypress-PSOC-OLED-master\OLED.cydsn/ssd1306.c ****     I2C_I2CMasterWriteBuf(_i2caddr, buf, size, I2C_I2C_MODE_COMPLETE_XFER);
 163:..\..\Cypress-PSOC-OLED-master\Cypress-PSOC-OLED-master\OLED.cydsn/ssd1306.c ****     while( 0u == (I2C_I2CMasterStatus() & I2C_I2C_MSTAT_WR_CMPLT) );
 164:..\..\Cypress-PSOC-OLED-master\Cypress-PSOC-OLED-master\OLED.cydsn/ssd1306.c **** 
 165:..\..\Cypress-PSOC-OLED-master\Cypress-PSOC-OLED-master\OLED.cydsn/ssd1306.c ****     if( 0u == (I2C_I2C_MSTAT_ERR_XFER & I2C_I2CMasterStatus()) ){
 166:..\..\Cypress-PSOC-OLED-master\Cypress-PSOC-OLED-master\OLED.cydsn/ssd1306.c ****         // Check if all bytes was written 
 167:..\..\Cypress-PSOC-OLED-master\Cypress-PSOC-OLED-master\OLED.cydsn/ssd1306.c ****         if( I2C_I2CMasterGetWriteBufSize() == size ){
 168:..\..\Cypress-PSOC-OLED-master\Cypress-PSOC-OLED-master\OLED.cydsn/ssd1306.c ****             status = TRANSFER_CMPLT;
 169:..\..\Cypress-PSOC-OLED-master\Cypress-PSOC-OLED-master\OLED.cydsn/ssd1306.c ****         }
 170:..\..\Cypress-PSOC-OLED-master\Cypress-PSOC-OLED-master\OLED.cydsn/ssd1306.c ****     }
 171:..\..\Cypress-PSOC-OLED-master\Cypress-PSOC-OLED-master\OLED.cydsn/ssd1306.c ****     I2C_I2CMasterClearStatus();
 172:..\..\Cypress-PSOC-OLED-master\Cypress-PSOC-OLED-master\OLED.cydsn/ssd1306.c **** 
 173:..\..\Cypress-PSOC-OLED-master\Cypress-PSOC-OLED-master\OLED.cydsn/ssd1306.c ****     return status;
 174:..\..\Cypress-PSOC-OLED-master\Cypress-PSOC-OLED-master\OLED.cydsn/ssd1306.c **** }
 175:..\..\Cypress-PSOC-OLED-master\Cypress-PSOC-OLED-master\OLED.cydsn/ssd1306.c **** 
 176:..\..\Cypress-PSOC-OLED-master\Cypress-PSOC-OLED-master\OLED.cydsn/ssd1306.c **** 
 177:..\..\Cypress-PSOC-OLED-master\Cypress-PSOC-OLED-master\OLED.cydsn/ssd1306.c **** // used by gfx_ functions. Needs to be implemented by display_
 178:..\..\Cypress-PSOC-OLED-master\Cypress-PSOC-OLED-master\OLED.cydsn/ssd1306.c **** static void display_setPixel( int16_t x, int16_t y, uint16_t color ){
  27              		.loc 1 178 0
  28              		.cfi_startproc
  29              		@ args = 0, pretend = 0, frame = 0
  30              		@ frame_needed = 0, uses_anonymous_args = 0
  31              		@ link register save eliminated.
  32              	.LVL0:
 179:..\..\Cypress-PSOC-OLED-master\Cypress-PSOC-OLED-master\OLED.cydsn/ssd1306.c ****     
 180:..\..\Cypress-PSOC-OLED-master\Cypress-PSOC-OLED-master\OLED.cydsn/ssd1306.c ****     if( (x < 0) || (x >= DISPLAYWIDTH) || (y < 0) || (y >= DISPLAYHEIGHT) )
  33              		.loc 1 180 0
  34 0000 83B2     		uxth	r3, r0
  35 0002 7F2B     		cmp	r3, #127
  36 0004 3FD8     		bhi	.L1
  37              		.loc 1 180 0 is_stmt 0 discriminator 1
  38 0006 0029     		cmp	r1, #0
  39 0008 3DDB     		blt	.L1
  40              		.loc 1 180 0 discriminator 2
  41 000a 3F29     		cmp	r1, #63
  42 000c 3BDC     		bgt	.L1
 181:..\..\Cypress-PSOC-OLED-master\Cypress-PSOC-OLED-master\OLED.cydsn/ssd1306.c ****         return;
 182:..\..\Cypress-PSOC-OLED-master\Cypress-PSOC-OLED-master\OLED.cydsn/ssd1306.c **** 
 183:..\..\Cypress-PSOC-OLED-master\Cypress-PSOC-OLED-master\OLED.cydsn/ssd1306.c ****     switch( color ){
  43              		.loc 1 183 0 is_stmt 1
  44 000e 012A     		cmp	r2, #1
  45 0010 04D0     		beq	.L3
ARM GAS  C:\Users\boise\AppData\Local\Temp\ccDu5XGS.s 			page 5


  46 0012 002A     		cmp	r2, #0
  47 0014 14D0     		beq	.L4
  48 0016 022A     		cmp	r2, #2
  49 0018 24D0     		beq	.L5
  50 001a 34E0     		b	.L1
  51              	.L3:
 184:..\..\Cypress-PSOC-OLED-master\Cypress-PSOC-OLED-master\OLED.cydsn/ssd1306.c ****         case WHITE: 
 185:..\..\Cypress-PSOC-OLED-master\Cypress-PSOC-OLED-master\OLED.cydsn/ssd1306.c ****             PIXEL_ON(x,y);
  52              		.loc 1 185 0
  53 001c CB17     		asrs	r3, r1, #31
  54 001e 0722     		movs	r2, #7
  55              	.LVL1:
  56 0020 1340     		ands	r3, r2
  57 0022 5B18     		adds	r3, r3, r1
  58 0024 DB10     		asrs	r3, r3, #3
  59 0026 DB01     		lsls	r3, r3, #7
  60 0028 1818     		adds	r0, r3, r0
  61              	.LVL2:
  62 002a 174B     		ldr	r3, .L6
  63 002c 0133     		adds	r3, r3, #1
  64 002e 1818     		adds	r0, r3, r0
  65 0030 0723     		movs	r3, #7
  66 0032 1940     		ands	r1, r3
  67              	.LVL3:
  68 0034 063B     		subs	r3, r3, #6
  69 0036 8B40     		lsls	r3, r3, r1
  70 0038 0278     		ldrb	r2, [r0]
  71 003a 1343     		orrs	r3, r2
  72 003c 0370     		strb	r3, [r0]
 186:..\..\Cypress-PSOC-OLED-master\Cypress-PSOC-OLED-master\OLED.cydsn/ssd1306.c ****             break;
  73              		.loc 1 186 0
  74 003e 22E0     		b	.L1
  75              	.LVL4:
  76              	.L4:
 187:..\..\Cypress-PSOC-OLED-master\Cypress-PSOC-OLED-master\OLED.cydsn/ssd1306.c ****         case BLACK:
 188:..\..\Cypress-PSOC-OLED-master\Cypress-PSOC-OLED-master\OLED.cydsn/ssd1306.c ****             PIXEL_OFF(x,y);
  77              		.loc 1 188 0
  78 0040 CB17     		asrs	r3, r1, #31
  79 0042 0722     		movs	r2, #7
  80              	.LVL5:
  81 0044 1340     		ands	r3, r2
  82 0046 5B18     		adds	r3, r3, r1
  83 0048 DB10     		asrs	r3, r3, #3
  84 004a DB01     		lsls	r3, r3, #7
  85 004c 1818     		adds	r0, r3, r0
  86              	.LVL6:
  87 004e 0E4B     		ldr	r3, .L6
  88 0050 0133     		adds	r3, r3, #1
  89 0052 1818     		adds	r0, r3, r0
  90 0054 0723     		movs	r3, #7
  91 0056 1940     		ands	r1, r3
  92              	.LVL7:
  93 0058 063A     		subs	r2, r2, #6
  94 005a 8A40     		lsls	r2, r2, r1
  95 005c 0378     		ldrb	r3, [r0]
  96 005e 9343     		bics	r3, r2
  97 0060 0370     		strb	r3, [r0]
ARM GAS  C:\Users\boise\AppData\Local\Temp\ccDu5XGS.s 			page 6


 189:..\..\Cypress-PSOC-OLED-master\Cypress-PSOC-OLED-master\OLED.cydsn/ssd1306.c ****             break;
  98              		.loc 1 189 0
  99 0062 10E0     		b	.L1
 100              	.LVL8:
 101              	.L5:
 190:..\..\Cypress-PSOC-OLED-master\Cypress-PSOC-OLED-master\OLED.cydsn/ssd1306.c ****         case INVERSE: 
 191:..\..\Cypress-PSOC-OLED-master\Cypress-PSOC-OLED-master\OLED.cydsn/ssd1306.c ****             PIXEL_TOGGLE(x,y);
 102              		.loc 1 191 0
 103 0064 CB17     		asrs	r3, r1, #31
 104 0066 0722     		movs	r2, #7
 105              	.LVL9:
 106 0068 1340     		ands	r3, r2
 107 006a 5B18     		adds	r3, r3, r1
 108 006c DB10     		asrs	r3, r3, #3
 109 006e DB01     		lsls	r3, r3, #7
 110 0070 1818     		adds	r0, r3, r0
 111              	.LVL10:
 112 0072 054B     		ldr	r3, .L6
 113 0074 0133     		adds	r3, r3, #1
 114 0076 1818     		adds	r0, r3, r0
 115 0078 0723     		movs	r3, #7
 116 007a 1940     		ands	r1, r3
 117              	.LVL11:
 118 007c 063B     		subs	r3, r3, #6
 119 007e 8B40     		lsls	r3, r3, r1
 120 0080 0278     		ldrb	r2, [r0]
 121 0082 5340     		eors	r3, r2
 122 0084 0370     		strb	r3, [r0]
 123              	.L1:
 192:..\..\Cypress-PSOC-OLED-master\Cypress-PSOC-OLED-master\OLED.cydsn/ssd1306.c ****             break;
 193:..\..\Cypress-PSOC-OLED-master\Cypress-PSOC-OLED-master\OLED.cydsn/ssd1306.c ****     }
 194:..\..\Cypress-PSOC-OLED-master\Cypress-PSOC-OLED-master\OLED.cydsn/ssd1306.c **** }
 124              		.loc 1 194 0
 125              		@ sp needed
 126 0086 7047     		bx	lr
 127              	.L7:
 128              		.align	2
 129              	.L6:
 130 0088 00000000 		.word	.LANCHOR0
 131              		.cfi_endproc
 132              	.LFE34:
 133              		.size	display_setPixel, .-display_setPixel
 134              		.section	.text.display_line,"ax",%progbits
 135              		.align	2
 136              		.code	16
 137              		.thumb_func
 138              		.type	display_line, %function
 139              	display_line:
 140              	.LFB39:
 195:..\..\Cypress-PSOC-OLED-master\Cypress-PSOC-OLED-master\OLED.cydsn/ssd1306.c **** 
 196:..\..\Cypress-PSOC-OLED-master\Cypress-PSOC-OLED-master\OLED.cydsn/ssd1306.c **** 
 197:..\..\Cypress-PSOC-OLED-master\Cypress-PSOC-OLED-master\OLED.cydsn/ssd1306.c **** void display_clear(void){
 198:..\..\Cypress-PSOC-OLED-master\Cypress-PSOC-OLED-master\OLED.cydsn/ssd1306.c ****     memset( _displaybuf, 0, _displaybuf_size );
 199:..\..\Cypress-PSOC-OLED-master\Cypress-PSOC-OLED-master\OLED.cydsn/ssd1306.c ****     SSD1306_buffer[0] = 0x40; // to be sure its there
 200:..\..\Cypress-PSOC-OLED-master\Cypress-PSOC-OLED-master\OLED.cydsn/ssd1306.c **** }
 201:..\..\Cypress-PSOC-OLED-master\Cypress-PSOC-OLED-master\OLED.cydsn/ssd1306.c **** 
 202:..\..\Cypress-PSOC-OLED-master\Cypress-PSOC-OLED-master\OLED.cydsn/ssd1306.c **** 
ARM GAS  C:\Users\boise\AppData\Local\Temp\ccDu5XGS.s 			page 7


 203:..\..\Cypress-PSOC-OLED-master\Cypress-PSOC-OLED-master\OLED.cydsn/ssd1306.c **** // contrast: 0 ...255
 204:..\..\Cypress-PSOC-OLED-master\Cypress-PSOC-OLED-master\OLED.cydsn/ssd1306.c **** void display_contrast( uint8_t contrast ){
 205:..\..\Cypress-PSOC-OLED-master\Cypress-PSOC-OLED-master\OLED.cydsn/ssd1306.c ****         
 206:..\..\Cypress-PSOC-OLED-master\Cypress-PSOC-OLED-master\OLED.cydsn/ssd1306.c ****     uint8 cmdbuf[] = {
 207:..\..\Cypress-PSOC-OLED-master\Cypress-PSOC-OLED-master\OLED.cydsn/ssd1306.c ****         0x00,  
 208:..\..\Cypress-PSOC-OLED-master\Cypress-PSOC-OLED-master\OLED.cydsn/ssd1306.c ****         SSD1306_SETCONTRAST,
 209:..\..\Cypress-PSOC-OLED-master\Cypress-PSOC-OLED-master\OLED.cydsn/ssd1306.c ****         contrast
 210:..\..\Cypress-PSOC-OLED-master\Cypress-PSOC-OLED-master\OLED.cydsn/ssd1306.c ****     };
 211:..\..\Cypress-PSOC-OLED-master\Cypress-PSOC-OLED-master\OLED.cydsn/ssd1306.c ****     display_write_buf( cmdbuf, sizeof(cmdbuf) ); 
 212:..\..\Cypress-PSOC-OLED-master\Cypress-PSOC-OLED-master\OLED.cydsn/ssd1306.c **** }
 213:..\..\Cypress-PSOC-OLED-master\Cypress-PSOC-OLED-master\OLED.cydsn/ssd1306.c **** 
 214:..\..\Cypress-PSOC-OLED-master\Cypress-PSOC-OLED-master\OLED.cydsn/ssd1306.c **** 
 215:..\..\Cypress-PSOC-OLED-master\Cypress-PSOC-OLED-master\OLED.cydsn/ssd1306.c **** // invert <> 0 for inverse display, invert == 0 for normal display
 216:..\..\Cypress-PSOC-OLED-master\Cypress-PSOC-OLED-master\OLED.cydsn/ssd1306.c **** void display_invert( uint8_t invert ){
 217:..\..\Cypress-PSOC-OLED-master\Cypress-PSOC-OLED-master\OLED.cydsn/ssd1306.c **** 
 218:..\..\Cypress-PSOC-OLED-master\Cypress-PSOC-OLED-master\OLED.cydsn/ssd1306.c ****     uint8 cmdbuf[] = {
 219:..\..\Cypress-PSOC-OLED-master\Cypress-PSOC-OLED-master\OLED.cydsn/ssd1306.c ****         0x00,  
 220:..\..\Cypress-PSOC-OLED-master\Cypress-PSOC-OLED-master\OLED.cydsn/ssd1306.c ****         0
 221:..\..\Cypress-PSOC-OLED-master\Cypress-PSOC-OLED-master\OLED.cydsn/ssd1306.c ****     };
 222:..\..\Cypress-PSOC-OLED-master\Cypress-PSOC-OLED-master\OLED.cydsn/ssd1306.c ****     cmdbuf[1] = invert ? SSD1306_INVERTDISPLAY : SSD1306_NORMALDISPLAY;
 223:..\..\Cypress-PSOC-OLED-master\Cypress-PSOC-OLED-master\OLED.cydsn/ssd1306.c ****     display_write_buf( cmdbuf, sizeof(cmdbuf) ); 
 224:..\..\Cypress-PSOC-OLED-master\Cypress-PSOC-OLED-master\OLED.cydsn/ssd1306.c **** }
 225:..\..\Cypress-PSOC-OLED-master\Cypress-PSOC-OLED-master\OLED.cydsn/ssd1306.c **** 
 226:..\..\Cypress-PSOC-OLED-master\Cypress-PSOC-OLED-master\OLED.cydsn/ssd1306.c **** 
 227:..\..\Cypress-PSOC-OLED-master\Cypress-PSOC-OLED-master\OLED.cydsn/ssd1306.c **** void display_update(void) {
 228:..\..\Cypress-PSOC-OLED-master\Cypress-PSOC-OLED-master\OLED.cydsn/ssd1306.c ****       
 229:..\..\Cypress-PSOC-OLED-master\Cypress-PSOC-OLED-master\OLED.cydsn/ssd1306.c ****     uint8 cmdbuf[] = {
 230:..\..\Cypress-PSOC-OLED-master\Cypress-PSOC-OLED-master\OLED.cydsn/ssd1306.c ****         0x00,
 231:..\..\Cypress-PSOC-OLED-master\Cypress-PSOC-OLED-master\OLED.cydsn/ssd1306.c ****         SSD1306_COLUMNADDR,
 232:..\..\Cypress-PSOC-OLED-master\Cypress-PSOC-OLED-master\OLED.cydsn/ssd1306.c ****         0,                      // start
 233:..\..\Cypress-PSOC-OLED-master\Cypress-PSOC-OLED-master\OLED.cydsn/ssd1306.c ****         DISPLAYWIDTH-1, // end
 234:..\..\Cypress-PSOC-OLED-master\Cypress-PSOC-OLED-master\OLED.cydsn/ssd1306.c ****         SSD1306_PAGEADDR,
 235:..\..\Cypress-PSOC-OLED-master\Cypress-PSOC-OLED-master\OLED.cydsn/ssd1306.c ****         0,                      // start
 236:..\..\Cypress-PSOC-OLED-master\Cypress-PSOC-OLED-master\OLED.cydsn/ssd1306.c ****         7                       // end
 237:..\..\Cypress-PSOC-OLED-master\Cypress-PSOC-OLED-master\OLED.cydsn/ssd1306.c ****     };
 238:..\..\Cypress-PSOC-OLED-master\Cypress-PSOC-OLED-master\OLED.cydsn/ssd1306.c ****     display_write_buf( cmdbuf, sizeof(cmdbuf) ); 
 239:..\..\Cypress-PSOC-OLED-master\Cypress-PSOC-OLED-master\OLED.cydsn/ssd1306.c ****     display_write_buf( SSD1306_buffer, sizeof(SSD1306_buffer) );
 240:..\..\Cypress-PSOC-OLED-master\Cypress-PSOC-OLED-master\OLED.cydsn/ssd1306.c **** }
 241:..\..\Cypress-PSOC-OLED-master\Cypress-PSOC-OLED-master\OLED.cydsn/ssd1306.c **** 
 242:..\..\Cypress-PSOC-OLED-master\Cypress-PSOC-OLED-master\OLED.cydsn/ssd1306.c **** 
 243:..\..\Cypress-PSOC-OLED-master\Cypress-PSOC-OLED-master\OLED.cydsn/ssd1306.c **** // draws horizontal or vertical line
 244:..\..\Cypress-PSOC-OLED-master\Cypress-PSOC-OLED-master\OLED.cydsn/ssd1306.c **** // Note: no check for valid coords, this needs to be done by caller
 245:..\..\Cypress-PSOC-OLED-master\Cypress-PSOC-OLED-master\OLED.cydsn/ssd1306.c **** // should only be called from gfx_hvline which is doing all validity checking
 246:..\..\Cypress-PSOC-OLED-master\Cypress-PSOC-OLED-master\OLED.cydsn/ssd1306.c **** static void display_line( int16_t x1, int16_t y1, int16_t x2, int16_t y2, uint16_t color ){
 141              		.loc 1 246 0
 142              		.cfi_startproc
 143              		@ args = 4, pretend = 0, frame = 0
 144              		@ frame_needed = 0, uses_anonymous_args = 0
 145              	.LVL12:
 146 0000 F0B5     		push	{r4, r5, r6, r7, lr}
 147              		.cfi_def_cfa_offset 20
 148              		.cfi_offset 4, -20
 149              		.cfi_offset 5, -16
 150              		.cfi_offset 6, -12
 151              		.cfi_offset 7, -8
 152              		.cfi_offset 14, -4
 153 0002 4746     		mov	r7, r8
ARM GAS  C:\Users\boise\AppData\Local\Temp\ccDu5XGS.s 			page 8


 154 0004 80B4     		push	{r7}
 155              		.cfi_def_cfa_offset 24
 156              		.cfi_offset 8, -24
 157 0006 06AC     		add	r4, sp, #24
 158              	.LVL13:
 159 0008 2588     		ldrh	r5, [r4]
 247:..\..\Cypress-PSOC-OLED-master\Cypress-PSOC-OLED-master\OLED.cydsn/ssd1306.c **** 
 248:..\..\Cypress-PSOC-OLED-master\Cypress-PSOC-OLED-master\OLED.cydsn/ssd1306.c ****     if( x1 == x2 ){
 160              		.loc 1 248 0
 161 000a 9042     		cmp	r0, r2
 162 000c 6FD1     		bne	.L9
 163              	.LBB2:
 249:..\..\Cypress-PSOC-OLED-master\Cypress-PSOC-OLED-master\OLED.cydsn/ssd1306.c ****         // vertical
 250:..\..\Cypress-PSOC-OLED-master\Cypress-PSOC-OLED-master\OLED.cydsn/ssd1306.c ****         uint8_t* pstart = GDDRAM_ADDRESS(x1,y1);
 164              		.loc 1 250 0
 165 000e CF17     		asrs	r7, r1, #31
 166 0010 0726     		movs	r6, #7
 167 0012 3740     		ands	r7, r6
 168 0014 7F18     		adds	r7, r7, r1
 169 0016 FF10     		asrs	r7, r7, #3
 170 0018 FF01     		lsls	r7, r7, #7
 171 001a 3818     		adds	r0, r7, r0
 172              	.LVL14:
 173 001c 494F     		ldr	r7, .L34
 174 001e 0137     		adds	r7, r7, #1
 175 0020 3818     		adds	r0, r7, r0
 176              	.LVL15:
 251:..\..\Cypress-PSOC-OLED-master\Cypress-PSOC-OLED-master\OLED.cydsn/ssd1306.c ****         uint8_t* pend = GDDRAM_ADDRESS(x2,y2);       
 177              		.loc 1 251 0
 178 0022 DC17     		asrs	r4, r3, #31
 179              	.LVL16:
 180 0024 3440     		ands	r4, r6
 181 0026 E418     		adds	r4, r4, r3
 182 0028 E410     		asrs	r4, r4, #3
 183 002a E401     		lsls	r4, r4, #7
 184 002c A218     		adds	r2, r4, r2
 185              	.LVL17:
 186 002e BA18     		adds	r2, r7, r2
 187              	.LVL18:
 252:..\..\Cypress-PSOC-OLED-master\Cypress-PSOC-OLED-master\OLED.cydsn/ssd1306.c ****         uint8_t* ptr = pstart;             
 188              		.loc 1 252 0
 189 0030 0400     		movs	r4, r0
 253:..\..\Cypress-PSOC-OLED-master\Cypress-PSOC-OLED-master\OLED.cydsn/ssd1306.c ****         
 254:..\..\Cypress-PSOC-OLED-master\Cypress-PSOC-OLED-master\OLED.cydsn/ssd1306.c ****         while( ptr <= pend ){
 190              		.loc 1 254 0
 191 0032 59E0     		b	.L10
 192              	.LVL19:
 193              	.L25:
 194              	.LBB3:
 255:..\..\Cypress-PSOC-OLED-master\Cypress-PSOC-OLED-master\OLED.cydsn/ssd1306.c ****             
 256:..\..\Cypress-PSOC-OLED-master\Cypress-PSOC-OLED-master\OLED.cydsn/ssd1306.c ****             uint8_t mask;
 257:..\..\Cypress-PSOC-OLED-master\Cypress-PSOC-OLED-master\OLED.cydsn/ssd1306.c ****             if( ptr == pstart ){
 195              		.loc 1 257 0
 196 0034 8442     		cmp	r4, r0
 197 0036 1BD1     		bne	.L11
 198              	.LBB4:
 258:..\..\Cypress-PSOC-OLED-master\Cypress-PSOC-OLED-master\OLED.cydsn/ssd1306.c ****                 // top
ARM GAS  C:\Users\boise\AppData\Local\Temp\ccDu5XGS.s 			page 9


 259:..\..\Cypress-PSOC-OLED-master\Cypress-PSOC-OLED-master\OLED.cydsn/ssd1306.c ****                 uint8_t lbit = y1 % 8;
 199              		.loc 1 259 0
 200 0038 434E     		ldr	r6, .L34+4
 201 003a 0E40     		ands	r6, r1
 202 003c 04D5     		bpl	.L12
 203 003e 013E     		subs	r6, r6, #1
 204 0040 0827     		movs	r7, #8
 205 0042 7F42     		rsbs	r7, r7, #0
 206 0044 3E43     		orrs	r6, r7
 207 0046 0136     		adds	r6, r6, #1
 208              	.L12:
 209 0048 F6B2     		uxtb	r6, r6
 210 004a B046     		mov	r8, r6
 211              	.LVL20:
 260:..\..\Cypress-PSOC-OLED-master\Cypress-PSOC-OLED-master\OLED.cydsn/ssd1306.c ****                 // bottom (line can be very short, all inside this one byte)
 261:..\..\Cypress-PSOC-OLED-master\Cypress-PSOC-OLED-master\OLED.cydsn/ssd1306.c ****                 uint8_t ubit = lbit + y2 - y1;
 212              		.loc 1 261 0
 213 004c F618     		adds	r6, r6, r3
 214              	.LVL21:
 215 004e 761A     		subs	r6, r6, r1
 216 0050 F6B2     		uxtb	r6, r6
 217              	.LVL22:
 262:..\..\Cypress-PSOC-OLED-master\Cypress-PSOC-OLED-master\OLED.cydsn/ssd1306.c ****                 if( ubit >= 7 )
 218              		.loc 1 262 0
 219 0052 062E     		cmp	r6, #6
 220 0054 00D9     		bls	.L13
 263:..\..\Cypress-PSOC-OLED-master\Cypress-PSOC-OLED-master\OLED.cydsn/ssd1306.c ****                     ubit = 7;
 221              		.loc 1 263 0
 222 0056 0726     		movs	r6, #7
 223              	.LVL23:
 224              	.L13:
 264:..\..\Cypress-PSOC-OLED-master\Cypress-PSOC-OLED-master\OLED.cydsn/ssd1306.c ****                 mask = ((1 << (ubit-lbit+1)) - 1) << lbit;    
 225              		.loc 1 264 0
 226 0058 4746     		mov	r7, r8
 227 005a F61B     		subs	r6, r6, r7
 228              	.LVL24:
 229 005c 0136     		adds	r6, r6, #1
 230 005e 0127     		movs	r7, #1
 231 0060 B740     		lsls	r7, r7, r6
 232 0062 3E00     		movs	r6, r7
 233 0064 013E     		subs	r6, r6, #1
 234 0066 4746     		mov	r7, r8
 235 0068 BE40     		lsls	r6, r6, r7
 236 006a F6B2     		uxtb	r6, r6
 237 006c B446     		mov	ip, r6
 238              	.LVL25:
 239              	.LBE4:
 240 006e 10E0     		b	.L14
 241              	.LVL26:
 242              	.L11:
 265:..\..\Cypress-PSOC-OLED-master\Cypress-PSOC-OLED-master\OLED.cydsn/ssd1306.c ****             }else if( ptr == pend ){
 243              		.loc 1 265 0
 244 0070 9442     		cmp	r4, r2
 245 0072 0ED1     		bne	.L14
 266:..\..\Cypress-PSOC-OLED-master\Cypress-PSOC-OLED-master\OLED.cydsn/ssd1306.c ****                 // top is always bit 0, that makes it easy
 267:..\..\Cypress-PSOC-OLED-master\Cypress-PSOC-OLED-master\OLED.cydsn/ssd1306.c ****                 // bottom
 268:..\..\Cypress-PSOC-OLED-master\Cypress-PSOC-OLED-master\OLED.cydsn/ssd1306.c ****                 mask = (1 << (y2 % 8)) - 1;    
ARM GAS  C:\Users\boise\AppData\Local\Temp\ccDu5XGS.s 			page 10


 246              		.loc 1 268 0
 247 0074 344E     		ldr	r6, .L34+4
 248 0076 1E40     		ands	r6, r3
 249 0078 04D5     		bpl	.L15
 250 007a 013E     		subs	r6, r6, #1
 251 007c 0827     		movs	r7, #8
 252 007e 7F42     		rsbs	r7, r7, #0
 253 0080 3E43     		orrs	r6, r7
 254 0082 0136     		adds	r6, r6, #1
 255              	.L15:
 256 0084 36B2     		sxth	r6, r6
 257 0086 0127     		movs	r7, #1
 258 0088 B740     		lsls	r7, r7, r6
 259 008a 3E00     		movs	r6, r7
 260 008c 013E     		subs	r6, r6, #1
 261 008e F6B2     		uxtb	r6, r6
 262 0090 B446     		mov	ip, r6
 263              	.LVL27:
 264              	.L14:
 269:..\..\Cypress-PSOC-OLED-master\Cypress-PSOC-OLED-master\OLED.cydsn/ssd1306.c ****             }
 270:..\..\Cypress-PSOC-OLED-master\Cypress-PSOC-OLED-master\OLED.cydsn/ssd1306.c **** 
 271:..\..\Cypress-PSOC-OLED-master\Cypress-PSOC-OLED-master\OLED.cydsn/ssd1306.c ****             if( ptr == pstart || ptr == pend ){
 265              		.loc 1 271 0
 266 0092 8442     		cmp	r4, r0
 267 0094 01D0     		beq	.L16
 268              		.loc 1 271 0 is_stmt 0 discriminator 1
 269 0096 9442     		cmp	r4, r2
 270 0098 15D1     		bne	.L17
 271              	.L16:
 272:..\..\Cypress-PSOC-OLED-master\Cypress-PSOC-OLED-master\OLED.cydsn/ssd1306.c ****                 switch( color ){
 272              		.loc 1 272 0 is_stmt 1
 273 009a 012D     		cmp	r5, #1
 274 009c 04D0     		beq	.L19
 275 009e 002D     		cmp	r5, #0
 276 00a0 07D0     		beq	.L20
 277 00a2 022D     		cmp	r5, #2
 278 00a4 0AD0     		beq	.L21
 279 00a6 1EE0     		b	.L18
 280              	.L19:
 273:..\..\Cypress-PSOC-OLED-master\Cypress-PSOC-OLED-master\OLED.cydsn/ssd1306.c ****                     case WHITE:     *ptr |= mask; break;
 281              		.loc 1 273 0
 282 00a8 2778     		ldrb	r7, [r4]
 283 00aa 6646     		mov	r6, ip
 284 00ac 3743     		orrs	r7, r6
 285 00ae 2770     		strb	r7, [r4]
 286 00b0 19E0     		b	.L18
 287              	.L20:
 274:..\..\Cypress-PSOC-OLED-master\Cypress-PSOC-OLED-master\OLED.cydsn/ssd1306.c ****                     case BLACK:     *ptr &= ~mask; break;
 288              		.loc 1 274 0
 289 00b2 2778     		ldrb	r7, [r4]
 290 00b4 6646     		mov	r6, ip
 291 00b6 B743     		bics	r7, r6
 292 00b8 2770     		strb	r7, [r4]
 293 00ba 14E0     		b	.L18
 294              	.L21:
 275:..\..\Cypress-PSOC-OLED-master\Cypress-PSOC-OLED-master\OLED.cydsn/ssd1306.c ****                     case INVERSE:   *ptr ^= mask; break;
 295              		.loc 1 275 0
ARM GAS  C:\Users\boise\AppData\Local\Temp\ccDu5XGS.s 			page 11


 296 00bc 2778     		ldrb	r7, [r4]
 297 00be 6646     		mov	r6, ip
 298 00c0 7740     		eors	r7, r6
 299 00c2 2770     		strb	r7, [r4]
 300 00c4 0FE0     		b	.L18
 301              	.L17:
 276:..\..\Cypress-PSOC-OLED-master\Cypress-PSOC-OLED-master\OLED.cydsn/ssd1306.c ****                 };  
 277:..\..\Cypress-PSOC-OLED-master\Cypress-PSOC-OLED-master\OLED.cydsn/ssd1306.c ****             }else{
 278:..\..\Cypress-PSOC-OLED-master\Cypress-PSOC-OLED-master\OLED.cydsn/ssd1306.c ****                 switch( color ){
 302              		.loc 1 278 0
 303 00c6 012D     		cmp	r5, #1
 304 00c8 04D0     		beq	.L22
 305 00ca 002D     		cmp	r5, #0
 306 00cc 05D0     		beq	.L23
 307 00ce 022D     		cmp	r5, #2
 308 00d0 06D0     		beq	.L24
 309 00d2 08E0     		b	.L18
 310              	.L22:
 279:..\..\Cypress-PSOC-OLED-master\Cypress-PSOC-OLED-master\OLED.cydsn/ssd1306.c ****                     case WHITE:     *ptr = 0xff; break;
 311              		.loc 1 279 0
 312 00d4 FF27     		movs	r7, #255
 313 00d6 2770     		strb	r7, [r4]
 314 00d8 05E0     		b	.L18
 315              	.L23:
 280:..\..\Cypress-PSOC-OLED-master\Cypress-PSOC-OLED-master\OLED.cydsn/ssd1306.c ****                     case BLACK:     *ptr = 0x00; break;
 316              		.loc 1 280 0
 317 00da 0027     		movs	r7, #0
 318 00dc 2770     		strb	r7, [r4]
 319 00de 02E0     		b	.L18
 320              	.L24:
 281:..\..\Cypress-PSOC-OLED-master\Cypress-PSOC-OLED-master\OLED.cydsn/ssd1306.c ****                     case INVERSE:   *ptr ^= 0xff; break;
 321              		.loc 1 281 0
 322 00e0 2778     		ldrb	r7, [r4]
 323 00e2 FF43     		mvns	r7, r7
 324 00e4 2770     		strb	r7, [r4]
 325              	.L18:
 282:..\..\Cypress-PSOC-OLED-master\Cypress-PSOC-OLED-master\OLED.cydsn/ssd1306.c ****                 };  
 283:..\..\Cypress-PSOC-OLED-master\Cypress-PSOC-OLED-master\OLED.cydsn/ssd1306.c ****             }
 284:..\..\Cypress-PSOC-OLED-master\Cypress-PSOC-OLED-master\OLED.cydsn/ssd1306.c ****             
 285:..\..\Cypress-PSOC-OLED-master\Cypress-PSOC-OLED-master\OLED.cydsn/ssd1306.c ****             ptr += DISPLAYWIDTH;
 326              		.loc 1 285 0
 327 00e6 8034     		adds	r4, r4, #128
 328              	.LVL28:
 329              	.L10:
 330              	.LBE3:
 254:..\..\Cypress-PSOC-OLED-master\Cypress-PSOC-OLED-master\OLED.cydsn/ssd1306.c ****             
 331              		.loc 1 254 0
 332 00e8 9442     		cmp	r4, r2
 333 00ea A3D9     		bls	.L25
 334 00ec 26E0     		b	.L8
 335              	.LVL29:
 336              	.L9:
 337              	.LBE2:
 338              	.LBB5:
 286:..\..\Cypress-PSOC-OLED-master\Cypress-PSOC-OLED-master\OLED.cydsn/ssd1306.c ****         }
 287:..\..\Cypress-PSOC-OLED-master\Cypress-PSOC-OLED-master\OLED.cydsn/ssd1306.c ****     }else{
 288:..\..\Cypress-PSOC-OLED-master\Cypress-PSOC-OLED-master\OLED.cydsn/ssd1306.c ****         // horizontal
ARM GAS  C:\Users\boise\AppData\Local\Temp\ccDu5XGS.s 			page 12


 289:..\..\Cypress-PSOC-OLED-master\Cypress-PSOC-OLED-master\OLED.cydsn/ssd1306.c ****         uint8_t* pstart = GDDRAM_ADDRESS(x1,y1);
 339              		.loc 1 289 0
 340 00ee CB17     		asrs	r3, r1, #31
 341              	.LVL30:
 342 00f0 0724     		movs	r4, #7
 343              	.LVL31:
 344 00f2 2340     		ands	r3, r4
 345 00f4 5B18     		adds	r3, r3, r1
 346 00f6 DB10     		asrs	r3, r3, #3
 347 00f8 DB01     		lsls	r3, r3, #7
 348 00fa 1C18     		adds	r4, r3, r0
 349 00fc 114B     		ldr	r3, .L34
 350 00fe 0133     		adds	r3, r3, #1
 351 0100 1B19     		adds	r3, r3, r4
 352              	.LVL32:
 290:..\..\Cypress-PSOC-OLED-master\Cypress-PSOC-OLED-master\OLED.cydsn/ssd1306.c ****         uint8_t* pend = pstart + x2 - x1;
 353              		.loc 1 290 0
 354 0102 121A     		subs	r2, r2, r0
 355              	.LVL33:
 356 0104 9A18     		adds	r2, r3, r2
 357              	.LVL34:
 291:..\..\Cypress-PSOC-OLED-master\Cypress-PSOC-OLED-master\OLED.cydsn/ssd1306.c ****         uint8_t pixmask = GDDRAM_PIXMASK(y1);    
 358              		.loc 1 291 0
 359 0106 0720     		movs	r0, #7
 360              	.LVL35:
 361 0108 0140     		ands	r1, r0
 362              	.LVL36:
 363 010a 0638     		subs	r0, r0, #6
 364 010c 8840     		lsls	r0, r0, r1
 365 010e C4B2     		uxtb	r4, r0
 366              	.LVL37:
 292:..\..\Cypress-PSOC-OLED-master\Cypress-PSOC-OLED-master\OLED.cydsn/ssd1306.c **** 
 293:..\..\Cypress-PSOC-OLED-master\Cypress-PSOC-OLED-master\OLED.cydsn/ssd1306.c ****         uint8_t* ptr = pstart;
 294:..\..\Cypress-PSOC-OLED-master\Cypress-PSOC-OLED-master\OLED.cydsn/ssd1306.c ****         while( ptr <= pend ){
 367              		.loc 1 294 0
 368 0110 12E0     		b	.L27
 369              	.LVL38:
 370              	.L32:
 295:..\..\Cypress-PSOC-OLED-master\Cypress-PSOC-OLED-master\OLED.cydsn/ssd1306.c ****             switch( color ){
 371              		.loc 1 295 0
 372 0112 012D     		cmp	r5, #1
 373 0114 04D0     		beq	.L29
 374 0116 002D     		cmp	r5, #0
 375 0118 06D0     		beq	.L30
 376 011a 022D     		cmp	r5, #2
 377 011c 08D0     		beq	.L31
 378 011e 0AE0     		b	.L28
 379              	.L29:
 296:..\..\Cypress-PSOC-OLED-master\Cypress-PSOC-OLED-master\OLED.cydsn/ssd1306.c ****                 case WHITE:     *ptr |= pixmask; break;
 380              		.loc 1 296 0
 381 0120 1978     		ldrb	r1, [r3]
 382 0122 2143     		orrs	r1, r4
 383 0124 1970     		strb	r1, [r3]
 384 0126 06E0     		b	.L28
 385              	.L30:
 297:..\..\Cypress-PSOC-OLED-master\Cypress-PSOC-OLED-master\OLED.cydsn/ssd1306.c ****                 case BLACK:     *ptr &= ~pixmask; break;
 386              		.loc 1 297 0
ARM GAS  C:\Users\boise\AppData\Local\Temp\ccDu5XGS.s 			page 13


 387 0128 1978     		ldrb	r1, [r3]
 388 012a 8143     		bics	r1, r0
 389 012c 1970     		strb	r1, [r3]
 390 012e 02E0     		b	.L28
 391              	.L31:
 298:..\..\Cypress-PSOC-OLED-master\Cypress-PSOC-OLED-master\OLED.cydsn/ssd1306.c ****                 case INVERSE:   *ptr ^= pixmask; break;
 392              		.loc 1 298 0
 393 0130 1978     		ldrb	r1, [r3]
 394 0132 6140     		eors	r1, r4
 395 0134 1970     		strb	r1, [r3]
 396              	.L28:
 299:..\..\Cypress-PSOC-OLED-master\Cypress-PSOC-OLED-master\OLED.cydsn/ssd1306.c ****             };
 300:..\..\Cypress-PSOC-OLED-master\Cypress-PSOC-OLED-master\OLED.cydsn/ssd1306.c ****             ptr++;
 397              		.loc 1 300 0
 398 0136 0133     		adds	r3, r3, #1
 399              	.LVL39:
 400              	.L27:
 294:..\..\Cypress-PSOC-OLED-master\Cypress-PSOC-OLED-master\OLED.cydsn/ssd1306.c ****             switch( color ){
 401              		.loc 1 294 0
 402 0138 9342     		cmp	r3, r2
 403 013a EAD9     		bls	.L32
 404              	.LVL40:
 405              	.L8:
 406              	.LBE5:
 301:..\..\Cypress-PSOC-OLED-master\Cypress-PSOC-OLED-master\OLED.cydsn/ssd1306.c ****         }
 302:..\..\Cypress-PSOC-OLED-master\Cypress-PSOC-OLED-master\OLED.cydsn/ssd1306.c ****     }
 303:..\..\Cypress-PSOC-OLED-master\Cypress-PSOC-OLED-master\OLED.cydsn/ssd1306.c **** }
 407              		.loc 1 303 0
 408              		@ sp needed
 409 013c 04BC     		pop	{r2}
 410 013e 9046     		mov	r8, r2
 411 0140 F0BD     		pop	{r4, r5, r6, r7, pc}
 412              	.L35:
 413 0142 C046     		.align	2
 414              	.L34:
 415 0144 00000000 		.word	.LANCHOR0
 416 0148 07000080 		.word	-2147483641
 417              		.cfi_endproc
 418              	.LFE39:
 419              		.size	display_line, .-display_line
 420              		.section	.text.gfx_rotation_adjust,"ax",%progbits
 421              		.align	2
 422              		.code	16
 423              		.thumb_func
 424              		.type	gfx_rotation_adjust, %function
 425              	gfx_rotation_adjust:
 426              	.LFB52:
 304:..\..\Cypress-PSOC-OLED-master\Cypress-PSOC-OLED-master\OLED.cydsn/ssd1306.c **** 
 305:..\..\Cypress-PSOC-OLED-master\Cypress-PSOC-OLED-master\OLED.cydsn/ssd1306.c **** 
 306:..\..\Cypress-PSOC-OLED-master\Cypress-PSOC-OLED-master\OLED.cydsn/ssd1306.c **** 
 307:..\..\Cypress-PSOC-OLED-master\Cypress-PSOC-OLED-master\OLED.cydsn/ssd1306.c **** void display_stopscroll(void){
 308:..\..\Cypress-PSOC-OLED-master\Cypress-PSOC-OLED-master\OLED.cydsn/ssd1306.c **** 
 309:..\..\Cypress-PSOC-OLED-master\Cypress-PSOC-OLED-master\OLED.cydsn/ssd1306.c ****     uint8 cmdbuf[] = {
 310:..\..\Cypress-PSOC-OLED-master\Cypress-PSOC-OLED-master\OLED.cydsn/ssd1306.c ****         0x00,
 311:..\..\Cypress-PSOC-OLED-master\Cypress-PSOC-OLED-master\OLED.cydsn/ssd1306.c ****         SSD1306_DEACTIVATE_SCROLL
 312:..\..\Cypress-PSOC-OLED-master\Cypress-PSOC-OLED-master\OLED.cydsn/ssd1306.c ****     };
 313:..\..\Cypress-PSOC-OLED-master\Cypress-PSOC-OLED-master\OLED.cydsn/ssd1306.c ****     display_write_buf( cmdbuf, sizeof(cmdbuf) ); 
ARM GAS  C:\Users\boise\AppData\Local\Temp\ccDu5XGS.s 			page 14


 314:..\..\Cypress-PSOC-OLED-master\Cypress-PSOC-OLED-master\OLED.cydsn/ssd1306.c **** }
 315:..\..\Cypress-PSOC-OLED-master\Cypress-PSOC-OLED-master\OLED.cydsn/ssd1306.c **** 
 316:..\..\Cypress-PSOC-OLED-master\Cypress-PSOC-OLED-master\OLED.cydsn/ssd1306.c **** void display_scroll( SCROLL_AREA start, SCROLL_AREA end, SCROLL_DIR dir, SCROLL_SPEED speed ){
 317:..\..\Cypress-PSOC-OLED-master\Cypress-PSOC-OLED-master\OLED.cydsn/ssd1306.c ****    
 318:..\..\Cypress-PSOC-OLED-master\Cypress-PSOC-OLED-master\OLED.cydsn/ssd1306.c ****     uint8 cmdbuf[] = {
 319:..\..\Cypress-PSOC-OLED-master\Cypress-PSOC-OLED-master\OLED.cydsn/ssd1306.c ****         0x00,
 320:..\..\Cypress-PSOC-OLED-master\Cypress-PSOC-OLED-master\OLED.cydsn/ssd1306.c ****         dir,                    // 0x26 or 0x2a
 321:..\..\Cypress-PSOC-OLED-master\Cypress-PSOC-OLED-master\OLED.cydsn/ssd1306.c ****         0x00,                   // dummy byte
 322:..\..\Cypress-PSOC-OLED-master\Cypress-PSOC-OLED-master\OLED.cydsn/ssd1306.c ****         start,                  // start page
 323:..\..\Cypress-PSOC-OLED-master\Cypress-PSOC-OLED-master\OLED.cydsn/ssd1306.c ****         speed,                  // scroll step interval in terms of frame frequency 
 324:..\..\Cypress-PSOC-OLED-master\Cypress-PSOC-OLED-master\OLED.cydsn/ssd1306.c ****         end,                    // end page
 325:..\..\Cypress-PSOC-OLED-master\Cypress-PSOC-OLED-master\OLED.cydsn/ssd1306.c ****         0x00,                   // dummy byte
 326:..\..\Cypress-PSOC-OLED-master\Cypress-PSOC-OLED-master\OLED.cydsn/ssd1306.c ****         0xFF,                   // dummy byte
 327:..\..\Cypress-PSOC-OLED-master\Cypress-PSOC-OLED-master\OLED.cydsn/ssd1306.c ****         SSD1306_ACTIVATE_SCROLL // 0x2F
 328:..\..\Cypress-PSOC-OLED-master\Cypress-PSOC-OLED-master\OLED.cydsn/ssd1306.c ****     };
 329:..\..\Cypress-PSOC-OLED-master\Cypress-PSOC-OLED-master\OLED.cydsn/ssd1306.c ****     display_write_buf( cmdbuf, sizeof(cmdbuf) ); 
 330:..\..\Cypress-PSOC-OLED-master\Cypress-PSOC-OLED-master\OLED.cydsn/ssd1306.c **** }
 331:..\..\Cypress-PSOC-OLED-master\Cypress-PSOC-OLED-master\OLED.cydsn/ssd1306.c **** 
 332:..\..\Cypress-PSOC-OLED-master\Cypress-PSOC-OLED-master\OLED.cydsn/ssd1306.c **** 
 333:..\..\Cypress-PSOC-OLED-master\Cypress-PSOC-OLED-master\OLED.cydsn/ssd1306.c **** 
 334:..\..\Cypress-PSOC-OLED-master\Cypress-PSOC-OLED-master\OLED.cydsn/ssd1306.c **** // ============================================================
 335:..\..\Cypress-PSOC-OLED-master\Cypress-PSOC-OLED-master\OLED.cydsn/ssd1306.c **** // graphics library stuff
 336:..\..\Cypress-PSOC-OLED-master\Cypress-PSOC-OLED-master\OLED.cydsn/ssd1306.c **** 
 337:..\..\Cypress-PSOC-OLED-master\Cypress-PSOC-OLED-master\OLED.cydsn/ssd1306.c **** int16_t WIDTH, HEIGHT; // This is the 'raw' display w/h - never changes
 338:..\..\Cypress-PSOC-OLED-master\Cypress-PSOC-OLED-master\OLED.cydsn/ssd1306.c **** static int16_t _width, _height; // Display w/h as modified by current rotation
 339:..\..\Cypress-PSOC-OLED-master\Cypress-PSOC-OLED-master\OLED.cydsn/ssd1306.c **** static int16_t cursor_x, cursor_y;
 340:..\..\Cypress-PSOC-OLED-master\Cypress-PSOC-OLED-master\OLED.cydsn/ssd1306.c **** static uint16_t textcolor, textbgcolor;
 341:..\..\Cypress-PSOC-OLED-master\Cypress-PSOC-OLED-master\OLED.cydsn/ssd1306.c **** static uint8_t textsize;
 342:..\..\Cypress-PSOC-OLED-master\Cypress-PSOC-OLED-master\OLED.cydsn/ssd1306.c **** uint8_t rotation;
 343:..\..\Cypress-PSOC-OLED-master\Cypress-PSOC-OLED-master\OLED.cydsn/ssd1306.c **** uint8_t wrap; // If set, 'wrap' text at right edge of display
 344:..\..\Cypress-PSOC-OLED-master\Cypress-PSOC-OLED-master\OLED.cydsn/ssd1306.c **** 
 345:..\..\Cypress-PSOC-OLED-master\Cypress-PSOC-OLED-master\OLED.cydsn/ssd1306.c **** 
 346:..\..\Cypress-PSOC-OLED-master\Cypress-PSOC-OLED-master\OLED.cydsn/ssd1306.c **** 
 347:..\..\Cypress-PSOC-OLED-master\Cypress-PSOC-OLED-master\OLED.cydsn/ssd1306.c **** void gfx_init( int16_t width, int16_t height ){
 348:..\..\Cypress-PSOC-OLED-master\Cypress-PSOC-OLED-master\OLED.cydsn/ssd1306.c ****     WIDTH = width;
 349:..\..\Cypress-PSOC-OLED-master\Cypress-PSOC-OLED-master\OLED.cydsn/ssd1306.c ****     HEIGHT = height;
 350:..\..\Cypress-PSOC-OLED-master\Cypress-PSOC-OLED-master\OLED.cydsn/ssd1306.c ****     _width = WIDTH;
 351:..\..\Cypress-PSOC-OLED-master\Cypress-PSOC-OLED-master\OLED.cydsn/ssd1306.c ****     _height = HEIGHT;
 352:..\..\Cypress-PSOC-OLED-master\Cypress-PSOC-OLED-master\OLED.cydsn/ssd1306.c ****     
 353:..\..\Cypress-PSOC-OLED-master\Cypress-PSOC-OLED-master\OLED.cydsn/ssd1306.c ****     rotation = 0;
 354:..\..\Cypress-PSOC-OLED-master\Cypress-PSOC-OLED-master\OLED.cydsn/ssd1306.c ****     cursor_y = cursor_x = 0;
 355:..\..\Cypress-PSOC-OLED-master\Cypress-PSOC-OLED-master\OLED.cydsn/ssd1306.c ****     textsize = 1;
 356:..\..\Cypress-PSOC-OLED-master\Cypress-PSOC-OLED-master\OLED.cydsn/ssd1306.c ****     textcolor = textbgcolor = 0xFFFF;
 357:..\..\Cypress-PSOC-OLED-master\Cypress-PSOC-OLED-master\OLED.cydsn/ssd1306.c ****     wrap = 1;
 358:..\..\Cypress-PSOC-OLED-master\Cypress-PSOC-OLED-master\OLED.cydsn/ssd1306.c **** }
 359:..\..\Cypress-PSOC-OLED-master\Cypress-PSOC-OLED-master\OLED.cydsn/ssd1306.c **** 
 360:..\..\Cypress-PSOC-OLED-master\Cypress-PSOC-OLED-master\OLED.cydsn/ssd1306.c **** // Return the size of the display (per current rotation)
 361:..\..\Cypress-PSOC-OLED-master\Cypress-PSOC-OLED-master\OLED.cydsn/ssd1306.c **** int16_t gfx_width(void){
 362:..\..\Cypress-PSOC-OLED-master\Cypress-PSOC-OLED-master\OLED.cydsn/ssd1306.c ****     return _width;
 363:..\..\Cypress-PSOC-OLED-master\Cypress-PSOC-OLED-master\OLED.cydsn/ssd1306.c **** }
 364:..\..\Cypress-PSOC-OLED-master\Cypress-PSOC-OLED-master\OLED.cydsn/ssd1306.c **** 
 365:..\..\Cypress-PSOC-OLED-master\Cypress-PSOC-OLED-master\OLED.cydsn/ssd1306.c **** int16_t gfx_height(void){
 366:..\..\Cypress-PSOC-OLED-master\Cypress-PSOC-OLED-master\OLED.cydsn/ssd1306.c ****     return _height;
 367:..\..\Cypress-PSOC-OLED-master\Cypress-PSOC-OLED-master\OLED.cydsn/ssd1306.c **** }
 368:..\..\Cypress-PSOC-OLED-master\Cypress-PSOC-OLED-master\OLED.cydsn/ssd1306.c **** 
 369:..\..\Cypress-PSOC-OLED-master\Cypress-PSOC-OLED-master\OLED.cydsn/ssd1306.c **** uint8_t gfx_rotation(void){
 370:..\..\Cypress-PSOC-OLED-master\Cypress-PSOC-OLED-master\OLED.cydsn/ssd1306.c ****     return rotation;
ARM GAS  C:\Users\boise\AppData\Local\Temp\ccDu5XGS.s 			page 15


 371:..\..\Cypress-PSOC-OLED-master\Cypress-PSOC-OLED-master\OLED.cydsn/ssd1306.c **** }
 372:..\..\Cypress-PSOC-OLED-master\Cypress-PSOC-OLED-master\OLED.cydsn/ssd1306.c **** 
 373:..\..\Cypress-PSOC-OLED-master\Cypress-PSOC-OLED-master\OLED.cydsn/ssd1306.c **** void gfx_setCursor( int16_t x, int16_t y ){
 374:..\..\Cypress-PSOC-OLED-master\Cypress-PSOC-OLED-master\OLED.cydsn/ssd1306.c ****     cursor_x = x;
 375:..\..\Cypress-PSOC-OLED-master\Cypress-PSOC-OLED-master\OLED.cydsn/ssd1306.c ****     cursor_y = y;
 376:..\..\Cypress-PSOC-OLED-master\Cypress-PSOC-OLED-master\OLED.cydsn/ssd1306.c **** }
 377:..\..\Cypress-PSOC-OLED-master\Cypress-PSOC-OLED-master\OLED.cydsn/ssd1306.c **** 
 378:..\..\Cypress-PSOC-OLED-master\Cypress-PSOC-OLED-master\OLED.cydsn/ssd1306.c **** void gfx_setTextSize( uint8_t size ){
 379:..\..\Cypress-PSOC-OLED-master\Cypress-PSOC-OLED-master\OLED.cydsn/ssd1306.c ****     textsize = (size > 0) ? size : 1;
 380:..\..\Cypress-PSOC-OLED-master\Cypress-PSOC-OLED-master\OLED.cydsn/ssd1306.c **** }
 381:..\..\Cypress-PSOC-OLED-master\Cypress-PSOC-OLED-master\OLED.cydsn/ssd1306.c **** 
 382:..\..\Cypress-PSOC-OLED-master\Cypress-PSOC-OLED-master\OLED.cydsn/ssd1306.c **** void gfx_setTextColor( uint16_t color ){
 383:..\..\Cypress-PSOC-OLED-master\Cypress-PSOC-OLED-master\OLED.cydsn/ssd1306.c ****     // For 'transparent' background, we'll set the bg
 384:..\..\Cypress-PSOC-OLED-master\Cypress-PSOC-OLED-master\OLED.cydsn/ssd1306.c ****     // to the same as fg instead of using a flag
 385:..\..\Cypress-PSOC-OLED-master\Cypress-PSOC-OLED-master\OLED.cydsn/ssd1306.c ****     textcolor = textbgcolor = color;
 386:..\..\Cypress-PSOC-OLED-master\Cypress-PSOC-OLED-master\OLED.cydsn/ssd1306.c **** }
 387:..\..\Cypress-PSOC-OLED-master\Cypress-PSOC-OLED-master\OLED.cydsn/ssd1306.c **** 
 388:..\..\Cypress-PSOC-OLED-master\Cypress-PSOC-OLED-master\OLED.cydsn/ssd1306.c **** void gfx_setTextBg( uint16_t color ){
 389:..\..\Cypress-PSOC-OLED-master\Cypress-PSOC-OLED-master\OLED.cydsn/ssd1306.c ****     textbgcolor = color;
 390:..\..\Cypress-PSOC-OLED-master\Cypress-PSOC-OLED-master\OLED.cydsn/ssd1306.c **** }
 391:..\..\Cypress-PSOC-OLED-master\Cypress-PSOC-OLED-master\OLED.cydsn/ssd1306.c **** 
 392:..\..\Cypress-PSOC-OLED-master\Cypress-PSOC-OLED-master\OLED.cydsn/ssd1306.c **** void gfx_setTextWrap( uint8 w ){
 393:..\..\Cypress-PSOC-OLED-master\Cypress-PSOC-OLED-master\OLED.cydsn/ssd1306.c ****     wrap = w;
 394:..\..\Cypress-PSOC-OLED-master\Cypress-PSOC-OLED-master\OLED.cydsn/ssd1306.c **** }
 395:..\..\Cypress-PSOC-OLED-master\Cypress-PSOC-OLED-master\OLED.cydsn/ssd1306.c **** 
 396:..\..\Cypress-PSOC-OLED-master\Cypress-PSOC-OLED-master\OLED.cydsn/ssd1306.c **** void gfx_setRotation( uint8_t x ){
 397:..\..\Cypress-PSOC-OLED-master\Cypress-PSOC-OLED-master\OLED.cydsn/ssd1306.c ****     
 398:..\..\Cypress-PSOC-OLED-master\Cypress-PSOC-OLED-master\OLED.cydsn/ssd1306.c ****     rotation = (x & 3);
 399:..\..\Cypress-PSOC-OLED-master\Cypress-PSOC-OLED-master\OLED.cydsn/ssd1306.c ****     switch( rotation ){
 400:..\..\Cypress-PSOC-OLED-master\Cypress-PSOC-OLED-master\OLED.cydsn/ssd1306.c ****         case 0:
 401:..\..\Cypress-PSOC-OLED-master\Cypress-PSOC-OLED-master\OLED.cydsn/ssd1306.c ****         case 2:
 402:..\..\Cypress-PSOC-OLED-master\Cypress-PSOC-OLED-master\OLED.cydsn/ssd1306.c ****             _width = WIDTH;
 403:..\..\Cypress-PSOC-OLED-master\Cypress-PSOC-OLED-master\OLED.cydsn/ssd1306.c ****             _height = HEIGHT;
 404:..\..\Cypress-PSOC-OLED-master\Cypress-PSOC-OLED-master\OLED.cydsn/ssd1306.c ****             break;
 405:..\..\Cypress-PSOC-OLED-master\Cypress-PSOC-OLED-master\OLED.cydsn/ssd1306.c ****         case 1:
 406:..\..\Cypress-PSOC-OLED-master\Cypress-PSOC-OLED-master\OLED.cydsn/ssd1306.c ****         case 3:
 407:..\..\Cypress-PSOC-OLED-master\Cypress-PSOC-OLED-master\OLED.cydsn/ssd1306.c ****             _width = HEIGHT;
 408:..\..\Cypress-PSOC-OLED-master\Cypress-PSOC-OLED-master\OLED.cydsn/ssd1306.c ****             _height = WIDTH;
 409:..\..\Cypress-PSOC-OLED-master\Cypress-PSOC-OLED-master\OLED.cydsn/ssd1306.c ****         break;
 410:..\..\Cypress-PSOC-OLED-master\Cypress-PSOC-OLED-master\OLED.cydsn/ssd1306.c ****     }
 411:..\..\Cypress-PSOC-OLED-master\Cypress-PSOC-OLED-master\OLED.cydsn/ssd1306.c **** }
 412:..\..\Cypress-PSOC-OLED-master\Cypress-PSOC-OLED-master\OLED.cydsn/ssd1306.c **** 
 413:..\..\Cypress-PSOC-OLED-master\Cypress-PSOC-OLED-master\OLED.cydsn/ssd1306.c **** static void gfx_rotation_adjust( int16_t* px, int16_t* py ){
 427              		.loc 1 413 0
 428              		.cfi_startproc
 429              		@ args = 0, pretend = 0, frame = 0
 430              		@ frame_needed = 0, uses_anonymous_args = 0
 431              	.LVL41:
 432 0000 10B5     		push	{r4, lr}
 433              		.cfi_def_cfa_offset 8
 434              		.cfi_offset 4, -8
 435              		.cfi_offset 14, -4
 414:..\..\Cypress-PSOC-OLED-master\Cypress-PSOC-OLED-master\OLED.cydsn/ssd1306.c **** 
 415:..\..\Cypress-PSOC-OLED-master\Cypress-PSOC-OLED-master\OLED.cydsn/ssd1306.c ****     int16_t y0 = *py;
 436              		.loc 1 415 0
 437 0002 0023     		movs	r3, #0
 438 0004 CA5E     		ldrsh	r2, [r1, r3]
ARM GAS  C:\Users\boise\AppData\Local\Temp\ccDu5XGS.s 			page 16


 439              	.LVL42:
 416:..\..\Cypress-PSOC-OLED-master\Cypress-PSOC-OLED-master\OLED.cydsn/ssd1306.c ****     
 417:..\..\Cypress-PSOC-OLED-master\Cypress-PSOC-OLED-master\OLED.cydsn/ssd1306.c ****     switch( rotation ){
 440              		.loc 1 417 0
 441 0006 144B     		ldr	r3, .L41
 442 0008 1B78     		ldrb	r3, [r3]
 443 000a 022B     		cmp	r3, #2
 444 000c 0CD0     		beq	.L38
 445 000e 032B     		cmp	r3, #3
 446 0010 19D0     		beq	.L39
 447 0012 012B     		cmp	r3, #1
 448 0014 1FD1     		bne	.L36
 418:..\..\Cypress-PSOC-OLED-master\Cypress-PSOC-OLED-master\OLED.cydsn/ssd1306.c ****         case 1:
 419:..\..\Cypress-PSOC-OLED-master\Cypress-PSOC-OLED-master\OLED.cydsn/ssd1306.c ****             *py = *px;
 449              		.loc 1 419 0
 450 0016 0024     		movs	r4, #0
 451 0018 035F     		ldrsh	r3, [r0, r4]
 452 001a 0B80     		strh	r3, [r1]
 420:..\..\Cypress-PSOC-OLED-master\Cypress-PSOC-OLED-master\OLED.cydsn/ssd1306.c ****             *px = WIDTH - y0 - 1;
 453              		.loc 1 420 0
 454 001c 0F4B     		ldr	r3, .L41+4
 455 001e 1B88     		ldrh	r3, [r3]
 456 0020 9A1A     		subs	r2, r3, r2
 457              	.LVL43:
 458 0022 013A     		subs	r2, r2, #1
 459 0024 0280     		strh	r2, [r0]
 421:..\..\Cypress-PSOC-OLED-master\Cypress-PSOC-OLED-master\OLED.cydsn/ssd1306.c ****             break;
 460              		.loc 1 421 0
 461 0026 16E0     		b	.L36
 462              	.LVL44:
 463              	.L38:
 422:..\..\Cypress-PSOC-OLED-master\Cypress-PSOC-OLED-master\OLED.cydsn/ssd1306.c ****         case 2:
 423:..\..\Cypress-PSOC-OLED-master\Cypress-PSOC-OLED-master\OLED.cydsn/ssd1306.c ****             *px = WIDTH - *px - 1;
 464              		.loc 1 423 0
 465 0028 0023     		movs	r3, #0
 466 002a C25E     		ldrsh	r2, [r0, r3]
 467              	.LVL45:
 468 002c 0B4B     		ldr	r3, .L41+4
 469 002e 1B88     		ldrh	r3, [r3]
 470 0030 9B1A     		subs	r3, r3, r2
 471 0032 013B     		subs	r3, r3, #1
 472 0034 0380     		strh	r3, [r0]
 473              	.LVL46:
 424:..\..\Cypress-PSOC-OLED-master\Cypress-PSOC-OLED-master\OLED.cydsn/ssd1306.c ****             *py = HEIGHT - *py - 1;
 474              		.loc 1 424 0
 475 0036 0023     		movs	r3, #0
 476 0038 CA5E     		ldrsh	r2, [r1, r3]
 477 003a 094B     		ldr	r3, .L41+8
 478 003c 1B88     		ldrh	r3, [r3]
 479 003e 9B1A     		subs	r3, r3, r2
 480 0040 013B     		subs	r3, r3, #1
 481 0042 0B80     		strh	r3, [r1]
 425:..\..\Cypress-PSOC-OLED-master\Cypress-PSOC-OLED-master\OLED.cydsn/ssd1306.c ****             break;
 482              		.loc 1 425 0
 483 0044 07E0     		b	.L36
 484              	.LVL47:
 485              	.L39:
ARM GAS  C:\Users\boise\AppData\Local\Temp\ccDu5XGS.s 			page 17


 426:..\..\Cypress-PSOC-OLED-master\Cypress-PSOC-OLED-master\OLED.cydsn/ssd1306.c ****         case 3:
 427:..\..\Cypress-PSOC-OLED-master\Cypress-PSOC-OLED-master\OLED.cydsn/ssd1306.c ****             *py = HEIGHT - *px - 1;
 486              		.loc 1 427 0
 487 0046 0023     		movs	r3, #0
 488 0048 C45E     		ldrsh	r4, [r0, r3]
 489 004a 054B     		ldr	r3, .L41+8
 490 004c 1B88     		ldrh	r3, [r3]
 491 004e 1B1B     		subs	r3, r3, r4
 492 0050 013B     		subs	r3, r3, #1
 493 0052 0B80     		strh	r3, [r1]
 428:..\..\Cypress-PSOC-OLED-master\Cypress-PSOC-OLED-master\OLED.cydsn/ssd1306.c ****             *px = y0;
 494              		.loc 1 428 0
 495 0054 0280     		strh	r2, [r0]
 496              	.LVL48:
 497              	.L36:
 429:..\..\Cypress-PSOC-OLED-master\Cypress-PSOC-OLED-master\OLED.cydsn/ssd1306.c ****             break;
 430:..\..\Cypress-PSOC-OLED-master\Cypress-PSOC-OLED-master\OLED.cydsn/ssd1306.c ****     }
 431:..\..\Cypress-PSOC-OLED-master\Cypress-PSOC-OLED-master\OLED.cydsn/ssd1306.c **** }
 498              		.loc 1 431 0
 499              		@ sp needed
 500 0056 10BD     		pop	{r4, pc}
 501              	.L42:
 502              		.align	2
 503              	.L41:
 504 0058 00000000 		.word	rotation
 505 005c 00000000 		.word	WIDTH
 506 0060 00000000 		.word	HEIGHT
 507              		.cfi_endproc
 508              	.LFE52:
 509              		.size	gfx_rotation_adjust, .-gfx_rotation_adjust
 510              		.section	.text.gfx_hvLine,"ax",%progbits
 511              		.align	2
 512              		.code	16
 513              		.thumb_func
 514              		.type	gfx_hvLine, %function
 515              	gfx_hvLine:
 516              	.LFB54:
 432:..\..\Cypress-PSOC-OLED-master\Cypress-PSOC-OLED-master\OLED.cydsn/ssd1306.c **** 
 433:..\..\Cypress-PSOC-OLED-master\Cypress-PSOC-OLED-master\OLED.cydsn/ssd1306.c **** void gfx_drawPixel( int16_t x, int16_t y, uint16_t color ){
 434:..\..\Cypress-PSOC-OLED-master\Cypress-PSOC-OLED-master\OLED.cydsn/ssd1306.c ****     
 435:..\..\Cypress-PSOC-OLED-master\Cypress-PSOC-OLED-master\OLED.cydsn/ssd1306.c ****     if( (x < 0) || (x >= _width) || (y < 0) || (y >= _height) )
 436:..\..\Cypress-PSOC-OLED-master\Cypress-PSOC-OLED-master\OLED.cydsn/ssd1306.c ****         return;
 437:..\..\Cypress-PSOC-OLED-master\Cypress-PSOC-OLED-master\OLED.cydsn/ssd1306.c ****     
 438:..\..\Cypress-PSOC-OLED-master\Cypress-PSOC-OLED-master\OLED.cydsn/ssd1306.c ****     gfx_rotation_adjust( &x, &y );
 439:..\..\Cypress-PSOC-OLED-master\Cypress-PSOC-OLED-master\OLED.cydsn/ssd1306.c **** 
 440:..\..\Cypress-PSOC-OLED-master\Cypress-PSOC-OLED-master\OLED.cydsn/ssd1306.c ****     display_setPixel(x,y,color);
 441:..\..\Cypress-PSOC-OLED-master\Cypress-PSOC-OLED-master\OLED.cydsn/ssd1306.c **** }
 442:..\..\Cypress-PSOC-OLED-master\Cypress-PSOC-OLED-master\OLED.cydsn/ssd1306.c **** 
 443:..\..\Cypress-PSOC-OLED-master\Cypress-PSOC-OLED-master\OLED.cydsn/ssd1306.c **** // helper function for gfx_drawLine, handles special cases of horizontal and vertical lines
 444:..\..\Cypress-PSOC-OLED-master\Cypress-PSOC-OLED-master\OLED.cydsn/ssd1306.c **** static void gfx_hvLine( int16_t x1, int16_t y1, int16_t x2, int16_t y2, uint16_t color ){
 517              		.loc 1 444 0
 518              		.cfi_startproc
 519              		@ args = 4, pretend = 0, frame = 8
 520              		@ frame_needed = 0, uses_anonymous_args = 0
 521              	.LVL49:
 522 0000 70B5     		push	{r4, r5, r6, lr}
 523              		.cfi_def_cfa_offset 16
ARM GAS  C:\Users\boise\AppData\Local\Temp\ccDu5XGS.s 			page 18


 524              		.cfi_offset 4, -16
 525              		.cfi_offset 5, -12
 526              		.cfi_offset 6, -8
 527              		.cfi_offset 14, -4
 528 0002 84B0     		sub	sp, sp, #16
 529              		.cfi_def_cfa_offset 32
 530 0004 08AC     		add	r4, sp, #32
 531              	.LVL50:
 532 0006 2488     		ldrh	r4, [r4]
 533              	.LVL51:
 534 0008 0E25     		movs	r5, #14
 535 000a 6D44     		add	r5, r5, sp
 536 000c 2880     		strh	r0, [r5]
 537 000e 03AD     		add	r5, sp, #12
 538 0010 2980     		strh	r1, [r5]
 539 0012 0A21     		movs	r1, #10
 540              	.LVL52:
 541 0014 6944     		add	r1, r1, sp
 542 0016 0A80     		strh	r2, [r1]
 543 0018 02A9     		add	r1, sp, #8
 544 001a 0B80     		strh	r3, [r1]
 445:..\..\Cypress-PSOC-OLED-master\Cypress-PSOC-OLED-master\OLED.cydsn/ssd1306.c ****     
 446:..\..\Cypress-PSOC-OLED-master\Cypress-PSOC-OLED-master\OLED.cydsn/ssd1306.c ****     if( x1 != x2 && y1 != y2 ){
 545              		.loc 1 446 0
 546 001c 9042     		cmp	r0, r2
 547 001e 08D0     		beq	.L44
 548              		.loc 1 446 0 is_stmt 0 discriminator 1
 549 0020 2B00     		movs	r3, r5
 550              	.LVL53:
 551 0022 0021     		movs	r1, #0
 552 0024 595E     		ldrsh	r1, [r3, r1]
 553              	.LVL54:
 554 0026 02AB     		add	r3, sp, #8
 555              	.LVL55:
 556 0028 0025     		movs	r5, #0
 557 002a 5B5F     		ldrsh	r3, [r3, r5]
 558              	.LVL56:
 559 002c 9942     		cmp	r1, r3
 560 002e 00D0     		beq	.LCB590
 561 0030 80E0     		b	.L43	@long jump
 562              	.LCB590:
 563              	.L44:
 447:..\..\Cypress-PSOC-OLED-master\Cypress-PSOC-OLED-master\OLED.cydsn/ssd1306.c ****         // neither vertical nor horizontal
 448:..\..\Cypress-PSOC-OLED-master\Cypress-PSOC-OLED-master\OLED.cydsn/ssd1306.c ****         return;
 449:..\..\Cypress-PSOC-OLED-master\Cypress-PSOC-OLED-master\OLED.cydsn/ssd1306.c ****     }    
 450:..\..\Cypress-PSOC-OLED-master\Cypress-PSOC-OLED-master\OLED.cydsn/ssd1306.c ****     
 451:..\..\Cypress-PSOC-OLED-master\Cypress-PSOC-OLED-master\OLED.cydsn/ssd1306.c ****     // bounds check
 452:..\..\Cypress-PSOC-OLED-master\Cypress-PSOC-OLED-master\OLED.cydsn/ssd1306.c ****     if( rotation == 1 || rotation == 3 ){
 564              		.loc 1 452 0 is_stmt 1
 565 0032 414B     		ldr	r3, .L52
 566 0034 1B78     		ldrb	r3, [r3]
 567 0036 012B     		cmp	r3, #1
 568 0038 01D0     		beq	.L46
 569              		.loc 1 452 0 is_stmt 0 discriminator 1
 570 003a 032B     		cmp	r3, #3
 571 003c 1CD1     		bne	.L47
 572              	.L46:
ARM GAS  C:\Users\boise\AppData\Local\Temp\ccDu5XGS.s 			page 19


 453:..\..\Cypress-PSOC-OLED-master\Cypress-PSOC-OLED-master\OLED.cydsn/ssd1306.c ****         if( x1 < 0 || x1 >= HEIGHT || x2 < 0 || x2 >= HEIGHT )
 573              		.loc 1 453 0 is_stmt 1
 574 003e 0028     		cmp	r0, #0
 575 0040 78DB     		blt	.L43
 576              		.loc 1 453 0 is_stmt 0 discriminator 1
 577 0042 3E4B     		ldr	r3, .L52+4
 578 0044 0021     		movs	r1, #0
 579 0046 5B5E     		ldrsh	r3, [r3, r1]
 580 0048 9842     		cmp	r0, r3
 581 004a 73DA     		bge	.L43
 582              		.loc 1 453 0 discriminator 2
 583 004c 002A     		cmp	r2, #0
 584 004e 71DB     		blt	.L43
 585              		.loc 1 453 0 discriminator 3
 586 0050 9A42     		cmp	r2, r3
 587 0052 6FDA     		bge	.L43
 454:..\..\Cypress-PSOC-OLED-master\Cypress-PSOC-OLED-master\OLED.cydsn/ssd1306.c ****             return;
 455:..\..\Cypress-PSOC-OLED-master\Cypress-PSOC-OLED-master\OLED.cydsn/ssd1306.c ****         if( y1 < 0 || y1 >= WIDTH || y2 < 0 || y2 >= WIDTH )
 588              		.loc 1 455 0 is_stmt 1
 589 0054 03AB     		add	r3, sp, #12
 590              	.LVL57:
 591 0056 0022     		movs	r2, #0
 592 0058 9B5E     		ldrsh	r3, [r3, r2]
 593              	.LVL58:
 594 005a 002B     		cmp	r3, #0
 595 005c 6ADB     		blt	.L43
 596              		.loc 1 455 0 is_stmt 0 discriminator 1
 597 005e 384A     		ldr	r2, .L52+8
 598 0060 0021     		movs	r1, #0
 599 0062 525E     		ldrsh	r2, [r2, r1]
 600 0064 9342     		cmp	r3, r2
 601 0066 65DA     		bge	.L43
 602              		.loc 1 455 0 discriminator 2
 603 0068 02AB     		add	r3, sp, #8
 604              	.LVL59:
 605 006a 0021     		movs	r1, #0
 606 006c 5B5E     		ldrsh	r3, [r3, r1]
 607              	.LVL60:
 608 006e 002B     		cmp	r3, #0
 609 0070 60DB     		blt	.L43
 610              		.loc 1 455 0 discriminator 3
 611 0072 9A42     		cmp	r2, r3
 612 0074 1CDC     		bgt	.L48
 613 0076 5DE0     		b	.L43
 614              	.LVL61:
 615              	.L47:
 456:..\..\Cypress-PSOC-OLED-master\Cypress-PSOC-OLED-master\OLED.cydsn/ssd1306.c ****             return;
 457:..\..\Cypress-PSOC-OLED-master\Cypress-PSOC-OLED-master\OLED.cydsn/ssd1306.c ****     }else{
 458:..\..\Cypress-PSOC-OLED-master\Cypress-PSOC-OLED-master\OLED.cydsn/ssd1306.c ****         if( y1 < 0 || y1 >= HEIGHT || y2 < 0 || y2 >= HEIGHT )
 616              		.loc 1 458 0 is_stmt 1
 617 0078 03AB     		add	r3, sp, #12
 618              	.LVL62:
 619 007a 0021     		movs	r1, #0
 620 007c 5B5E     		ldrsh	r3, [r3, r1]
 621              	.LVL63:
 622 007e 002B     		cmp	r3, #0
 623 0080 58DB     		blt	.L43
ARM GAS  C:\Users\boise\AppData\Local\Temp\ccDu5XGS.s 			page 20


 624              		.loc 1 458 0 is_stmt 0 discriminator 1
 625 0082 2E49     		ldr	r1, .L52+4
 626 0084 0025     		movs	r5, #0
 627 0086 495F     		ldrsh	r1, [r1, r5]
 628 0088 8B42     		cmp	r3, r1
 629 008a 53DA     		bge	.L43
 630              		.loc 1 458 0 discriminator 2
 631 008c 02AB     		add	r3, sp, #8
 632              	.LVL64:
 633 008e 0025     		movs	r5, #0
 634 0090 5B5F     		ldrsh	r3, [r3, r5]
 635              	.LVL65:
 636 0092 002B     		cmp	r3, #0
 637 0094 4EDB     		blt	.L43
 638              		.loc 1 458 0 discriminator 3
 639 0096 9942     		cmp	r1, r3
 640 0098 4CDD     		ble	.L43
 459:..\..\Cypress-PSOC-OLED-master\Cypress-PSOC-OLED-master\OLED.cydsn/ssd1306.c ****             return;
 460:..\..\Cypress-PSOC-OLED-master\Cypress-PSOC-OLED-master\OLED.cydsn/ssd1306.c ****         if( x1 < 0 || x1 >= WIDTH || x2 < 0 || x2 >= WIDTH )
 641              		.loc 1 460 0 is_stmt 1
 642 009a 0028     		cmp	r0, #0
 643 009c 4ADB     		blt	.L43
 644              		.loc 1 460 0 is_stmt 0 discriminator 1
 645 009e 284B     		ldr	r3, .L52+8
 646 00a0 0021     		movs	r1, #0
 647 00a2 5B5E     		ldrsh	r3, [r3, r1]
 648 00a4 9842     		cmp	r0, r3
 649 00a6 45DA     		bge	.L43
 650              		.loc 1 460 0 discriminator 2
 651 00a8 002A     		cmp	r2, #0
 652 00aa 43DB     		blt	.L43
 653              		.loc 1 460 0 discriminator 3
 654 00ac 9A42     		cmp	r2, r3
 655 00ae 41DA     		bge	.L43
 656              	.LVL66:
 657              	.L48:
 461:..\..\Cypress-PSOC-OLED-master\Cypress-PSOC-OLED-master\OLED.cydsn/ssd1306.c ****             return;
 462:..\..\Cypress-PSOC-OLED-master\Cypress-PSOC-OLED-master\OLED.cydsn/ssd1306.c ****     }
 463:..\..\Cypress-PSOC-OLED-master\Cypress-PSOC-OLED-master\OLED.cydsn/ssd1306.c ****     
 464:..\..\Cypress-PSOC-OLED-master\Cypress-PSOC-OLED-master\OLED.cydsn/ssd1306.c ****     gfx_rotation_adjust( &x1, &y1 );
 658              		.loc 1 464 0 is_stmt 1
 659 00b0 0E26     		movs	r6, #14
 660 00b2 6E44     		add	r6, r6, sp
 661 00b4 03A9     		add	r1, sp, #12
 662              	.LVL67:
 663 00b6 3000     		movs	r0, r6
 664              	.LVL68:
 665 00b8 FFF7FEFF 		bl	gfx_rotation_adjust
 666              	.LVL69:
 465:..\..\Cypress-PSOC-OLED-master\Cypress-PSOC-OLED-master\OLED.cydsn/ssd1306.c ****     gfx_rotation_adjust( &x2, &y2 );
 667              		.loc 1 465 0
 668 00bc 0A25     		movs	r5, #10
 669              	.LVL70:
 670 00be 6D44     		add	r5, r5, sp
 671              	.LVL71:
 672 00c0 02A9     		add	r1, sp, #8
 673              	.LVL72:
ARM GAS  C:\Users\boise\AppData\Local\Temp\ccDu5XGS.s 			page 21


 674 00c2 2800     		movs	r0, r5
 675 00c4 FFF7FEFF 		bl	gfx_rotation_adjust
 676              	.LVL73:
 466:..\..\Cypress-PSOC-OLED-master\Cypress-PSOC-OLED-master\OLED.cydsn/ssd1306.c ****     
 467:..\..\Cypress-PSOC-OLED-master\Cypress-PSOC-OLED-master\OLED.cydsn/ssd1306.c ****     // ensure coords are from left to right and top to bottom
 468:..\..\Cypress-PSOC-OLED-master\Cypress-PSOC-OLED-master\OLED.cydsn/ssd1306.c ****     if( (x1 == x2 && y2 < y1) || (y1 == y2 && x2 < x1) ){
 677              		.loc 1 468 0
 678 00c8 0022     		movs	r2, #0
 679 00ca B35E     		ldrsh	r3, [r6, r2]
 680 00cc 0021     		movs	r1, #0
 681 00ce 6A5E     		ldrsh	r2, [r5, r1]
 682 00d0 9342     		cmp	r3, r2
 683 00d2 07D1     		bne	.L49
 684              		.loc 1 468 0 is_stmt 0 discriminator 1
 685 00d4 02A9     		add	r1, sp, #8
 686              	.LVL74:
 687 00d6 0020     		movs	r0, #0
 688 00d8 085E     		ldrsh	r0, [r1, r0]
 689              	.LVL75:
 690 00da 03A9     		add	r1, sp, #12
 691              	.LVL76:
 692 00dc 0025     		movs	r5, #0
 693 00de 495F     		ldrsh	r1, [r1, r5]
 694              	.LVL77:
 695 00e0 8842     		cmp	r0, r1
 696 00e2 09DB     		blt	.L50
 697              	.L49:
 698              		.loc 1 468 0 discriminator 3
 699 00e4 03A9     		add	r1, sp, #12
 700              	.LVL78:
 701 00e6 0020     		movs	r0, #0
 702 00e8 085E     		ldrsh	r0, [r1, r0]
 703              	.LVL79:
 704 00ea 02A9     		add	r1, sp, #8
 705              	.LVL80:
 706 00ec 0025     		movs	r5, #0
 707 00ee 495F     		ldrsh	r1, [r1, r5]
 708              	.LVL81:
 709 00f0 8842     		cmp	r0, r1
 710 00f2 0ED1     		bne	.L51
 711              		.loc 1 468 0 discriminator 4
 712 00f4 9342     		cmp	r3, r2
 713 00f6 0CDD     		ble	.L51
 714              	.L50:
 715              	.LVL82:
 716              	.LBB6:
 469:..\..\Cypress-PSOC-OLED-master\Cypress-PSOC-OLED-master\OLED.cydsn/ssd1306.c ****         // swap as needed
 470:..\..\Cypress-PSOC-OLED-master\Cypress-PSOC-OLED-master\OLED.cydsn/ssd1306.c ****         int16_t t = x1; x1 = x2; x2 = t;
 717              		.loc 1 470 0 is_stmt 1
 718 00f8 0E21     		movs	r1, #14
 719              	.LVL83:
 720 00fa 6944     		add	r1, r1, sp
 721              	.LVL84:
 722 00fc 0A80     		strh	r2, [r1]
 723 00fe 0A22     		movs	r2, #10
 724              	.LVL85:
 725 0100 6A44     		add	r2, r2, sp
ARM GAS  C:\Users\boise\AppData\Local\Temp\ccDu5XGS.s 			page 22


 726              	.LVL86:
 727 0102 1380     		strh	r3, [r2]
 471:..\..\Cypress-PSOC-OLED-master\Cypress-PSOC-OLED-master\OLED.cydsn/ssd1306.c ****         t = y1; y1 = y2; y2 = t;
 728              		.loc 1 471 0
 729 0104 03AA     		add	r2, sp, #12
 730              	.LVL87:
 731 0106 0023     		movs	r3, #0
 732 0108 D15E     		ldrsh	r1, [r2, r3]
 733              	.LVL88:
 734 010a 02AB     		add	r3, sp, #8
 735              	.LVL89:
 736 010c 1888     		ldrh	r0, [r3]
 737 010e 1080     		strh	r0, [r2]
 738 0110 1980     		strh	r1, [r3]
 739              	.LVL90:
 740              	.L51:
 741              	.LBE6:
 472:..\..\Cypress-PSOC-OLED-master\Cypress-PSOC-OLED-master\OLED.cydsn/ssd1306.c ****     }
 473:..\..\Cypress-PSOC-OLED-master\Cypress-PSOC-OLED-master\OLED.cydsn/ssd1306.c ****     
 474:..\..\Cypress-PSOC-OLED-master\Cypress-PSOC-OLED-master\OLED.cydsn/ssd1306.c ****     display_line( x1, y1, x2, y2, color );
 742              		.loc 1 474 0
 743 0112 02AB     		add	r3, sp, #8
 744              	.LVL91:
 745 0114 0022     		movs	r2, #0
 746 0116 9B5E     		ldrsh	r3, [r3, r2]
 747              	.LVL92:
 748 0118 0A22     		movs	r2, #10
 749              	.LVL93:
 750 011a 6A44     		add	r2, r2, sp
 751              	.LVL94:
 752 011c 0021     		movs	r1, #0
 753 011e 525E     		ldrsh	r2, [r2, r1]
 754 0120 03A9     		add	r1, sp, #12
 755              	.LVL95:
 756 0122 0020     		movs	r0, #0
 757 0124 095E     		ldrsh	r1, [r1, r0]
 758              	.LVL96:
 759 0126 0E20     		movs	r0, #14
 760              	.LVL97:
 761 0128 6844     		add	r0, r0, sp
 762              	.LVL98:
 763 012a 0025     		movs	r5, #0
 764 012c 405F     		ldrsh	r0, [r0, r5]
 765 012e 0094     		str	r4, [sp]
 766 0130 FFF7FEFF 		bl	display_line
 767              	.LVL99:
 768              	.L43:
 475:..\..\Cypress-PSOC-OLED-master\Cypress-PSOC-OLED-master\OLED.cydsn/ssd1306.c **** }
 769              		.loc 1 475 0
 770 0134 04B0     		add	sp, sp, #16
 771              		@ sp needed
 772 0136 70BD     		pop	{r4, r5, r6, pc}
 773              	.L53:
 774              		.align	2
 775              	.L52:
 776 0138 00000000 		.word	rotation
 777 013c 00000000 		.word	HEIGHT
ARM GAS  C:\Users\boise\AppData\Local\Temp\ccDu5XGS.s 			page 23


 778 0140 00000000 		.word	WIDTH
 779              		.cfi_endproc
 780              	.LFE54:
 781              		.size	gfx_hvLine, .-gfx_hvLine
 782              		.section	.text.display_write_buf,"ax",%progbits
 783              		.align	2
 784              		.code	16
 785              		.thumb_func
 786              		.type	display_write_buf, %function
 787              	display_write_buf:
 788              	.LFB33:
 158:..\..\Cypress-PSOC-OLED-master\Cypress-PSOC-OLED-master\OLED.cydsn/ssd1306.c **** 
 789              		.loc 1 158 0
 790              		.cfi_startproc
 791              		@ args = 0, pretend = 0, frame = 0
 792              		@ frame_needed = 0, uses_anonymous_args = 0
 793              	.LVL100:
 794 0000 70B5     		push	{r4, r5, r6, lr}
 795              		.cfi_def_cfa_offset 16
 796              		.cfi_offset 4, -16
 797              		.cfi_offset 5, -12
 798              		.cfi_offset 6, -8
 799              		.cfi_offset 14, -4
 800 0002 0500     		movs	r5, r0
 801 0004 0C00     		movs	r4, r1
 802              	.LVL101:
 162:..\..\Cypress-PSOC-OLED-master\Cypress-PSOC-OLED-master\OLED.cydsn/ssd1306.c ****     while( 0u == (I2C_I2CMasterStatus() & I2C_I2C_MSTAT_WR_CMPLT) );
 803              		.loc 1 162 0
 804 0006 0E4B     		ldr	r3, .L59
 805 0008 1878     		ldrb	r0, [r3]
 806              	.LVL102:
 807 000a 0023     		movs	r3, #0
 808 000c 0A00     		movs	r2, r1
 809 000e 2900     		movs	r1, r5
 810              	.LVL103:
 811 0010 FFF7FEFF 		bl	I2C_I2CMasterWriteBuf
 812              	.LVL104:
 813              	.L55:
 163:..\..\Cypress-PSOC-OLED-master\Cypress-PSOC-OLED-master\OLED.cydsn/ssd1306.c **** 
 814              		.loc 1 163 0 discriminator 1
 815 0014 FFF7FEFF 		bl	I2C_I2CMasterStatus
 816              	.LVL105:
 817 0018 8307     		lsls	r3, r0, #30
 818 001a FBD5     		bpl	.L55
 165:..\..\Cypress-PSOC-OLED-master\Cypress-PSOC-OLED-master\OLED.cydsn/ssd1306.c ****         // Check if all bytes was written 
 819              		.loc 1 165 0
 820 001c FFF7FEFF 		bl	I2C_I2CMasterStatus
 821              	.LVL106:
 822 0020 8305     		lsls	r3, r0, #22
 823 0022 05D4     		bmi	.L57
 167:..\..\Cypress-PSOC-OLED-master\Cypress-PSOC-OLED-master\OLED.cydsn/ssd1306.c ****             status = TRANSFER_CMPLT;
 824              		.loc 1 167 0
 825 0024 FFF7FEFF 		bl	I2C_I2CMasterGetWriteBufSize
 826              	.LVL107:
 827 0028 8442     		cmp	r4, r0
 828 002a 03D0     		beq	.L58
 160:..\..\Cypress-PSOC-OLED-master\Cypress-PSOC-OLED-master\OLED.cydsn/ssd1306.c **** 
ARM GAS  C:\Users\boise\AppData\Local\Temp\ccDu5XGS.s 			page 24


 829              		.loc 1 160 0
 830 002c FF24     		movs	r4, #255
 831 002e 02E0     		b	.L56
 832              	.L57:
 833 0030 FF24     		movs	r4, #255
 834 0032 00E0     		b	.L56
 835              	.L58:
 168:..\..\Cypress-PSOC-OLED-master\Cypress-PSOC-OLED-master\OLED.cydsn/ssd1306.c ****         }
 836              		.loc 1 168 0
 837 0034 0024     		movs	r4, #0
 838              	.L56:
 839              	.LVL108:
 171:..\..\Cypress-PSOC-OLED-master\Cypress-PSOC-OLED-master\OLED.cydsn/ssd1306.c **** 
 840              		.loc 1 171 0
 841 0036 FFF7FEFF 		bl	I2C_I2CMasterClearStatus
 842              	.LVL109:
 174:..\..\Cypress-PSOC-OLED-master\Cypress-PSOC-OLED-master\OLED.cydsn/ssd1306.c **** 
 843              		.loc 1 174 0
 844 003a 2000     		movs	r0, r4
 845              		@ sp needed
 846              	.LVL110:
 847              	.LVL111:
 848 003c 70BD     		pop	{r4, r5, r6, pc}
 849              	.L60:
 850 003e C046     		.align	2
 851              	.L59:
 852 0040 00000000 		.word	.LANCHOR1
 853              		.cfi_endproc
 854              	.LFE33:
 855              		.size	display_write_buf, .-display_write_buf
 856              		.section	.text.display_clear,"ax",%progbits
 857              		.align	2
 858              		.global	display_clear
 859              		.code	16
 860              		.thumb_func
 861              		.type	display_clear, %function
 862              	display_clear:
 863              	.LFB35:
 197:..\..\Cypress-PSOC-OLED-master\Cypress-PSOC-OLED-master\OLED.cydsn/ssd1306.c ****     memset( _displaybuf, 0, _displaybuf_size );
 864              		.loc 1 197 0
 865              		.cfi_startproc
 866              		@ args = 0, pretend = 0, frame = 0
 867              		@ frame_needed = 0, uses_anonymous_args = 0
 868 0000 10B5     		push	{r4, lr}
 869              		.cfi_def_cfa_offset 8
 870              		.cfi_offset 4, -8
 871              		.cfi_offset 14, -4
 198:..\..\Cypress-PSOC-OLED-master\Cypress-PSOC-OLED-master\OLED.cydsn/ssd1306.c ****     SSD1306_buffer[0] = 0x40; // to be sure its there
 872              		.loc 1 198 0
 873 0002 054C     		ldr	r4, .L62
 874 0004 601C     		adds	r0, r4, #1
 875 0006 8022     		movs	r2, #128
 876 0008 D200     		lsls	r2, r2, #3
 877 000a 0021     		movs	r1, #0
 878 000c FFF7FEFF 		bl	memset
 879              	.LVL112:
 199:..\..\Cypress-PSOC-OLED-master\Cypress-PSOC-OLED-master\OLED.cydsn/ssd1306.c **** }
ARM GAS  C:\Users\boise\AppData\Local\Temp\ccDu5XGS.s 			page 25


 880              		.loc 1 199 0
 881 0010 4023     		movs	r3, #64
 882 0012 2370     		strb	r3, [r4]
 200:..\..\Cypress-PSOC-OLED-master\Cypress-PSOC-OLED-master\OLED.cydsn/ssd1306.c **** 
 883              		.loc 1 200 0
 884              		@ sp needed
 885 0014 10BD     		pop	{r4, pc}
 886              	.L63:
 887 0016 C046     		.align	2
 888              	.L62:
 889 0018 00000000 		.word	.LANCHOR0
 890              		.cfi_endproc
 891              	.LFE35:
 892              		.size	display_clear, .-display_clear
 893              		.section	.text.display_contrast,"ax",%progbits
 894              		.align	2
 895              		.global	display_contrast
 896              		.code	16
 897              		.thumb_func
 898              		.type	display_contrast, %function
 899              	display_contrast:
 900              	.LFB36:
 204:..\..\Cypress-PSOC-OLED-master\Cypress-PSOC-OLED-master\OLED.cydsn/ssd1306.c ****         
 901              		.loc 1 204 0
 902              		.cfi_startproc
 903              		@ args = 0, pretend = 0, frame = 8
 904              		@ frame_needed = 0, uses_anonymous_args = 0
 905              	.LVL113:
 906 0000 00B5     		push	{lr}
 907              		.cfi_def_cfa_offset 4
 908              		.cfi_offset 14, -4
 909 0002 83B0     		sub	sp, sp, #12
 910              		.cfi_def_cfa_offset 16
 206:..\..\Cypress-PSOC-OLED-master\Cypress-PSOC-OLED-master\OLED.cydsn/ssd1306.c ****         0x00,  
 911              		.loc 1 206 0
 912 0004 01AB     		add	r3, sp, #4
 913 0006 0022     		movs	r2, #0
 914 0008 1A70     		strb	r2, [r3]
 915 000a 8132     		adds	r2, r2, #129
 916 000c 5A70     		strb	r2, [r3, #1]
 917 000e 9870     		strb	r0, [r3, #2]
 211:..\..\Cypress-PSOC-OLED-master\Cypress-PSOC-OLED-master\OLED.cydsn/ssd1306.c **** }
 918              		.loc 1 211 0
 919 0010 0321     		movs	r1, #3
 920 0012 1800     		movs	r0, r3
 921              	.LVL114:
 922 0014 FFF7FEFF 		bl	display_write_buf
 923              	.LVL115:
 212:..\..\Cypress-PSOC-OLED-master\Cypress-PSOC-OLED-master\OLED.cydsn/ssd1306.c **** 
 924              		.loc 1 212 0
 925 0018 03B0     		add	sp, sp, #12
 926              		@ sp needed
 927 001a 00BD     		pop	{pc}
 928              		.cfi_endproc
 929              	.LFE36:
 930              		.size	display_contrast, .-display_contrast
 931              		.section	.text.display_invert,"ax",%progbits
ARM GAS  C:\Users\boise\AppData\Local\Temp\ccDu5XGS.s 			page 26


 932              		.align	2
 933              		.global	display_invert
 934              		.code	16
 935              		.thumb_func
 936              		.type	display_invert, %function
 937              	display_invert:
 938              	.LFB37:
 216:..\..\Cypress-PSOC-OLED-master\Cypress-PSOC-OLED-master\OLED.cydsn/ssd1306.c **** 
 939              		.loc 1 216 0
 940              		.cfi_startproc
 941              		@ args = 0, pretend = 0, frame = 8
 942              		@ frame_needed = 0, uses_anonymous_args = 0
 943              	.LVL116:
 944 0000 00B5     		push	{lr}
 945              		.cfi_def_cfa_offset 4
 946              		.cfi_offset 14, -4
 947 0002 83B0     		sub	sp, sp, #12
 948              		.cfi_def_cfa_offset 16
 218:..\..\Cypress-PSOC-OLED-master\Cypress-PSOC-OLED-master\OLED.cydsn/ssd1306.c ****         0x00,  
 949              		.loc 1 218 0
 950 0004 0022     		movs	r2, #0
 951 0006 01AB     		add	r3, sp, #4
 952 0008 1A70     		strb	r2, [r3]
 222:..\..\Cypress-PSOC-OLED-master\Cypress-PSOC-OLED-master\OLED.cydsn/ssd1306.c ****     display_write_buf( cmdbuf, sizeof(cmdbuf) ); 
 953              		.loc 1 222 0
 954 000a 0028     		cmp	r0, #0
 955 000c 01D0     		beq	.L67
 956 000e A723     		movs	r3, #167
 957 0010 00E0     		b	.L66
 958              	.L67:
 959 0012 A623     		movs	r3, #166
 960              	.L66:
 222:..\..\Cypress-PSOC-OLED-master\Cypress-PSOC-OLED-master\OLED.cydsn/ssd1306.c ****     display_write_buf( cmdbuf, sizeof(cmdbuf) ); 
 961              		.loc 1 222 0 is_stmt 0 discriminator 4
 962 0014 01A8     		add	r0, sp, #4
 963              	.LVL117:
 964 0016 4370     		strb	r3, [r0, #1]
 223:..\..\Cypress-PSOC-OLED-master\Cypress-PSOC-OLED-master\OLED.cydsn/ssd1306.c **** }
 965              		.loc 1 223 0 is_stmt 1 discriminator 4
 966 0018 0221     		movs	r1, #2
 967 001a FFF7FEFF 		bl	display_write_buf
 968              	.LVL118:
 224:..\..\Cypress-PSOC-OLED-master\Cypress-PSOC-OLED-master\OLED.cydsn/ssd1306.c **** 
 969              		.loc 1 224 0 discriminator 4
 970 001e 03B0     		add	sp, sp, #12
 971              		@ sp needed
 972 0020 00BD     		pop	{pc}
 973              		.cfi_endproc
 974              	.LFE37:
 975              		.size	display_invert, .-display_invert
 976 0022 C046     		.section	.text.display_update,"ax",%progbits
 977              		.align	2
 978              		.global	display_update
 979              		.code	16
 980              		.thumb_func
 981              		.type	display_update, %function
 982              	display_update:
ARM GAS  C:\Users\boise\AppData\Local\Temp\ccDu5XGS.s 			page 27


 983              	.LFB38:
 227:..\..\Cypress-PSOC-OLED-master\Cypress-PSOC-OLED-master\OLED.cydsn/ssd1306.c ****       
 984              		.loc 1 227 0
 985              		.cfi_startproc
 986              		@ args = 0, pretend = 0, frame = 8
 987              		@ frame_needed = 0, uses_anonymous_args = 0
 988 0000 00B5     		push	{lr}
 989              		.cfi_def_cfa_offset 4
 990              		.cfi_offset 14, -4
 991 0002 83B0     		sub	sp, sp, #12
 992              		.cfi_def_cfa_offset 16
 229:..\..\Cypress-PSOC-OLED-master\Cypress-PSOC-OLED-master\OLED.cydsn/ssd1306.c ****         0x00,
 993              		.loc 1 229 0
 994 0004 0722     		movs	r2, #7
 995 0006 0749     		ldr	r1, .L69
 996 0008 6846     		mov	r0, sp
 997 000a FFF7FEFF 		bl	memcpy
 998              	.LVL119:
 238:..\..\Cypress-PSOC-OLED-master\Cypress-PSOC-OLED-master\OLED.cydsn/ssd1306.c ****     display_write_buf( SSD1306_buffer, sizeof(SSD1306_buffer) );
 999              		.loc 1 238 0
 1000 000e 0721     		movs	r1, #7
 1001 0010 6846     		mov	r0, sp
 1002 0012 FFF7FEFF 		bl	display_write_buf
 1003              	.LVL120:
 239:..\..\Cypress-PSOC-OLED-master\Cypress-PSOC-OLED-master\OLED.cydsn/ssd1306.c **** }
 1004              		.loc 1 239 0
 1005 0016 0449     		ldr	r1, .L69+4
 1006 0018 0448     		ldr	r0, .L69+8
 1007 001a FFF7FEFF 		bl	display_write_buf
 1008              	.LVL121:
 240:..\..\Cypress-PSOC-OLED-master\Cypress-PSOC-OLED-master\OLED.cydsn/ssd1306.c **** 
 1009              		.loc 1 240 0
 1010 001e 03B0     		add	sp, sp, #12
 1011              		@ sp needed
 1012 0020 00BD     		pop	{pc}
 1013              	.L70:
 1014 0022 C046     		.align	2
 1015              	.L69:
 1016 0024 00000000 		.word	.LANCHOR2
 1017 0028 01040000 		.word	1025
 1018 002c 00000000 		.word	.LANCHOR0
 1019              		.cfi_endproc
 1020              	.LFE38:
 1021              		.size	display_update, .-display_update
 1022              		.section	.text.display_stopscroll,"ax",%progbits
 1023              		.align	2
 1024              		.global	display_stopscroll
 1025              		.code	16
 1026              		.thumb_func
 1027              		.type	display_stopscroll, %function
 1028              	display_stopscroll:
 1029              	.LFB40:
 307:..\..\Cypress-PSOC-OLED-master\Cypress-PSOC-OLED-master\OLED.cydsn/ssd1306.c **** 
 1030              		.loc 1 307 0
 1031              		.cfi_startproc
 1032              		@ args = 0, pretend = 0, frame = 8
 1033              		@ frame_needed = 0, uses_anonymous_args = 0
ARM GAS  C:\Users\boise\AppData\Local\Temp\ccDu5XGS.s 			page 28


 1034 0000 00B5     		push	{lr}
 1035              		.cfi_def_cfa_offset 4
 1036              		.cfi_offset 14, -4
 1037 0002 83B0     		sub	sp, sp, #12
 1038              		.cfi_def_cfa_offset 16
 309:..\..\Cypress-PSOC-OLED-master\Cypress-PSOC-OLED-master\OLED.cydsn/ssd1306.c ****         0x00,
 1039              		.loc 1 309 0
 1040 0004 01A8     		add	r0, sp, #4
 1041 0006 0023     		movs	r3, #0
 1042 0008 0370     		strb	r3, [r0]
 1043 000a 2E33     		adds	r3, r3, #46
 1044 000c 4370     		strb	r3, [r0, #1]
 313:..\..\Cypress-PSOC-OLED-master\Cypress-PSOC-OLED-master\OLED.cydsn/ssd1306.c **** }
 1045              		.loc 1 313 0
 1046 000e 0221     		movs	r1, #2
 1047 0010 FFF7FEFF 		bl	display_write_buf
 1048              	.LVL122:
 314:..\..\Cypress-PSOC-OLED-master\Cypress-PSOC-OLED-master\OLED.cydsn/ssd1306.c **** 
 1049              		.loc 1 314 0
 1050 0014 03B0     		add	sp, sp, #12
 1051              		@ sp needed
 1052 0016 00BD     		pop	{pc}
 1053              		.cfi_endproc
 1054              	.LFE40:
 1055              		.size	display_stopscroll, .-display_stopscroll
 1056              		.section	.text.display_scroll,"ax",%progbits
 1057              		.align	2
 1058              		.global	display_scroll
 1059              		.code	16
 1060              		.thumb_func
 1061              		.type	display_scroll, %function
 1062              	display_scroll:
 1063              	.LFB41:
 316:..\..\Cypress-PSOC-OLED-master\Cypress-PSOC-OLED-master\OLED.cydsn/ssd1306.c ****    
 1064              		.loc 1 316 0
 1065              		.cfi_startproc
 1066              		@ args = 0, pretend = 0, frame = 16
 1067              		@ frame_needed = 0, uses_anonymous_args = 0
 1068              	.LVL123:
 1069 0000 30B5     		push	{r4, r5, lr}
 1070              		.cfi_def_cfa_offset 12
 1071              		.cfi_offset 4, -12
 1072              		.cfi_offset 5, -8
 1073              		.cfi_offset 14, -4
 1074 0002 85B0     		sub	sp, sp, #20
 1075              		.cfi_def_cfa_offset 32
 318:..\..\Cypress-PSOC-OLED-master\Cypress-PSOC-OLED-master\OLED.cydsn/ssd1306.c ****         0x00,
 1076              		.loc 1 318 0
 1077 0004 01AC     		add	r4, sp, #4
 1078 0006 0025     		movs	r5, #0
 1079 0008 2570     		strb	r5, [r4]
 1080 000a 6270     		strb	r2, [r4, #1]
 1081 000c A570     		strb	r5, [r4, #2]
 1082 000e E070     		strb	r0, [r4, #3]
 1083 0010 2371     		strb	r3, [r4, #4]
 1084 0012 6171     		strb	r1, [r4, #5]
 1085 0014 A571     		strb	r5, [r4, #6]
ARM GAS  C:\Users\boise\AppData\Local\Temp\ccDu5XGS.s 			page 29


 1086 0016 FF23     		movs	r3, #255
 1087              	.LVL124:
 1088 0018 E371     		strb	r3, [r4, #7]
 1089 001a D03B     		subs	r3, r3, #208
 1090 001c 2372     		strb	r3, [r4, #8]
 329:..\..\Cypress-PSOC-OLED-master\Cypress-PSOC-OLED-master\OLED.cydsn/ssd1306.c **** }
 1091              		.loc 1 329 0
 1092 001e 0921     		movs	r1, #9
 1093              	.LVL125:
 1094 0020 2000     		movs	r0, r4
 1095              	.LVL126:
 1096 0022 FFF7FEFF 		bl	display_write_buf
 1097              	.LVL127:
 330:..\..\Cypress-PSOC-OLED-master\Cypress-PSOC-OLED-master\OLED.cydsn/ssd1306.c **** 
 1098              		.loc 1 330 0
 1099 0026 05B0     		add	sp, sp, #20
 1100              		@ sp needed
 1101 0028 30BD     		pop	{r4, r5, pc}
 1102              		.cfi_endproc
 1103              	.LFE41:
 1104              		.size	display_scroll, .-display_scroll
 1105 002a C046     		.section	.text.gfx_init,"ax",%progbits
 1106              		.align	2
 1107              		.global	gfx_init
 1108              		.code	16
 1109              		.thumb_func
 1110              		.type	gfx_init, %function
 1111              	gfx_init:
 1112              	.LFB42:
 347:..\..\Cypress-PSOC-OLED-master\Cypress-PSOC-OLED-master\OLED.cydsn/ssd1306.c ****     WIDTH = width;
 1113              		.loc 1 347 0
 1114              		.cfi_startproc
 1115              		@ args = 0, pretend = 0, frame = 0
 1116              		@ frame_needed = 0, uses_anonymous_args = 0
 1117              		@ link register save eliminated.
 1118              	.LVL128:
 348:..\..\Cypress-PSOC-OLED-master\Cypress-PSOC-OLED-master\OLED.cydsn/ssd1306.c ****     HEIGHT = height;
 1119              		.loc 1 348 0
 1120 0000 0A4B     		ldr	r3, .L74
 1121 0002 1880     		strh	r0, [r3]
 349:..\..\Cypress-PSOC-OLED-master\Cypress-PSOC-OLED-master\OLED.cydsn/ssd1306.c ****     _width = WIDTH;
 1122              		.loc 1 349 0
 1123 0004 0A4B     		ldr	r3, .L74+4
 1124 0006 1980     		strh	r1, [r3]
 350:..\..\Cypress-PSOC-OLED-master\Cypress-PSOC-OLED-master\OLED.cydsn/ssd1306.c ****     _height = HEIGHT;
 1125              		.loc 1 350 0
 1126 0008 0A4B     		ldr	r3, .L74+8
 1127 000a 5880     		strh	r0, [r3, #2]
 351:..\..\Cypress-PSOC-OLED-master\Cypress-PSOC-OLED-master\OLED.cydsn/ssd1306.c ****     
 1128              		.loc 1 351 0
 1129 000c 9980     		strh	r1, [r3, #4]
 353:..\..\Cypress-PSOC-OLED-master\Cypress-PSOC-OLED-master\OLED.cydsn/ssd1306.c ****     cursor_y = cursor_x = 0;
 1130              		.loc 1 353 0
 1131 000e 0022     		movs	r2, #0
 1132 0010 0949     		ldr	r1, .L74+12
 1133              	.LVL129:
 1134 0012 0A70     		strb	r2, [r1]
ARM GAS  C:\Users\boise\AppData\Local\Temp\ccDu5XGS.s 			page 30


 354:..\..\Cypress-PSOC-OLED-master\Cypress-PSOC-OLED-master\OLED.cydsn/ssd1306.c ****     textsize = 1;
 1135              		.loc 1 354 0
 1136 0014 DA80     		strh	r2, [r3, #6]
 1137 0016 1A81     		strh	r2, [r3, #8]
 355:..\..\Cypress-PSOC-OLED-master\Cypress-PSOC-OLED-master\OLED.cydsn/ssd1306.c ****     textcolor = textbgcolor = 0xFFFF;
 1138              		.loc 1 355 0
 1139 0018 0132     		adds	r2, r2, #1
 1140 001a 9A72     		strb	r2, [r3, #10]
 356:..\..\Cypress-PSOC-OLED-master\Cypress-PSOC-OLED-master\OLED.cydsn/ssd1306.c ****     wrap = 1;
 1141              		.loc 1 356 0
 1142 001c 0121     		movs	r1, #1
 1143 001e 4942     		rsbs	r1, r1, #0
 1144 0020 9981     		strh	r1, [r3, #12]
 1145 0022 D981     		strh	r1, [r3, #14]
 357:..\..\Cypress-PSOC-OLED-master\Cypress-PSOC-OLED-master\OLED.cydsn/ssd1306.c **** }
 1146              		.loc 1 357 0
 1147 0024 054B     		ldr	r3, .L74+16
 1148 0026 1A70     		strb	r2, [r3]
 358:..\..\Cypress-PSOC-OLED-master\Cypress-PSOC-OLED-master\OLED.cydsn/ssd1306.c **** 
 1149              		.loc 1 358 0
 1150              		@ sp needed
 1151 0028 7047     		bx	lr
 1152              	.L75:
 1153 002a C046     		.align	2
 1154              	.L74:
 1155 002c 00000000 		.word	WIDTH
 1156 0030 00000000 		.word	HEIGHT
 1157 0034 00000000 		.word	.LANCHOR1
 1158 0038 00000000 		.word	rotation
 1159 003c 00000000 		.word	wrap
 1160              		.cfi_endproc
 1161              	.LFE42:
 1162              		.size	gfx_init, .-gfx_init
 1163              		.section	.text.display_init,"ax",%progbits
 1164              		.align	2
 1165              		.global	display_init
 1166              		.code	16
 1167              		.thumb_func
 1168              		.type	display_init, %function
 1169              	display_init:
 1170              	.LFB32:
 116:..\..\Cypress-PSOC-OLED-master\Cypress-PSOC-OLED-master\OLED.cydsn/ssd1306.c ****     
 1171              		.loc 1 116 0
 1172              		.cfi_startproc
 1173              		@ args = 0, pretend = 0, frame = 32
 1174              		@ frame_needed = 0, uses_anonymous_args = 0
 1175              	.LVL130:
 1176 0000 00B5     		push	{lr}
 1177              		.cfi_def_cfa_offset 4
 1178              		.cfi_offset 14, -4
 1179 0002 89B0     		sub	sp, sp, #36
 1180              		.cfi_def_cfa_offset 40
 118:..\..\Cypress-PSOC-OLED-master\Cypress-PSOC-OLED-master\OLED.cydsn/ssd1306.c ****     gfx_init( DISPLAYWIDTH, DISPLAYHEIGHT );
 1181              		.loc 1 118 0
 1182 0004 084B     		ldr	r3, .L77
 1183 0006 1870     		strb	r0, [r3]
 119:..\..\Cypress-PSOC-OLED-master\Cypress-PSOC-OLED-master\OLED.cydsn/ssd1306.c ****     
ARM GAS  C:\Users\boise\AppData\Local\Temp\ccDu5XGS.s 			page 31


 1184              		.loc 1 119 0
 1185 0008 4021     		movs	r1, #64
 1186 000a 8020     		movs	r0, #128
 1187              	.LVL131:
 1188 000c FFF7FEFF 		bl	gfx_init
 1189              	.LVL132:
 121:..\..\Cypress-PSOC-OLED-master\Cypress-PSOC-OLED-master\OLED.cydsn/ssd1306.c ****         0x00,
 1190              		.loc 1 121 0
 1191 0010 1A22     		movs	r2, #26
 1192 0012 0649     		ldr	r1, .L77+4
 1193 0014 0831     		adds	r1, r1, #8
 1194 0016 01A8     		add	r0, sp, #4
 1195 0018 FFF7FEFF 		bl	memcpy
 1196              	.LVL133:
 150:..\..\Cypress-PSOC-OLED-master\Cypress-PSOC-OLED-master\OLED.cydsn/ssd1306.c **** }
 1197              		.loc 1 150 0
 1198 001c 1A21     		movs	r1, #26
 1199 001e 01A8     		add	r0, sp, #4
 1200 0020 FFF7FEFF 		bl	display_write_buf
 1201              	.LVL134:
 151:..\..\Cypress-PSOC-OLED-master\Cypress-PSOC-OLED-master\OLED.cydsn/ssd1306.c **** 
 1202              		.loc 1 151 0
 1203 0024 09B0     		add	sp, sp, #36
 1204              		@ sp needed
 1205 0026 00BD     		pop	{pc}
 1206              	.L78:
 1207              		.align	2
 1208              	.L77:
 1209 0028 00000000 		.word	.LANCHOR1
 1210 002c 00000000 		.word	.LANCHOR2
 1211              		.cfi_endproc
 1212              	.LFE32:
 1213              		.size	display_init, .-display_init
 1214              		.section	.text.gfx_width,"ax",%progbits
 1215              		.align	2
 1216              		.global	gfx_width
 1217              		.code	16
 1218              		.thumb_func
 1219              		.type	gfx_width, %function
 1220              	gfx_width:
 1221              	.LFB43:
 361:..\..\Cypress-PSOC-OLED-master\Cypress-PSOC-OLED-master\OLED.cydsn/ssd1306.c ****     return _width;
 1222              		.loc 1 361 0
 1223              		.cfi_startproc
 1224              		@ args = 0, pretend = 0, frame = 0
 1225              		@ frame_needed = 0, uses_anonymous_args = 0
 1226              		@ link register save eliminated.
 362:..\..\Cypress-PSOC-OLED-master\Cypress-PSOC-OLED-master\OLED.cydsn/ssd1306.c **** }
 1227              		.loc 1 362 0
 1228 0000 014B     		ldr	r3, .L80
 1229 0002 0220     		movs	r0, #2
 1230 0004 185E     		ldrsh	r0, [r3, r0]
 363:..\..\Cypress-PSOC-OLED-master\Cypress-PSOC-OLED-master\OLED.cydsn/ssd1306.c **** 
 1231              		.loc 1 363 0
 1232              		@ sp needed
 1233 0006 7047     		bx	lr
 1234              	.L81:
ARM GAS  C:\Users\boise\AppData\Local\Temp\ccDu5XGS.s 			page 32


 1235              		.align	2
 1236              	.L80:
 1237 0008 00000000 		.word	.LANCHOR1
 1238              		.cfi_endproc
 1239              	.LFE43:
 1240              		.size	gfx_width, .-gfx_width
 1241              		.section	.text.gfx_height,"ax",%progbits
 1242              		.align	2
 1243              		.global	gfx_height
 1244              		.code	16
 1245              		.thumb_func
 1246              		.type	gfx_height, %function
 1247              	gfx_height:
 1248              	.LFB44:
 365:..\..\Cypress-PSOC-OLED-master\Cypress-PSOC-OLED-master\OLED.cydsn/ssd1306.c ****     return _height;
 1249              		.loc 1 365 0
 1250              		.cfi_startproc
 1251              		@ args = 0, pretend = 0, frame = 0
 1252              		@ frame_needed = 0, uses_anonymous_args = 0
 1253              		@ link register save eliminated.
 366:..\..\Cypress-PSOC-OLED-master\Cypress-PSOC-OLED-master\OLED.cydsn/ssd1306.c **** }
 1254              		.loc 1 366 0
 1255 0000 014B     		ldr	r3, .L83
 1256 0002 0420     		movs	r0, #4
 1257 0004 185E     		ldrsh	r0, [r3, r0]
 367:..\..\Cypress-PSOC-OLED-master\Cypress-PSOC-OLED-master\OLED.cydsn/ssd1306.c **** 
 1258              		.loc 1 367 0
 1259              		@ sp needed
 1260 0006 7047     		bx	lr
 1261              	.L84:
 1262              		.align	2
 1263              	.L83:
 1264 0008 00000000 		.word	.LANCHOR1
 1265              		.cfi_endproc
 1266              	.LFE44:
 1267              		.size	gfx_height, .-gfx_height
 1268              		.section	.text.gfx_rotation,"ax",%progbits
 1269              		.align	2
 1270              		.global	gfx_rotation
 1271              		.code	16
 1272              		.thumb_func
 1273              		.type	gfx_rotation, %function
 1274              	gfx_rotation:
 1275              	.LFB45:
 369:..\..\Cypress-PSOC-OLED-master\Cypress-PSOC-OLED-master\OLED.cydsn/ssd1306.c ****     return rotation;
 1276              		.loc 1 369 0
 1277              		.cfi_startproc
 1278              		@ args = 0, pretend = 0, frame = 0
 1279              		@ frame_needed = 0, uses_anonymous_args = 0
 1280              		@ link register save eliminated.
 370:..\..\Cypress-PSOC-OLED-master\Cypress-PSOC-OLED-master\OLED.cydsn/ssd1306.c **** }
 1281              		.loc 1 370 0
 1282 0000 014B     		ldr	r3, .L86
 1283 0002 1878     		ldrb	r0, [r3]
 371:..\..\Cypress-PSOC-OLED-master\Cypress-PSOC-OLED-master\OLED.cydsn/ssd1306.c **** 
 1284              		.loc 1 371 0
 1285              		@ sp needed
ARM GAS  C:\Users\boise\AppData\Local\Temp\ccDu5XGS.s 			page 33


 1286 0004 7047     		bx	lr
 1287              	.L87:
 1288 0006 C046     		.align	2
 1289              	.L86:
 1290 0008 00000000 		.word	rotation
 1291              		.cfi_endproc
 1292              	.LFE45:
 1293              		.size	gfx_rotation, .-gfx_rotation
 1294              		.section	.text.gfx_setCursor,"ax",%progbits
 1295              		.align	2
 1296              		.global	gfx_setCursor
 1297              		.code	16
 1298              		.thumb_func
 1299              		.type	gfx_setCursor, %function
 1300              	gfx_setCursor:
 1301              	.LFB46:
 373:..\..\Cypress-PSOC-OLED-master\Cypress-PSOC-OLED-master\OLED.cydsn/ssd1306.c ****     cursor_x = x;
 1302              		.loc 1 373 0
 1303              		.cfi_startproc
 1304              		@ args = 0, pretend = 0, frame = 0
 1305              		@ frame_needed = 0, uses_anonymous_args = 0
 1306              		@ link register save eliminated.
 1307              	.LVL135:
 374:..\..\Cypress-PSOC-OLED-master\Cypress-PSOC-OLED-master\OLED.cydsn/ssd1306.c ****     cursor_y = y;
 1308              		.loc 1 374 0
 1309 0000 014B     		ldr	r3, .L89
 1310 0002 D880     		strh	r0, [r3, #6]
 375:..\..\Cypress-PSOC-OLED-master\Cypress-PSOC-OLED-master\OLED.cydsn/ssd1306.c **** }
 1311              		.loc 1 375 0
 1312 0004 1981     		strh	r1, [r3, #8]
 376:..\..\Cypress-PSOC-OLED-master\Cypress-PSOC-OLED-master\OLED.cydsn/ssd1306.c **** 
 1313              		.loc 1 376 0
 1314              		@ sp needed
 1315 0006 7047     		bx	lr
 1316              	.L90:
 1317              		.align	2
 1318              	.L89:
 1319 0008 00000000 		.word	.LANCHOR1
 1320              		.cfi_endproc
 1321              	.LFE46:
 1322              		.size	gfx_setCursor, .-gfx_setCursor
 1323              		.section	.text.gfx_setTextSize,"ax",%progbits
 1324              		.align	2
 1325              		.global	gfx_setTextSize
 1326              		.code	16
 1327              		.thumb_func
 1328              		.type	gfx_setTextSize, %function
 1329              	gfx_setTextSize:
 1330              	.LFB47:
 378:..\..\Cypress-PSOC-OLED-master\Cypress-PSOC-OLED-master\OLED.cydsn/ssd1306.c ****     textsize = (size > 0) ? size : 1;
 1331              		.loc 1 378 0
 1332              		.cfi_startproc
 1333              		@ args = 0, pretend = 0, frame = 0
 1334              		@ frame_needed = 0, uses_anonymous_args = 0
 1335              		@ link register save eliminated.
 1336              	.LVL136:
 379:..\..\Cypress-PSOC-OLED-master\Cypress-PSOC-OLED-master\OLED.cydsn/ssd1306.c **** }
ARM GAS  C:\Users\boise\AppData\Local\Temp\ccDu5XGS.s 			page 34


 1337              		.loc 1 379 0
 1338 0000 0028     		cmp	r0, #0
 1339 0002 00D1     		bne	.L92
 1340 0004 0130     		adds	r0, r0, #1
 1341              	.LVL137:
 1342              	.L92:
 379:..\..\Cypress-PSOC-OLED-master\Cypress-PSOC-OLED-master\OLED.cydsn/ssd1306.c **** }
 1343              		.loc 1 379 0 is_stmt 0 discriminator 4
 1344 0006 014B     		ldr	r3, .L94
 1345 0008 9872     		strb	r0, [r3, #10]
 380:..\..\Cypress-PSOC-OLED-master\Cypress-PSOC-OLED-master\OLED.cydsn/ssd1306.c **** 
 1346              		.loc 1 380 0 is_stmt 1 discriminator 4
 1347              		@ sp needed
 1348 000a 7047     		bx	lr
 1349              	.L95:
 1350              		.align	2
 1351              	.L94:
 1352 000c 00000000 		.word	.LANCHOR1
 1353              		.cfi_endproc
 1354              	.LFE47:
 1355              		.size	gfx_setTextSize, .-gfx_setTextSize
 1356              		.section	.text.gfx_setTextColor,"ax",%progbits
 1357              		.align	2
 1358              		.global	gfx_setTextColor
 1359              		.code	16
 1360              		.thumb_func
 1361              		.type	gfx_setTextColor, %function
 1362              	gfx_setTextColor:
 1363              	.LFB48:
 382:..\..\Cypress-PSOC-OLED-master\Cypress-PSOC-OLED-master\OLED.cydsn/ssd1306.c ****     // For 'transparent' background, we'll set the bg
 1364              		.loc 1 382 0
 1365              		.cfi_startproc
 1366              		@ args = 0, pretend = 0, frame = 0
 1367              		@ frame_needed = 0, uses_anonymous_args = 0
 1368              		@ link register save eliminated.
 1369              	.LVL138:
 385:..\..\Cypress-PSOC-OLED-master\Cypress-PSOC-OLED-master\OLED.cydsn/ssd1306.c **** }
 1370              		.loc 1 385 0
 1371 0000 014B     		ldr	r3, .L97
 1372 0002 9881     		strh	r0, [r3, #12]
 1373 0004 D881     		strh	r0, [r3, #14]
 386:..\..\Cypress-PSOC-OLED-master\Cypress-PSOC-OLED-master\OLED.cydsn/ssd1306.c **** 
 1374              		.loc 1 386 0
 1375              		@ sp needed
 1376 0006 7047     		bx	lr
 1377              	.L98:
 1378              		.align	2
 1379              	.L97:
 1380 0008 00000000 		.word	.LANCHOR1
 1381              		.cfi_endproc
 1382              	.LFE48:
 1383              		.size	gfx_setTextColor, .-gfx_setTextColor
 1384              		.section	.text.gfx_setTextBg,"ax",%progbits
 1385              		.align	2
 1386              		.global	gfx_setTextBg
 1387              		.code	16
 1388              		.thumb_func
ARM GAS  C:\Users\boise\AppData\Local\Temp\ccDu5XGS.s 			page 35


 1389              		.type	gfx_setTextBg, %function
 1390              	gfx_setTextBg:
 1391              	.LFB49:
 388:..\..\Cypress-PSOC-OLED-master\Cypress-PSOC-OLED-master\OLED.cydsn/ssd1306.c ****     textbgcolor = color;
 1392              		.loc 1 388 0
 1393              		.cfi_startproc
 1394              		@ args = 0, pretend = 0, frame = 0
 1395              		@ frame_needed = 0, uses_anonymous_args = 0
 1396              		@ link register save eliminated.
 1397              	.LVL139:
 389:..\..\Cypress-PSOC-OLED-master\Cypress-PSOC-OLED-master\OLED.cydsn/ssd1306.c **** }
 1398              		.loc 1 389 0
 1399 0000 014B     		ldr	r3, .L100
 1400 0002 9881     		strh	r0, [r3, #12]
 390:..\..\Cypress-PSOC-OLED-master\Cypress-PSOC-OLED-master\OLED.cydsn/ssd1306.c **** 
 1401              		.loc 1 390 0
 1402              		@ sp needed
 1403 0004 7047     		bx	lr
 1404              	.L101:
 1405 0006 C046     		.align	2
 1406              	.L100:
 1407 0008 00000000 		.word	.LANCHOR1
 1408              		.cfi_endproc
 1409              	.LFE49:
 1410              		.size	gfx_setTextBg, .-gfx_setTextBg
 1411              		.section	.text.gfx_setTextWrap,"ax",%progbits
 1412              		.align	2
 1413              		.global	gfx_setTextWrap
 1414              		.code	16
 1415              		.thumb_func
 1416              		.type	gfx_setTextWrap, %function
 1417              	gfx_setTextWrap:
 1418              	.LFB50:
 392:..\..\Cypress-PSOC-OLED-master\Cypress-PSOC-OLED-master\OLED.cydsn/ssd1306.c ****     wrap = w;
 1419              		.loc 1 392 0
 1420              		.cfi_startproc
 1421              		@ args = 0, pretend = 0, frame = 0
 1422              		@ frame_needed = 0, uses_anonymous_args = 0
 1423              		@ link register save eliminated.
 1424              	.LVL140:
 393:..\..\Cypress-PSOC-OLED-master\Cypress-PSOC-OLED-master\OLED.cydsn/ssd1306.c **** }
 1425              		.loc 1 393 0
 1426 0000 014B     		ldr	r3, .L103
 1427 0002 1870     		strb	r0, [r3]
 394:..\..\Cypress-PSOC-OLED-master\Cypress-PSOC-OLED-master\OLED.cydsn/ssd1306.c **** 
 1428              		.loc 1 394 0
 1429              		@ sp needed
 1430 0004 7047     		bx	lr
 1431              	.L104:
 1432 0006 C046     		.align	2
 1433              	.L103:
 1434 0008 00000000 		.word	wrap
 1435              		.cfi_endproc
 1436              	.LFE50:
 1437              		.size	gfx_setTextWrap, .-gfx_setTextWrap
 1438              		.section	.text.gfx_setRotation,"ax",%progbits
 1439              		.align	2
ARM GAS  C:\Users\boise\AppData\Local\Temp\ccDu5XGS.s 			page 36


 1440              		.global	gfx_setRotation
 1441              		.code	16
 1442              		.thumb_func
 1443              		.type	gfx_setRotation, %function
 1444              	gfx_setRotation:
 1445              	.LFB51:
 396:..\..\Cypress-PSOC-OLED-master\Cypress-PSOC-OLED-master\OLED.cydsn/ssd1306.c ****     
 1446              		.loc 1 396 0
 1447              		.cfi_startproc
 1448              		@ args = 0, pretend = 0, frame = 0
 1449              		@ frame_needed = 0, uses_anonymous_args = 0
 1450              		@ link register save eliminated.
 1451              	.LVL141:
 398:..\..\Cypress-PSOC-OLED-master\Cypress-PSOC-OLED-master\OLED.cydsn/ssd1306.c ****     switch( rotation ){
 1452              		.loc 1 398 0
 1453 0000 0323     		movs	r3, #3
 1454 0002 1840     		ands	r0, r3
 1455              	.LVL142:
 1456 0004 0D4B     		ldr	r3, .L109
 1457 0006 1870     		strb	r0, [r3]
 399:..\..\Cypress-PSOC-OLED-master\Cypress-PSOC-OLED-master\OLED.cydsn/ssd1306.c ****         case 0:
 1458              		.loc 1 399 0
 1459 0008 0128     		cmp	r0, #1
 1460 000a 0ED0     		beq	.L107
 1461 000c 0028     		cmp	r0, #0
 1462 000e 04D0     		beq	.L108
 1463 0010 0228     		cmp	r0, #2
 1464 0012 02D0     		beq	.L108
 1465 0014 0328     		cmp	r0, #3
 1466 0016 0FD1     		bne	.L105
 1467 0018 07E0     		b	.L107
 1468              	.L108:
 402:..\..\Cypress-PSOC-OLED-master\Cypress-PSOC-OLED-master\OLED.cydsn/ssd1306.c ****             _height = HEIGHT;
 1469              		.loc 1 402 0
 1470 001a 094B     		ldr	r3, .L109+4
 1471 001c 094A     		ldr	r2, .L109+8
 1472 001e 1288     		ldrh	r2, [r2]
 1473 0020 5A80     		strh	r2, [r3, #2]
 403:..\..\Cypress-PSOC-OLED-master\Cypress-PSOC-OLED-master\OLED.cydsn/ssd1306.c ****             break;
 1474              		.loc 1 403 0
 1475 0022 094A     		ldr	r2, .L109+12
 1476 0024 1288     		ldrh	r2, [r2]
 1477 0026 9A80     		strh	r2, [r3, #4]
 404:..\..\Cypress-PSOC-OLED-master\Cypress-PSOC-OLED-master\OLED.cydsn/ssd1306.c ****         case 1:
 1478              		.loc 1 404 0
 1479 0028 06E0     		b	.L105
 1480              	.L107:
 407:..\..\Cypress-PSOC-OLED-master\Cypress-PSOC-OLED-master\OLED.cydsn/ssd1306.c ****             _height = WIDTH;
 1481              		.loc 1 407 0
 1482 002a 054B     		ldr	r3, .L109+4
 1483 002c 064A     		ldr	r2, .L109+12
 1484 002e 1288     		ldrh	r2, [r2]
 1485 0030 5A80     		strh	r2, [r3, #2]
 408:..\..\Cypress-PSOC-OLED-master\Cypress-PSOC-OLED-master\OLED.cydsn/ssd1306.c ****         break;
 1486              		.loc 1 408 0
 1487 0032 044A     		ldr	r2, .L109+8
 1488 0034 1288     		ldrh	r2, [r2]
ARM GAS  C:\Users\boise\AppData\Local\Temp\ccDu5XGS.s 			page 37


 1489 0036 9A80     		strh	r2, [r3, #4]
 1490              	.L105:
 411:..\..\Cypress-PSOC-OLED-master\Cypress-PSOC-OLED-master\OLED.cydsn/ssd1306.c **** 
 1491              		.loc 1 411 0
 1492              		@ sp needed
 1493 0038 7047     		bx	lr
 1494              	.L110:
 1495 003a C046     		.align	2
 1496              	.L109:
 1497 003c 00000000 		.word	rotation
 1498 0040 00000000 		.word	.LANCHOR1
 1499 0044 00000000 		.word	WIDTH
 1500 0048 00000000 		.word	HEIGHT
 1501              		.cfi_endproc
 1502              	.LFE51:
 1503              		.size	gfx_setRotation, .-gfx_setRotation
 1504              		.section	.text.gfx_drawPixel,"ax",%progbits
 1505              		.align	2
 1506              		.global	gfx_drawPixel
 1507              		.code	16
 1508              		.thumb_func
 1509              		.type	gfx_drawPixel, %function
 1510              	gfx_drawPixel:
 1511              	.LFB53:
 433:..\..\Cypress-PSOC-OLED-master\Cypress-PSOC-OLED-master\OLED.cydsn/ssd1306.c ****     
 1512              		.loc 1 433 0
 1513              		.cfi_startproc
 1514              		@ args = 0, pretend = 0, frame = 8
 1515              		@ frame_needed = 0, uses_anonymous_args = 0
 1516              	.LVL143:
 1517 0000 70B5     		push	{r4, r5, r6, lr}
 1518              		.cfi_def_cfa_offset 16
 1519              		.cfi_offset 4, -16
 1520              		.cfi_offset 5, -12
 1521              		.cfi_offset 6, -8
 1522              		.cfi_offset 14, -4
 1523 0002 82B0     		sub	sp, sp, #8
 1524              		.cfi_def_cfa_offset 24
 1525 0004 1400     		movs	r4, r2
 1526 0006 6B46     		mov	r3, sp
 1527 0008 D880     		strh	r0, [r3, #6]
 1528 000a 01AB     		add	r3, sp, #4
 1529 000c 1980     		strh	r1, [r3]
 435:..\..\Cypress-PSOC-OLED-master\Cypress-PSOC-OLED-master\OLED.cydsn/ssd1306.c ****         return;
 1530              		.loc 1 435 0
 1531 000e 0028     		cmp	r0, #0
 1532 0010 1ADB     		blt	.L111
 435:..\..\Cypress-PSOC-OLED-master\Cypress-PSOC-OLED-master\OLED.cydsn/ssd1306.c ****         return;
 1533              		.loc 1 435 0 is_stmt 0 discriminator 1
 1534 0012 0E4B     		ldr	r3, .L113
 1535 0014 0222     		movs	r2, #2
 1536 0016 9B5E     		ldrsh	r3, [r3, r2]
 1537              	.LVL144:
 1538 0018 9842     		cmp	r0, r3
 1539 001a 15DA     		bge	.L111
 435:..\..\Cypress-PSOC-OLED-master\Cypress-PSOC-OLED-master\OLED.cydsn/ssd1306.c ****         return;
 1540              		.loc 1 435 0 discriminator 2
ARM GAS  C:\Users\boise\AppData\Local\Temp\ccDu5XGS.s 			page 38


 1541 001c 0BB2     		sxth	r3, r1
 1542 001e 002B     		cmp	r3, #0
 1543 0020 12DB     		blt	.L111
 435:..\..\Cypress-PSOC-OLED-master\Cypress-PSOC-OLED-master\OLED.cydsn/ssd1306.c ****         return;
 1544              		.loc 1 435 0 discriminator 3
 1545 0022 0A4A     		ldr	r2, .L113
 1546 0024 0421     		movs	r1, #4
 1547 0026 525E     		ldrsh	r2, [r2, r1]
 1548              	.LVL145:
 1549 0028 9342     		cmp	r3, r2
 1550 002a 0DDA     		bge	.L111
 438:..\..\Cypress-PSOC-OLED-master\Cypress-PSOC-OLED-master\OLED.cydsn/ssd1306.c **** 
 1551              		.loc 1 438 0 is_stmt 1
 1552 002c 01AE     		add	r6, sp, #4
 1553              	.LVL146:
 1554 002e 6B46     		mov	r3, sp
 1555 0030 9D1D     		adds	r5, r3, #6
 1556 0032 3100     		movs	r1, r6
 1557 0034 2800     		movs	r0, r5
 1558              	.LVL147:
 1559 0036 FFF7FEFF 		bl	gfx_rotation_adjust
 1560              	.LVL148:
 440:..\..\Cypress-PSOC-OLED-master\Cypress-PSOC-OLED-master\OLED.cydsn/ssd1306.c **** }
 1561              		.loc 1 440 0
 1562 003a 0023     		movs	r3, #0
 1563 003c F15E     		ldrsh	r1, [r6, r3]
 1564 003e 0023     		movs	r3, #0
 1565 0040 E85E     		ldrsh	r0, [r5, r3]
 1566 0042 2200     		movs	r2, r4
 1567 0044 FFF7FEFF 		bl	display_setPixel
 1568              	.LVL149:
 1569              	.L111:
 441:..\..\Cypress-PSOC-OLED-master\Cypress-PSOC-OLED-master\OLED.cydsn/ssd1306.c **** 
 1570              		.loc 1 441 0
 1571 0048 02B0     		add	sp, sp, #8
 1572              	.LVL150:
 1573              		@ sp needed
 1574 004a 70BD     		pop	{r4, r5, r6, pc}
 1575              	.L114:
 1576              		.align	2
 1577              	.L113:
 1578 004c 00000000 		.word	.LANCHOR1
 1579              		.cfi_endproc
 1580              	.LFE53:
 1581              		.size	gfx_drawPixel, .-gfx_drawPixel
 1582              		.section	.text.gfx_drawLine,"ax",%progbits
 1583              		.align	2
 1584              		.global	gfx_drawLine
 1585              		.code	16
 1586              		.thumb_func
 1587              		.type	gfx_drawLine, %function
 1588              	gfx_drawLine:
 1589              	.LFB55:
 476:..\..\Cypress-PSOC-OLED-master\Cypress-PSOC-OLED-master\OLED.cydsn/ssd1306.c **** 
 477:..\..\Cypress-PSOC-OLED-master\Cypress-PSOC-OLED-master\OLED.cydsn/ssd1306.c **** // always use this function for line drawing
 478:..\..\Cypress-PSOC-OLED-master\Cypress-PSOC-OLED-master\OLED.cydsn/ssd1306.c **** void gfx_drawLine( int16_t x0, int16_t y0, int16_t x1, int16_t y1, uint16_t color ){
 1590              		.loc 1 478 0
ARM GAS  C:\Users\boise\AppData\Local\Temp\ccDu5XGS.s 			page 39


 1591              		.cfi_startproc
 1592              		@ args = 4, pretend = 0, frame = 8
 1593              		@ frame_needed = 0, uses_anonymous_args = 0
 1594              	.LVL151:
 1595 0000 F0B5     		push	{r4, r5, r6, r7, lr}
 1596              		.cfi_def_cfa_offset 20
 1597              		.cfi_offset 4, -20
 1598              		.cfi_offset 5, -16
 1599              		.cfi_offset 6, -12
 1600              		.cfi_offset 7, -8
 1601              		.cfi_offset 14, -4
 1602 0002 5F46     		mov	r7, fp
 1603 0004 5646     		mov	r6, r10
 1604 0006 4D46     		mov	r5, r9
 1605 0008 4446     		mov	r4, r8
 1606 000a F0B4     		push	{r4, r5, r6, r7}
 1607              		.cfi_def_cfa_offset 36
 1608              		.cfi_offset 8, -36
 1609              		.cfi_offset 9, -32
 1610              		.cfi_offset 10, -28
 1611              		.cfi_offset 11, -24
 1612 000c 85B0     		sub	sp, sp, #20
 1613              		.cfi_def_cfa_offset 56
 1614 000e 0500     		movs	r5, r0
 1615 0010 0E00     		movs	r6, r1
 1616 0012 1700     		movs	r7, r2
 1617 0014 0EAA     		add	r2, sp, #56
 1618              	.LVL152:
 1619 0016 1288     		ldrh	r2, [r2]
 1620              	.LVL153:
 1621 0018 0292     		str	r2, [sp, #8]
 479:..\..\Cypress-PSOC-OLED-master\Cypress-PSOC-OLED-master\OLED.cydsn/ssd1306.c ****  
 480:..\..\Cypress-PSOC-OLED-master\Cypress-PSOC-OLED-master\OLED.cydsn/ssd1306.c ****     if( x0 == x1 || y0 == y1 ){
 1622              		.loc 1 480 0
 1623 001a B842     		cmp	r0, r7
 1624 001c 01D0     		beq	.L116
 1625              		.loc 1 480 0 is_stmt 0 discriminator 1
 1626 001e 9942     		cmp	r1, r3
 1627 0020 07D1     		bne	.L117
 1628              	.L116:
 481:..\..\Cypress-PSOC-OLED-master\Cypress-PSOC-OLED-master\OLED.cydsn/ssd1306.c ****         // vertical and horizontal lines can be drawn faster
 482:..\..\Cypress-PSOC-OLED-master\Cypress-PSOC-OLED-master\OLED.cydsn/ssd1306.c ****         gfx_hvLine( x0, y0, x1, y1, color );
 1629              		.loc 1 482 0 is_stmt 1
 1630 0022 029A     		ldr	r2, [sp, #8]
 1631 0024 0092     		str	r2, [sp]
 1632 0026 3A00     		movs	r2, r7
 1633 0028 3100     		movs	r1, r6
 1634              	.LVL154:
 1635 002a 2800     		movs	r0, r5
 1636              	.LVL155:
 1637 002c FFF7FEFF 		bl	gfx_hvLine
 1638              	.LVL156:
 483:..\..\Cypress-PSOC-OLED-master\Cypress-PSOC-OLED-master\OLED.cydsn/ssd1306.c ****         return;
 1639              		.loc 1 483 0
 1640 0030 4AE0     		b	.L115
 1641              	.LVL157:
 1642              	.L117:
ARM GAS  C:\Users\boise\AppData\Local\Temp\ccDu5XGS.s 			page 40


 484:..\..\Cypress-PSOC-OLED-master\Cypress-PSOC-OLED-master\OLED.cydsn/ssd1306.c ****     }
 485:..\..\Cypress-PSOC-OLED-master\Cypress-PSOC-OLED-master\OLED.cydsn/ssd1306.c ****     
 486:..\..\Cypress-PSOC-OLED-master\Cypress-PSOC-OLED-master\OLED.cydsn/ssd1306.c ****     int16_t t;
 487:..\..\Cypress-PSOC-OLED-master\Cypress-PSOC-OLED-master\OLED.cydsn/ssd1306.c ****     
 488:..\..\Cypress-PSOC-OLED-master\Cypress-PSOC-OLED-master\OLED.cydsn/ssd1306.c ****     int16_t steep = abs(y1 - y0) > abs(x1 - x0);
 1643              		.loc 1 488 0
 1644 0032 5A1A     		subs	r2, r3, r1
 1645 0034 D117     		asrs	r1, r2, #31
 1646              	.LVL158:
 1647 0036 5218     		adds	r2, r2, r1
 1648 0038 4A40     		eors	r2, r1
 1649 003a 9046     		mov	r8, r2
 1650 003c 3A1A     		subs	r2, r7, r0
 1651 003e D117     		asrs	r1, r2, #31
 1652 0040 5218     		adds	r2, r2, r1
 1653 0042 4A40     		eors	r2, r1
 1654 0044 9146     		mov	r9, r2
 1655              	.LVL159:
 489:..\..\Cypress-PSOC-OLED-master\Cypress-PSOC-OLED-master\OLED.cydsn/ssd1306.c ****     if( steep ){
 1656              		.loc 1 489 0
 1657 0046 9045     		cmp	r8, r2
 1658 0048 04DD     		ble	.L119
 1659 004a 3A00     		movs	r2, r7
 1660              	.LVL160:
 490:..\..\Cypress-PSOC-OLED-master\Cypress-PSOC-OLED-master\OLED.cydsn/ssd1306.c ****         t = x0; x0 = y0; y0 = t;
 491:..\..\Cypress-PSOC-OLED-master\Cypress-PSOC-OLED-master\OLED.cydsn/ssd1306.c ****         t = x1; x1 = y1; y1 = t;
 1661              		.loc 1 491 0
 1662 004c 1F00     		movs	r7, r3
 1663 004e 1300     		movs	r3, r2
 1664              	.LVL161:
 490:..\..\Cypress-PSOC-OLED-master\Cypress-PSOC-OLED-master\OLED.cydsn/ssd1306.c ****         t = x0; x0 = y0; y0 = t;
 1665              		.loc 1 490 0
 1666 0050 3500     		movs	r5, r6
 1667 0052 0600     		movs	r6, r0
 1668              	.L119:
 1669              	.LVL162:
 492:..\..\Cypress-PSOC-OLED-master\Cypress-PSOC-OLED-master\OLED.cydsn/ssd1306.c ****     }
 493:..\..\Cypress-PSOC-OLED-master\Cypress-PSOC-OLED-master\OLED.cydsn/ssd1306.c ****     if( x0 > x1 ){
 1670              		.loc 1 493 0
 1671 0054 BD42     		cmp	r5, r7
 1672 0056 05DD     		ble	.L120
 1673 0058 3200     		movs	r2, r6
 494:..\..\Cypress-PSOC-OLED-master\Cypress-PSOC-OLED-master\OLED.cydsn/ssd1306.c ****         t = x0; x0 = x1; x1 = t;
 495:..\..\Cypress-PSOC-OLED-master\Cypress-PSOC-OLED-master\OLED.cydsn/ssd1306.c ****         t = y0; y0 = y1; y1 = t;
 1674              		.loc 1 495 0
 1675 005a 1E00     		movs	r6, r3
 1676              	.LVL163:
 1677 005c 1300     		movs	r3, r2
 1678              	.LVL164:
 1679 005e 2A00     		movs	r2, r5
 494:..\..\Cypress-PSOC-OLED-master\Cypress-PSOC-OLED-master\OLED.cydsn/ssd1306.c ****         t = x0; x0 = x1; x1 = t;
 1680              		.loc 1 494 0
 1681 0060 3D00     		movs	r5, r7
 1682              	.LVL165:
 1683 0062 1700     		movs	r7, r2
 1684              	.LVL166:
 1685              	.L120:
ARM GAS  C:\Users\boise\AppData\Local\Temp\ccDu5XGS.s 			page 41


 496:..\..\Cypress-PSOC-OLED-master\Cypress-PSOC-OLED-master\OLED.cydsn/ssd1306.c ****     }
 497:..\..\Cypress-PSOC-OLED-master\Cypress-PSOC-OLED-master\OLED.cydsn/ssd1306.c ****     int16_t dx, dy;
 498:..\..\Cypress-PSOC-OLED-master\Cypress-PSOC-OLED-master\OLED.cydsn/ssd1306.c ****     dx = x1 - x0;
 1686              		.loc 1 498 0
 1687 0064 7A1B     		subs	r2, r7, r5
 1688 0066 92B2     		uxth	r2, r2
 1689 0068 9346     		mov	fp, r2
 1690 006a 14B2     		sxth	r4, r2
 1691              	.LVL167:
 499:..\..\Cypress-PSOC-OLED-master\Cypress-PSOC-OLED-master\OLED.cydsn/ssd1306.c ****     dy = abs(y1 - y0);
 1692              		.loc 1 499 0
 1693 006c 9A1B     		subs	r2, r3, r6
 1694 006e D117     		asrs	r1, r2, #31
 1695 0070 5218     		adds	r2, r2, r1
 1696 0072 4A40     		eors	r2, r1
 1697 0074 9246     		mov	r10, r2
 1698              	.LVL168:
 500:..\..\Cypress-PSOC-OLED-master\Cypress-PSOC-OLED-master\OLED.cydsn/ssd1306.c ****     int16_t err = dx / 2;
 1699              		.loc 1 500 0
 1700 0076 E20F     		lsrs	r2, r4, #31
 1701 0078 1419     		adds	r4, r2, r4
 1702              	.LVL169:
 1703 007a 6410     		asrs	r4, r4, #1
 1704              	.LVL170:
 501:..\..\Cypress-PSOC-OLED-master\Cypress-PSOC-OLED-master\OLED.cydsn/ssd1306.c ****     int16_t ystep;
 502:..\..\Cypress-PSOC-OLED-master\Cypress-PSOC-OLED-master\OLED.cydsn/ssd1306.c ****     if( y0 < y1 ){
 1705              		.loc 1 502 0
 1706 007c 9E42     		cmp	r6, r3
 1707 007e 02DA     		bge	.L129
 503:..\..\Cypress-PSOC-OLED-master\Cypress-PSOC-OLED-master\OLED.cydsn/ssd1306.c ****         ystep = 1;
 1708              		.loc 1 503 0
 1709 0080 0123     		movs	r3, #1
 1710              	.LVL171:
 1711 0082 0393     		str	r3, [sp, #12]
 1712 0084 1EE0     		b	.L122
 1713              	.LVL172:
 1714              	.L129:
 504:..\..\Cypress-PSOC-OLED-master\Cypress-PSOC-OLED-master\OLED.cydsn/ssd1306.c ****     }else{
 505:..\..\Cypress-PSOC-OLED-master\Cypress-PSOC-OLED-master\OLED.cydsn/ssd1306.c ****         ystep = -1;
 1715              		.loc 1 505 0
 1716 0086 0123     		movs	r3, #1
 1717              	.LVL173:
 1718 0088 5B42     		rsbs	r3, r3, #0
 1719 008a 0393     		str	r3, [sp, #12]
 1720 008c 1AE0     		b	.L122
 1721              	.LVL174:
 1722              	.L126:
 506:..\..\Cypress-PSOC-OLED-master\Cypress-PSOC-OLED-master\OLED.cydsn/ssd1306.c ****     }
 507:..\..\Cypress-PSOC-OLED-master\Cypress-PSOC-OLED-master\OLED.cydsn/ssd1306.c ****     for( ; x0<=x1; x0++ ){
 508:..\..\Cypress-PSOC-OLED-master\Cypress-PSOC-OLED-master\OLED.cydsn/ssd1306.c ****         if( steep ){
 1723              		.loc 1 508 0
 1724 008e C845     		cmp	r8, r9
 1725 0090 05DD     		ble	.L123
 509:..\..\Cypress-PSOC-OLED-master\Cypress-PSOC-OLED-master\OLED.cydsn/ssd1306.c ****             gfx_drawPixel( y0, x0, color );
 1726              		.loc 1 509 0
 1727 0092 029A     		ldr	r2, [sp, #8]
 1728 0094 2900     		movs	r1, r5
ARM GAS  C:\Users\boise\AppData\Local\Temp\ccDu5XGS.s 			page 42


 1729 0096 3000     		movs	r0, r6
 1730 0098 FFF7FEFF 		bl	gfx_drawPixel
 1731              	.LVL175:
 1732 009c 04E0     		b	.L124
 1733              	.L123:
 510:..\..\Cypress-PSOC-OLED-master\Cypress-PSOC-OLED-master\OLED.cydsn/ssd1306.c ****         }else{
 511:..\..\Cypress-PSOC-OLED-master\Cypress-PSOC-OLED-master\OLED.cydsn/ssd1306.c ****             gfx_drawPixel( x0, y0, color );
 1734              		.loc 1 511 0
 1735 009e 029A     		ldr	r2, [sp, #8]
 1736 00a0 3100     		movs	r1, r6
 1737 00a2 2800     		movs	r0, r5
 1738 00a4 FFF7FEFF 		bl	gfx_drawPixel
 1739              	.LVL176:
 1740              	.L124:
 512:..\..\Cypress-PSOC-OLED-master\Cypress-PSOC-OLED-master\OLED.cydsn/ssd1306.c ****         }
 513:..\..\Cypress-PSOC-OLED-master\Cypress-PSOC-OLED-master\OLED.cydsn/ssd1306.c ****         err -= dy;
 1741              		.loc 1 513 0
 1742 00a8 5346     		mov	r3, r10
 1743 00aa E41A     		subs	r4, r4, r3
 1744              	.LVL177:
 1745 00ac A3B2     		uxth	r3, r4
 1746 00ae 1CB2     		sxth	r4, r3
 1747              	.LVL178:
 514:..\..\Cypress-PSOC-OLED-master\Cypress-PSOC-OLED-master\OLED.cydsn/ssd1306.c ****         if( err < 0 ){
 1748              		.loc 1 514 0
 1749 00b0 002C     		cmp	r4, #0
 1750 00b2 05DA     		bge	.L125
 515:..\..\Cypress-PSOC-OLED-master\Cypress-PSOC-OLED-master\OLED.cydsn/ssd1306.c ****             y0 += ystep;
 1751              		.loc 1 515 0
 1752 00b4 039A     		ldr	r2, [sp, #12]
 1753 00b6 9446     		mov	ip, r2
 1754 00b8 6644     		add	r6, r6, ip
 1755              	.LVL179:
 1756 00ba 36B2     		sxth	r6, r6
 1757              	.LVL180:
 516:..\..\Cypress-PSOC-OLED-master\Cypress-PSOC-OLED-master\OLED.cydsn/ssd1306.c ****             err += dx;
 1758              		.loc 1 516 0
 1759 00bc 5B44     		add	r3, r3, fp
 1760 00be 1CB2     		sxth	r4, r3
 1761              	.LVL181:
 1762              	.L125:
 507:..\..\Cypress-PSOC-OLED-master\Cypress-PSOC-OLED-master\OLED.cydsn/ssd1306.c ****         if( steep ){
 1763              		.loc 1 507 0
 1764 00c0 0135     		adds	r5, r5, #1
 1765              	.LVL182:
 1766 00c2 2DB2     		sxth	r5, r5
 1767              	.LVL183:
 1768              	.L122:
 507:..\..\Cypress-PSOC-OLED-master\Cypress-PSOC-OLED-master\OLED.cydsn/ssd1306.c ****         if( steep ){
 1769              		.loc 1 507 0 is_stmt 0 discriminator 1
 1770 00c4 BD42     		cmp	r5, r7
 1771 00c6 E2DD     		ble	.L126
 1772              	.LVL184:
 1773              	.L115:
 517:..\..\Cypress-PSOC-OLED-master\Cypress-PSOC-OLED-master\OLED.cydsn/ssd1306.c ****         }
 518:..\..\Cypress-PSOC-OLED-master\Cypress-PSOC-OLED-master\OLED.cydsn/ssd1306.c ****     }
 519:..\..\Cypress-PSOC-OLED-master\Cypress-PSOC-OLED-master\OLED.cydsn/ssd1306.c **** }
ARM GAS  C:\Users\boise\AppData\Local\Temp\ccDu5XGS.s 			page 43


 1774              		.loc 1 519 0 is_stmt 1
 1775 00c8 05B0     		add	sp, sp, #20
 1776              		@ sp needed
 1777 00ca 3CBC     		pop	{r2, r3, r4, r5}
 1778 00cc 9046     		mov	r8, r2
 1779 00ce 9946     		mov	r9, r3
 1780 00d0 A246     		mov	r10, r4
 1781 00d2 AB46     		mov	fp, r5
 1782 00d4 F0BD     		pop	{r4, r5, r6, r7, pc}
 1783              		.cfi_endproc
 1784              	.LFE55:
 1785              		.size	gfx_drawLine, .-gfx_drawLine
 1786 00d6 C046     		.section	.text.gfx_drawRect,"ax",%progbits
 1787              		.align	2
 1788              		.global	gfx_drawRect
 1789              		.code	16
 1790              		.thumb_func
 1791              		.type	gfx_drawRect, %function
 1792              	gfx_drawRect:
 1793              	.LFB56:
 520:..\..\Cypress-PSOC-OLED-master\Cypress-PSOC-OLED-master\OLED.cydsn/ssd1306.c **** 
 521:..\..\Cypress-PSOC-OLED-master\Cypress-PSOC-OLED-master\OLED.cydsn/ssd1306.c **** void gfx_drawRect( int16_t x, int16_t y, int16_t w, int16_t h, uint16_t color ){
 1794              		.loc 1 521 0
 1795              		.cfi_startproc
 1796              		@ args = 4, pretend = 0, frame = 8
 1797              		@ frame_needed = 0, uses_anonymous_args = 0
 1798              	.LVL185:
 1799 0000 F0B5     		push	{r4, r5, r6, r7, lr}
 1800              		.cfi_def_cfa_offset 20
 1801              		.cfi_offset 4, -20
 1802              		.cfi_offset 5, -16
 1803              		.cfi_offset 6, -12
 1804              		.cfi_offset 7, -8
 1805              		.cfi_offset 14, -4
 1806 0002 85B0     		sub	sp, sp, #20
 1807              		.cfi_def_cfa_offset 40
 1808 0004 0700     		movs	r7, r0
 1809 0006 0E00     		movs	r6, r1
 1810 0008 1D00     		movs	r5, r3
 1811 000a 0AAB     		add	r3, sp, #40
 1812              	.LVL186:
 1813 000c 1C88     		ldrh	r4, [r3]
 522:..\..\Cypress-PSOC-OLED-master\Cypress-PSOC-OLED-master\OLED.cydsn/ssd1306.c ****     
 523:..\..\Cypress-PSOC-OLED-master\Cypress-PSOC-OLED-master\OLED.cydsn/ssd1306.c ****     gfx_drawLine( x, y, x+w-1, y, color );
 1814              		.loc 1 523 0
 1815 000e 8218     		adds	r2, r0, r2
 1816              	.LVL187:
 1817 0010 013A     		subs	r2, r2, #1
 1818 0012 13B2     		sxth	r3, r2
 1819              	.LVL188:
 1820 0014 1800     		movs	r0, r3
 1821              	.LVL189:
 1822 0016 0094     		str	r4, [sp]
 1823 0018 0B00     		movs	r3, r1
 1824 001a 0390     		str	r0, [sp, #12]
 1825 001c 0200     		movs	r2, r0
 1826 001e 3800     		movs	r0, r7
ARM GAS  C:\Users\boise\AppData\Local\Temp\ccDu5XGS.s 			page 44


 1827 0020 FFF7FEFF 		bl	gfx_drawLine
 1828              	.LVL190:
 524:..\..\Cypress-PSOC-OLED-master\Cypress-PSOC-OLED-master\OLED.cydsn/ssd1306.c ****     gfx_drawLine( x, y+h-1, x+w-1, y+h-1, color );
 1829              		.loc 1 524 0
 1830 0024 7519     		adds	r5, r6, r5
 1831 0026 013D     		subs	r5, r5, #1
 1832 0028 2DB2     		sxth	r5, r5
 1833 002a 0094     		str	r4, [sp]
 1834 002c 2B00     		movs	r3, r5
 1835 002e 039A     		ldr	r2, [sp, #12]
 1836 0030 2900     		movs	r1, r5
 1837 0032 3800     		movs	r0, r7
 1838 0034 FFF7FEFF 		bl	gfx_drawLine
 1839              	.LVL191:
 525:..\..\Cypress-PSOC-OLED-master\Cypress-PSOC-OLED-master\OLED.cydsn/ssd1306.c ****     gfx_drawLine( x, y, x, y+h-1, color );
 1840              		.loc 1 525 0
 1841 0038 0094     		str	r4, [sp]
 1842 003a 2B00     		movs	r3, r5
 1843 003c 3A00     		movs	r2, r7
 1844 003e 3100     		movs	r1, r6
 1845 0040 3800     		movs	r0, r7
 1846 0042 FFF7FEFF 		bl	gfx_drawLine
 1847              	.LVL192:
 526:..\..\Cypress-PSOC-OLED-master\Cypress-PSOC-OLED-master\OLED.cydsn/ssd1306.c ****     gfx_drawLine( x+w-1, y, x+w-1, y+h-1, color );
 1848              		.loc 1 526 0
 1849 0046 0094     		str	r4, [sp]
 1850 0048 2B00     		movs	r3, r5
 1851 004a 0398     		ldr	r0, [sp, #12]
 1852 004c 0200     		movs	r2, r0
 1853 004e 3100     		movs	r1, r6
 1854 0050 FFF7FEFF 		bl	gfx_drawLine
 1855              	.LVL193:
 527:..\..\Cypress-PSOC-OLED-master\Cypress-PSOC-OLED-master\OLED.cydsn/ssd1306.c **** }
 1856              		.loc 1 527 0
 1857 0054 05B0     		add	sp, sp, #20
 1858              		@ sp needed
 1859 0056 F0BD     		pop	{r4, r5, r6, r7, pc}
 1860              		.cfi_endproc
 1861              	.LFE56:
 1862              		.size	gfx_drawRect, .-gfx_drawRect
 1863              		.section	.text.gfx_fillRect,"ax",%progbits
 1864              		.align	2
 1865              		.global	gfx_fillRect
 1866              		.code	16
 1867              		.thumb_func
 1868              		.type	gfx_fillRect, %function
 1869              	gfx_fillRect:
 1870              	.LFB57:
 528:..\..\Cypress-PSOC-OLED-master\Cypress-PSOC-OLED-master\OLED.cydsn/ssd1306.c **** 
 529:..\..\Cypress-PSOC-OLED-master\Cypress-PSOC-OLED-master\OLED.cydsn/ssd1306.c **** void gfx_fillRect( int16_t x, int16_t y, int16_t w, int16_t h, uint16_t color ){
 1871              		.loc 1 529 0
 1872              		.cfi_startproc
 1873              		@ args = 4, pretend = 0, frame = 0
 1874              		@ frame_needed = 0, uses_anonymous_args = 0
 1875              	.LVL194:
 1876 0000 F0B5     		push	{r4, r5, r6, r7, lr}
 1877              		.cfi_def_cfa_offset 20
ARM GAS  C:\Users\boise\AppData\Local\Temp\ccDu5XGS.s 			page 45


 1878              		.cfi_offset 4, -20
 1879              		.cfi_offset 5, -16
 1880              		.cfi_offset 6, -12
 1881              		.cfi_offset 7, -8
 1882              		.cfi_offset 14, -4
 1883 0002 4F46     		mov	r7, r9
 1884 0004 4646     		mov	r6, r8
 1885 0006 C0B4     		push	{r6, r7}
 1886              		.cfi_def_cfa_offset 28
 1887              		.cfi_offset 8, -28
 1888              		.cfi_offset 9, -24
 1889 0008 83B0     		sub	sp, sp, #12
 1890              		.cfi_def_cfa_offset 40
 1891 000a 0500     		movs	r5, r0
 1892 000c 0E00     		movs	r6, r1
 1893 000e 1700     		movs	r7, r2
 1894 0010 9846     		mov	r8, r3
 1895 0012 0AAB     		add	r3, sp, #40
 1896              	.LVL195:
 1897 0014 1B88     		ldrh	r3, [r3]
 1898              	.LVL196:
 1899 0016 9946     		mov	r9, r3
 1900              	.LVL197:
 530:..\..\Cypress-PSOC-OLED-master\Cypress-PSOC-OLED-master\OLED.cydsn/ssd1306.c ****     int16_t i = 0;
 531:..\..\Cypress-PSOC-OLED-master\Cypress-PSOC-OLED-master\OLED.cydsn/ssd1306.c ****     if( h > w ){
 1901              		.loc 1 531 0
 1902 0018 9045     		cmp	r8, r2
 1903 001a 0FDC     		bgt	.L137
 1904 001c 0C00     		movs	r4, r1
 1905 001e 1EE0     		b	.L133
 1906              	.LVL198:
 1907              	.L134:
 532:..\..\Cypress-PSOC-OLED-master\Cypress-PSOC-OLED-master\OLED.cydsn/ssd1306.c ****         for( i = x ; i < x+w ; i++ ){
 533:..\..\Cypress-PSOC-OLED-master\Cypress-PSOC-OLED-master\OLED.cydsn/ssd1306.c ****             gfx_drawLine( i, y, i, y+h-1, color );
 1908              		.loc 1 533 0 discriminator 3
 1909 0020 4346     		mov	r3, r8
 1910 0022 F318     		adds	r3, r6, r3
 1911 0024 013B     		subs	r3, r3, #1
 1912 0026 1BB2     		sxth	r3, r3
 1913 0028 4A46     		mov	r2, r9
 1914 002a 0092     		str	r2, [sp]
 1915 002c 2200     		movs	r2, r4
 1916 002e 3100     		movs	r1, r6
 1917 0030 2000     		movs	r0, r4
 1918 0032 FFF7FEFF 		bl	gfx_drawLine
 1919              	.LVL199:
 532:..\..\Cypress-PSOC-OLED-master\Cypress-PSOC-OLED-master\OLED.cydsn/ssd1306.c ****         for( i = x ; i < x+w ; i++ ){
 1920              		.loc 1 532 0 discriminator 3
 1921 0036 0134     		adds	r4, r4, #1
 1922              	.LVL200:
 1923 0038 24B2     		sxth	r4, r4
 1924              	.LVL201:
 1925 003a 00E0     		b	.L132
 1926              	.LVL202:
 1927              	.L137:
 1928 003c 0400     		movs	r4, r0
 1929              	.LVL203:
ARM GAS  C:\Users\boise\AppData\Local\Temp\ccDu5XGS.s 			page 46


 1930              	.L132:
 532:..\..\Cypress-PSOC-OLED-master\Cypress-PSOC-OLED-master\OLED.cydsn/ssd1306.c ****         for( i = x ; i < x+w ; i++ ){
 1931              		.loc 1 532 0 is_stmt 0 discriminator 1
 1932 003e EB19     		adds	r3, r5, r7
 1933 0040 9C42     		cmp	r4, r3
 1934 0042 EDDB     		blt	.L134
 1935 0044 0FE0     		b	.L131
 1936              	.L136:
 534:..\..\Cypress-PSOC-OLED-master\Cypress-PSOC-OLED-master\OLED.cydsn/ssd1306.c ****         }
 535:..\..\Cypress-PSOC-OLED-master\Cypress-PSOC-OLED-master\OLED.cydsn/ssd1306.c ****     }else{
 536:..\..\Cypress-PSOC-OLED-master\Cypress-PSOC-OLED-master\OLED.cydsn/ssd1306.c ****         for( i = y ; i < y+h ; i++ ){
 537:..\..\Cypress-PSOC-OLED-master\Cypress-PSOC-OLED-master\OLED.cydsn/ssd1306.c ****             gfx_drawLine( x, i, x+w-1, i, color );
 1937              		.loc 1 537 0 is_stmt 1 discriminator 3
 1938 0046 EA19     		adds	r2, r5, r7
 1939 0048 013A     		subs	r2, r2, #1
 1940 004a 12B2     		sxth	r2, r2
 1941 004c 4B46     		mov	r3, r9
 1942 004e 0093     		str	r3, [sp]
 1943 0050 2300     		movs	r3, r4
 1944 0052 2100     		movs	r1, r4
 1945 0054 2800     		movs	r0, r5
 1946 0056 FFF7FEFF 		bl	gfx_drawLine
 1947              	.LVL204:
 536:..\..\Cypress-PSOC-OLED-master\Cypress-PSOC-OLED-master\OLED.cydsn/ssd1306.c ****             gfx_drawLine( x, i, x+w-1, i, color );
 1948              		.loc 1 536 0 discriminator 3
 1949 005a 0134     		adds	r4, r4, #1
 1950              	.LVL205:
 1951 005c 24B2     		sxth	r4, r4
 1952              	.LVL206:
 1953              	.L133:
 536:..\..\Cypress-PSOC-OLED-master\Cypress-PSOC-OLED-master\OLED.cydsn/ssd1306.c ****             gfx_drawLine( x, i, x+w-1, i, color );
 1954              		.loc 1 536 0 is_stmt 0 discriminator 1
 1955 005e 4346     		mov	r3, r8
 1956 0060 F318     		adds	r3, r6, r3
 1957 0062 9C42     		cmp	r4, r3
 1958 0064 EFDB     		blt	.L136
 1959              	.L131:
 538:..\..\Cypress-PSOC-OLED-master\Cypress-PSOC-OLED-master\OLED.cydsn/ssd1306.c ****         }
 539:..\..\Cypress-PSOC-OLED-master\Cypress-PSOC-OLED-master\OLED.cydsn/ssd1306.c ****     }
 540:..\..\Cypress-PSOC-OLED-master\Cypress-PSOC-OLED-master\OLED.cydsn/ssd1306.c **** }
 1960              		.loc 1 540 0 is_stmt 1
 1961 0066 03B0     		add	sp, sp, #12
 1962              		@ sp needed
 1963              	.LVL207:
 1964 0068 0CBC     		pop	{r2, r3}
 1965 006a 9046     		mov	r8, r2
 1966 006c 9946     		mov	r9, r3
 1967 006e F0BD     		pop	{r4, r5, r6, r7, pc}
 1968              		.cfi_endproc
 1969              	.LFE57:
 1970              		.size	gfx_fillRect, .-gfx_fillRect
 1971              		.section	.text.gfx_drawCircle,"ax",%progbits
 1972              		.align	2
 1973              		.global	gfx_drawCircle
 1974              		.code	16
 1975              		.thumb_func
 1976              		.type	gfx_drawCircle, %function
ARM GAS  C:\Users\boise\AppData\Local\Temp\ccDu5XGS.s 			page 47


 1977              	gfx_drawCircle:
 1978              	.LFB58:
 541:..\..\Cypress-PSOC-OLED-master\Cypress-PSOC-OLED-master\OLED.cydsn/ssd1306.c **** 
 542:..\..\Cypress-PSOC-OLED-master\Cypress-PSOC-OLED-master\OLED.cydsn/ssd1306.c **** 
 543:..\..\Cypress-PSOC-OLED-master\Cypress-PSOC-OLED-master\OLED.cydsn/ssd1306.c **** // circle outline
 544:..\..\Cypress-PSOC-OLED-master\Cypress-PSOC-OLED-master\OLED.cydsn/ssd1306.c **** void gfx_drawCircle( int16_t x0, int16_t y0, int16_t r,uint16_t color ){
 1979              		.loc 1 544 0
 1980              		.cfi_startproc
 1981              		@ args = 0, pretend = 0, frame = 24
 1982              		@ frame_needed = 0, uses_anonymous_args = 0
 1983              	.LVL208:
 1984 0000 F0B5     		push	{r4, r5, r6, r7, lr}
 1985              		.cfi_def_cfa_offset 20
 1986              		.cfi_offset 4, -20
 1987              		.cfi_offset 5, -16
 1988              		.cfi_offset 6, -12
 1989              		.cfi_offset 7, -8
 1990              		.cfi_offset 14, -4
 1991 0002 5F46     		mov	r7, fp
 1992 0004 5646     		mov	r6, r10
 1993 0006 4D46     		mov	r5, r9
 1994 0008 4446     		mov	r4, r8
 1995 000a F0B4     		push	{r4, r5, r6, r7}
 1996              		.cfi_def_cfa_offset 36
 1997              		.cfi_offset 8, -36
 1998              		.cfi_offset 9, -32
 1999              		.cfi_offset 10, -28
 2000              		.cfi_offset 11, -24
 2001 000c 87B0     		sub	sp, sp, #28
 2002              		.cfi_def_cfa_offset 64
 2003 000e 0600     		movs	r6, r0
 2004 0010 0D00     		movs	r5, r1
 2005 0012 0292     		str	r2, [sp, #8]
 2006 0014 1800     		movs	r0, r3
 2007              	.LVL209:
 545:..\..\Cypress-PSOC-OLED-master\Cypress-PSOC-OLED-master\OLED.cydsn/ssd1306.c **** 
 546:..\..\Cypress-PSOC-OLED-master\Cypress-PSOC-OLED-master\OLED.cydsn/ssd1306.c ****     int16_t f = 1 - r;
 2008              		.loc 1 546 0
 2009 0016 97B2     		uxth	r7, r2
 2010 0018 0124     		movs	r4, #1
 2011 001a E41B     		subs	r4, r4, r7
 2012 001c 24B2     		sxth	r4, r4
 2013              	.LVL210:
 547:..\..\Cypress-PSOC-OLED-master\Cypress-PSOC-OLED-master\OLED.cydsn/ssd1306.c ****     int16_t ddF_x = 1;
 548:..\..\Cypress-PSOC-OLED-master\Cypress-PSOC-OLED-master\OLED.cydsn/ssd1306.c ****     int16_t ddF_y = -2 * r;
 2014              		.loc 1 548 0
 2015 001e FB03     		lsls	r3, r7, #15
 2016              	.LVL211:
 2017 0020 DB1B     		subs	r3, r3, r7
 2018 0022 5A00     		lsls	r2, r3, #1
 2019              	.LVL212:
 2020 0024 13B2     		sxth	r3, r2
 2021 0026 0593     		str	r3, [sp, #20]
 2022              	.LVL213:
 549:..\..\Cypress-PSOC-OLED-master\Cypress-PSOC-OLED-master\OLED.cydsn/ssd1306.c ****     int16_t x = 0;
 550:..\..\Cypress-PSOC-OLED-master\Cypress-PSOC-OLED-master\OLED.cydsn/ssd1306.c ****     int16_t y = r;
 551:..\..\Cypress-PSOC-OLED-master\Cypress-PSOC-OLED-master\OLED.cydsn/ssd1306.c ****     gfx_drawPixel( x0 , y0+r, color );
ARM GAS  C:\Users\boise\AppData\Local\Temp\ccDu5XGS.s 			page 48


 2023              		.loc 1 551 0
 2024 0028 8BB2     		uxth	r3, r1
 2025 002a 9A46     		mov	r10, r3
 2026 002c F918     		adds	r1, r7, r3
 2027              	.LVL214:
 2028 002e 09B2     		sxth	r1, r1
 2029 0030 0190     		str	r0, [sp, #4]
 2030 0032 0200     		movs	r2, r0
 2031 0034 3000     		movs	r0, r6
 2032 0036 FFF7FEFF 		bl	gfx_drawPixel
 2033              	.LVL215:
 552:..\..\Cypress-PSOC-OLED-master\Cypress-PSOC-OLED-master\OLED.cydsn/ssd1306.c ****     gfx_drawPixel( x0 , y0-r, color );
 2034              		.loc 1 552 0
 2035 003a 5346     		mov	r3, r10
 2036 003c D91B     		subs	r1, r3, r7
 2037 003e 09B2     		sxth	r1, r1
 2038 0040 019A     		ldr	r2, [sp, #4]
 2039 0042 3000     		movs	r0, r6
 2040 0044 FFF7FEFF 		bl	gfx_drawPixel
 2041              	.LVL216:
 553:..\..\Cypress-PSOC-OLED-master\Cypress-PSOC-OLED-master\OLED.cydsn/ssd1306.c ****     gfx_drawPixel( x0+r, y0 , color );
 2042              		.loc 1 553 0
 2043 0048 B3B2     		uxth	r3, r6
 2044 004a 9B46     		mov	fp, r3
 2045 004c F818     		adds	r0, r7, r3
 2046 004e 00B2     		sxth	r0, r0
 2047 0050 019E     		ldr	r6, [sp, #4]
 2048 0052 3200     		movs	r2, r6
 2049 0054 2900     		movs	r1, r5
 2050 0056 FFF7FEFF 		bl	gfx_drawPixel
 2051              	.LVL217:
 554:..\..\Cypress-PSOC-OLED-master\Cypress-PSOC-OLED-master\OLED.cydsn/ssd1306.c ****     gfx_drawPixel( x0-r, y0 , color );
 2052              		.loc 1 554 0
 2053 005a 5B46     		mov	r3, fp
 2054 005c D81B     		subs	r0, r3, r7
 2055 005e 00B2     		sxth	r0, r0
 2056 0060 3200     		movs	r2, r6
 2057 0062 2900     		movs	r1, r5
 2058 0064 FFF7FEFF 		bl	gfx_drawPixel
 2059              	.LVL218:
 549:..\..\Cypress-PSOC-OLED-master\Cypress-PSOC-OLED-master\OLED.cydsn/ssd1306.c ****     int16_t y = r;
 2060              		.loc 1 549 0
 2061 0068 0023     		movs	r3, #0
 547:..\..\Cypress-PSOC-OLED-master\Cypress-PSOC-OLED-master\OLED.cydsn/ssd1306.c ****     int16_t ddF_y = -2 * r;
 2062              		.loc 1 547 0
 2063 006a 0122     		movs	r2, #1
 2064 006c 0392     		str	r2, [sp, #12]
 2065 006e A046     		mov	r8, r4
 2066 0070 9946     		mov	r9, r3
 555:..\..\Cypress-PSOC-OLED-master\Cypress-PSOC-OLED-master\OLED.cydsn/ssd1306.c ****     while( x < y ){
 2067              		.loc 1 555 0
 2068 0072 5FE0     		b	.L139
 2069              	.LVL219:
 2070              	.L141:
 556:..\..\Cypress-PSOC-OLED-master\Cypress-PSOC-OLED-master\OLED.cydsn/ssd1306.c ****         if( f >= 0 ){
 2071              		.loc 1 556 0
 2072 0074 4346     		mov	r3, r8
ARM GAS  C:\Users\boise\AppData\Local\Temp\ccDu5XGS.s 			page 49


 2073 0076 002B     		cmp	r3, #0
 2074 0078 0BDB     		blt	.L140
 557:..\..\Cypress-PSOC-OLED-master\Cypress-PSOC-OLED-master\OLED.cydsn/ssd1306.c ****             y--;
 2075              		.loc 1 557 0
 2076 007a 029B     		ldr	r3, [sp, #8]
 2077 007c 013B     		subs	r3, r3, #1
 2078 007e 1BB2     		sxth	r3, r3
 2079 0080 0293     		str	r3, [sp, #8]
 2080              	.LVL220:
 558:..\..\Cypress-PSOC-OLED-master\Cypress-PSOC-OLED-master\OLED.cydsn/ssd1306.c ****             ddF_y += 2;
 2081              		.loc 1 558 0
 2082 0082 059B     		ldr	r3, [sp, #20]
 2083 0084 0233     		adds	r3, r3, #2
 2084 0086 9BB2     		uxth	r3, r3
 2085 0088 1AB2     		sxth	r2, r3
 2086 008a 0592     		str	r2, [sp, #20]
 2087              	.LVL221:
 559:..\..\Cypress-PSOC-OLED-master\Cypress-PSOC-OLED-master\OLED.cydsn/ssd1306.c ****             f += ddF_y;
 2088              		.loc 1 559 0
 2089 008c 4344     		add	r3, r3, r8
 2090 008e 1BB2     		sxth	r3, r3
 2091 0090 9846     		mov	r8, r3
 2092              	.LVL222:
 2093              	.L140:
 560:..\..\Cypress-PSOC-OLED-master\Cypress-PSOC-OLED-master\OLED.cydsn/ssd1306.c ****         }
 561:..\..\Cypress-PSOC-OLED-master\Cypress-PSOC-OLED-master\OLED.cydsn/ssd1306.c ****         x++;
 2094              		.loc 1 561 0
 2095 0092 4D46     		mov	r5, r9
 2096 0094 0135     		adds	r5, r5, #1
 2097 0096 ADB2     		uxth	r5, r5
 2098 0098 2BB2     		sxth	r3, r5
 2099 009a 9946     		mov	r9, r3
 2100              	.LVL223:
 562:..\..\Cypress-PSOC-OLED-master\Cypress-PSOC-OLED-master\OLED.cydsn/ssd1306.c ****         ddF_x += 2;
 2101              		.loc 1 562 0
 2102 009c 039B     		ldr	r3, [sp, #12]
 2103 009e 0233     		adds	r3, r3, #2
 2104 00a0 9BB2     		uxth	r3, r3
 2105 00a2 1AB2     		sxth	r2, r3
 2106 00a4 0392     		str	r2, [sp, #12]
 2107              	.LVL224:
 563:..\..\Cypress-PSOC-OLED-master\Cypress-PSOC-OLED-master\OLED.cydsn/ssd1306.c ****         f += ddF_x;
 2108              		.loc 1 563 0
 2109 00a6 4344     		add	r3, r3, r8
 2110 00a8 1BB2     		sxth	r3, r3
 2111 00aa 9846     		mov	r8, r3
 2112              	.LVL225:
 564:..\..\Cypress-PSOC-OLED-master\Cypress-PSOC-OLED-master\OLED.cydsn/ssd1306.c ****         gfx_drawPixel( x0 + x, y0 + y, color );
 2113              		.loc 1 564 0
 2114 00ac 5B46     		mov	r3, fp
 2115 00ae 5B19     		adds	r3, r3, r5
 2116 00b0 1BB2     		sxth	r3, r3
 2117 00b2 6A46     		mov	r2, sp
 2118 00b4 1689     		ldrh	r6, [r2, #8]
 2119 00b6 5246     		mov	r2, r10
 2120 00b8 9719     		adds	r7, r2, r6
 2121 00ba 3FB2     		sxth	r7, r7
ARM GAS  C:\Users\boise\AppData\Local\Temp\ccDu5XGS.s 			page 50


 2122 00bc 019A     		ldr	r2, [sp, #4]
 2123 00be 3900     		movs	r1, r7
 2124 00c0 0493     		str	r3, [sp, #16]
 2125 00c2 1800     		movs	r0, r3
 2126 00c4 FFF7FEFF 		bl	gfx_drawPixel
 2127              	.LVL226:
 565:..\..\Cypress-PSOC-OLED-master\Cypress-PSOC-OLED-master\OLED.cydsn/ssd1306.c ****         gfx_drawPixel( x0 - x, y0 + y, color );
 2128              		.loc 1 565 0
 2129 00c8 5A46     		mov	r2, fp
 2130 00ca 541B     		subs	r4, r2, r5
 2131 00cc 24B2     		sxth	r4, r4
 2132 00ce 019A     		ldr	r2, [sp, #4]
 2133 00d0 3900     		movs	r1, r7
 2134 00d2 2000     		movs	r0, r4
 2135 00d4 FFF7FEFF 		bl	gfx_drawPixel
 2136              	.LVL227:
 566:..\..\Cypress-PSOC-OLED-master\Cypress-PSOC-OLED-master\OLED.cydsn/ssd1306.c ****         gfx_drawPixel( x0 + x, y0 - y, color );
 2137              		.loc 1 566 0
 2138 00d8 5246     		mov	r2, r10
 2139 00da 971B     		subs	r7, r2, r6
 2140 00dc 3FB2     		sxth	r7, r7
 2141 00de 019A     		ldr	r2, [sp, #4]
 2142 00e0 3900     		movs	r1, r7
 2143 00e2 0498     		ldr	r0, [sp, #16]
 2144 00e4 FFF7FEFF 		bl	gfx_drawPixel
 2145              	.LVL228:
 567:..\..\Cypress-PSOC-OLED-master\Cypress-PSOC-OLED-master\OLED.cydsn/ssd1306.c ****         gfx_drawPixel( x0 - x, y0 - y, color );
 2146              		.loc 1 567 0
 2147 00e8 019A     		ldr	r2, [sp, #4]
 2148 00ea 3900     		movs	r1, r7
 2149 00ec 2000     		movs	r0, r4
 2150 00ee FFF7FEFF 		bl	gfx_drawPixel
 2151              	.LVL229:
 568:..\..\Cypress-PSOC-OLED-master\Cypress-PSOC-OLED-master\OLED.cydsn/ssd1306.c ****         gfx_drawPixel( x0 + y, y0 + x, color );
 2152              		.loc 1 568 0
 2153 00f2 5B46     		mov	r3, fp
 2154 00f4 9F19     		adds	r7, r3, r6
 2155 00f6 3FB2     		sxth	r7, r7
 2156 00f8 5346     		mov	r3, r10
 2157 00fa 5C19     		adds	r4, r3, r5
 2158 00fc 24B2     		sxth	r4, r4
 2159 00fe 019A     		ldr	r2, [sp, #4]
 2160 0100 2100     		movs	r1, r4
 2161 0102 3800     		movs	r0, r7
 2162 0104 FFF7FEFF 		bl	gfx_drawPixel
 2163              	.LVL230:
 569:..\..\Cypress-PSOC-OLED-master\Cypress-PSOC-OLED-master\OLED.cydsn/ssd1306.c ****         gfx_drawPixel( x0 - y, y0 + x, color );
 2164              		.loc 1 569 0
 2165 0108 5B46     		mov	r3, fp
 2166 010a 9E1B     		subs	r6, r3, r6
 2167 010c 36B2     		sxth	r6, r6
 2168 010e 019A     		ldr	r2, [sp, #4]
 2169 0110 2100     		movs	r1, r4
 2170 0112 3000     		movs	r0, r6
 2171 0114 FFF7FEFF 		bl	gfx_drawPixel
 2172              	.LVL231:
 570:..\..\Cypress-PSOC-OLED-master\Cypress-PSOC-OLED-master\OLED.cydsn/ssd1306.c ****         gfx_drawPixel( x0 + y, y0 - x, color );
ARM GAS  C:\Users\boise\AppData\Local\Temp\ccDu5XGS.s 			page 51


 2173              		.loc 1 570 0
 2174 0118 5346     		mov	r3, r10
 2175 011a 5D1B     		subs	r5, r3, r5
 2176 011c 2DB2     		sxth	r5, r5
 2177 011e 019C     		ldr	r4, [sp, #4]
 2178 0120 2200     		movs	r2, r4
 2179 0122 2900     		movs	r1, r5
 2180 0124 3800     		movs	r0, r7
 2181 0126 FFF7FEFF 		bl	gfx_drawPixel
 2182              	.LVL232:
 571:..\..\Cypress-PSOC-OLED-master\Cypress-PSOC-OLED-master\OLED.cydsn/ssd1306.c ****         gfx_drawPixel( x0 - y, y0 - x, color );
 2183              		.loc 1 571 0
 2184 012a 2200     		movs	r2, r4
 2185 012c 2900     		movs	r1, r5
 2186 012e 3000     		movs	r0, r6
 2187 0130 FFF7FEFF 		bl	gfx_drawPixel
 2188              	.LVL233:
 2189              	.L139:
 555:..\..\Cypress-PSOC-OLED-master\Cypress-PSOC-OLED-master\OLED.cydsn/ssd1306.c ****         if( f >= 0 ){
 2190              		.loc 1 555 0
 2191 0134 029B     		ldr	r3, [sp, #8]
 2192 0136 9945     		cmp	r9, r3
 2193 0138 9CDB     		blt	.L141
 572:..\..\Cypress-PSOC-OLED-master\Cypress-PSOC-OLED-master\OLED.cydsn/ssd1306.c ****     }
 573:..\..\Cypress-PSOC-OLED-master\Cypress-PSOC-OLED-master\OLED.cydsn/ssd1306.c **** }
 2194              		.loc 1 573 0
 2195 013a 07B0     		add	sp, sp, #28
 2196              		@ sp needed
 2197              	.LVL234:
 2198              	.LVL235:
 2199              	.LVL236:
 2200 013c 3CBC     		pop	{r2, r3, r4, r5}
 2201 013e 9046     		mov	r8, r2
 2202 0140 9946     		mov	r9, r3
 2203 0142 A246     		mov	r10, r4
 2204 0144 AB46     		mov	fp, r5
 2205 0146 F0BD     		pop	{r4, r5, r6, r7, pc}
 2206              		.cfi_endproc
 2207              	.LFE58:
 2208              		.size	gfx_drawCircle, .-gfx_drawCircle
 2209              		.section	.text.gfx_drawTriangle,"ax",%progbits
 2210              		.align	2
 2211              		.global	gfx_drawTriangle
 2212              		.code	16
 2213              		.thumb_func
 2214              		.type	gfx_drawTriangle, %function
 2215              	gfx_drawTriangle:
 2216              	.LFB59:
 574:..\..\Cypress-PSOC-OLED-master\Cypress-PSOC-OLED-master\OLED.cydsn/ssd1306.c **** 
 575:..\..\Cypress-PSOC-OLED-master\Cypress-PSOC-OLED-master\OLED.cydsn/ssd1306.c **** void gfx_drawTriangle( int16_t x0, int16_t y0,int16_t x1, int16_t y1, int16_t x2, int16_t y2, uint1
 2217              		.loc 1 575 0
 2218              		.cfi_startproc
 2219              		@ args = 12, pretend = 0, frame = 16
 2220              		@ frame_needed = 0, uses_anonymous_args = 0
 2221              	.LVL237:
 2222 0000 F0B5     		push	{r4, r5, r6, r7, lr}
 2223              		.cfi_def_cfa_offset 20
ARM GAS  C:\Users\boise\AppData\Local\Temp\ccDu5XGS.s 			page 52


 2224              		.cfi_offset 4, -20
 2225              		.cfi_offset 5, -16
 2226              		.cfi_offset 6, -12
 2227              		.cfi_offset 7, -8
 2228              		.cfi_offset 14, -4
 2229 0002 87B0     		sub	sp, sp, #28
 2230              		.cfi_def_cfa_offset 48
 2231 0004 1F00     		movs	r7, r3
 2232 0006 0CAB     		add	r3, sp, #48
 2233              	.LVL238:
 2234 0008 0024     		movs	r4, #0
 2235 000a 1C5F     		ldrsh	r4, [r3, r4]
 2236              	.LVL239:
 2237 000c 0DAB     		add	r3, sp, #52
 2238              	.LVL240:
 2239 000e 0025     		movs	r5, #0
 2240 0010 5D5F     		ldrsh	r5, [r3, r5]
 2241              	.LVL241:
 2242 0012 0EAB     		add	r3, sp, #56
 2243              	.LVL242:
 2244 0014 1E88     		ldrh	r6, [r3]
 576:..\..\Cypress-PSOC-OLED-master\Cypress-PSOC-OLED-master\OLED.cydsn/ssd1306.c ****     
 577:..\..\Cypress-PSOC-OLED-master\Cypress-PSOC-OLED-master\OLED.cydsn/ssd1306.c ****     gfx_drawLine( x0, y0, x1, y1, color );
 2245              		.loc 1 577 0
 2246 0016 0096     		str	r6, [sp]
 2247 0018 3B00     		movs	r3, r7
 2248              	.LVL243:
 2249 001a 0592     		str	r2, [sp, #20]
 2250 001c 0491     		str	r1, [sp, #16]
 2251 001e 0390     		str	r0, [sp, #12]
 2252 0020 FFF7FEFF 		bl	gfx_drawLine
 2253              	.LVL244:
 578:..\..\Cypress-PSOC-OLED-master\Cypress-PSOC-OLED-master\OLED.cydsn/ssd1306.c ****     gfx_drawLine( x1, y1, x2, y2, color );
 2254              		.loc 1 578 0
 2255 0024 0096     		str	r6, [sp]
 2256 0026 2B00     		movs	r3, r5
 2257 0028 2200     		movs	r2, r4
 2258 002a 3900     		movs	r1, r7
 2259 002c 0598     		ldr	r0, [sp, #20]
 2260 002e FFF7FEFF 		bl	gfx_drawLine
 2261              	.LVL245:
 579:..\..\Cypress-PSOC-OLED-master\Cypress-PSOC-OLED-master\OLED.cydsn/ssd1306.c ****     gfx_drawLine( x2, y2, x0, y0, color );
 2262              		.loc 1 579 0
 2263 0032 0096     		str	r6, [sp]
 2264 0034 049B     		ldr	r3, [sp, #16]
 2265 0036 039A     		ldr	r2, [sp, #12]
 2266 0038 2900     		movs	r1, r5
 2267 003a 2000     		movs	r0, r4
 2268 003c FFF7FEFF 		bl	gfx_drawLine
 2269              	.LVL246:
 580:..\..\Cypress-PSOC-OLED-master\Cypress-PSOC-OLED-master\OLED.cydsn/ssd1306.c **** }
 2270              		.loc 1 580 0
 2271 0040 07B0     		add	sp, sp, #28
 2272              		@ sp needed
 2273 0042 F0BD     		pop	{r4, r5, r6, r7, pc}
 2274              		.cfi_endproc
 2275              	.LFE59:
ARM GAS  C:\Users\boise\AppData\Local\Temp\ccDu5XGS.s 			page 53


 2276              		.size	gfx_drawTriangle, .-gfx_drawTriangle
 2277              		.section	.text.gfx_drawChar,"ax",%progbits
 2278              		.align	2
 2279              		.global	gfx_drawChar
 2280              		.code	16
 2281              		.thumb_func
 2282              		.type	gfx_drawChar, %function
 2283              	gfx_drawChar:
 2284              	.LFB60:
 581:..\..\Cypress-PSOC-OLED-master\Cypress-PSOC-OLED-master\OLED.cydsn/ssd1306.c **** 
 582:..\..\Cypress-PSOC-OLED-master\Cypress-PSOC-OLED-master\OLED.cydsn/ssd1306.c **** 
 583:..\..\Cypress-PSOC-OLED-master\Cypress-PSOC-OLED-master\OLED.cydsn/ssd1306.c **** // Draw a character
 584:..\..\Cypress-PSOC-OLED-master\Cypress-PSOC-OLED-master\OLED.cydsn/ssd1306.c **** void gfx_drawChar( int16_t x, int16_t y, unsigned char c,uint16_t color, uint16_t bg, uint8_t size)
 2285              		.loc 1 584 0
 2286              		.cfi_startproc
 2287              		@ args = 8, pretend = 0, frame = 8
 2288              		@ frame_needed = 0, uses_anonymous_args = 0
 2289              	.LVL247:
 2290 0000 F0B5     		push	{r4, r5, r6, r7, lr}
 2291              		.cfi_def_cfa_offset 20
 2292              		.cfi_offset 4, -20
 2293              		.cfi_offset 5, -16
 2294              		.cfi_offset 6, -12
 2295              		.cfi_offset 7, -8
 2296              		.cfi_offset 14, -4
 2297 0002 5F46     		mov	r7, fp
 2298 0004 5646     		mov	r6, r10
 2299 0006 4D46     		mov	r5, r9
 2300 0008 4446     		mov	r4, r8
 2301 000a F0B4     		push	{r4, r5, r6, r7}
 2302              		.cfi_def_cfa_offset 36
 2303              		.cfi_offset 8, -36
 2304              		.cfi_offset 9, -32
 2305              		.cfi_offset 10, -28
 2306              		.cfi_offset 11, -24
 2307 000c 85B0     		sub	sp, sp, #20
 2308              		.cfi_def_cfa_offset 56
 2309 000e 8146     		mov	r9, r0
 2310 0010 8A46     		mov	r10, r1
 2311 0012 0392     		str	r2, [sp, #12]
 2312 0014 9846     		mov	r8, r3
 2313 0016 0EAB     		add	r3, sp, #56
 2314              	.LVL248:
 2315 0018 1B88     		ldrh	r3, [r3]
 2316              	.LVL249:
 2317 001a 9B46     		mov	fp, r3
 2318 001c 0FAB     		add	r3, sp, #60
 2319              	.LVL250:
 2320 001e 1E78     		ldrb	r6, [r3]
 585:..\..\Cypress-PSOC-OLED-master\Cypress-PSOC-OLED-master\OLED.cydsn/ssd1306.c ****     if( (x >= _width) || // Clip right
 2321              		.loc 1 585 0
 2322 0020 3A4B     		ldr	r3, .L155
 2323              	.LVL251:
 2324 0022 0222     		movs	r2, #2
 2325 0024 9B5E     		ldrsh	r3, [r3, r2]
 2326              	.LVL252:
 2327 0026 8342     		cmp	r3, r0
ARM GAS  C:\Users\boise\AppData\Local\Temp\ccDu5XGS.s 			page 54


 2328 0028 68DD     		ble	.L143
 586:..\..\Cypress-PSOC-OLED-master\Cypress-PSOC-OLED-master\OLED.cydsn/ssd1306.c ****         (y >= _height) || // Clip bottom
 2329              		.loc 1 586 0 discriminator 1
 2330 002a 384B     		ldr	r3, .L155
 2331 002c 0422     		movs	r2, #4
 2332 002e 9B5E     		ldrsh	r3, [r3, r2]
 585:..\..\Cypress-PSOC-OLED-master\Cypress-PSOC-OLED-master\OLED.cydsn/ssd1306.c ****     if( (x >= _width) || // Clip right
 2333              		.loc 1 585 0 discriminator 1
 2334 0030 8B42     		cmp	r3, r1
 2335 0032 63DD     		ble	.L143
 587:..\..\Cypress-PSOC-OLED-master\Cypress-PSOC-OLED-master\OLED.cydsn/ssd1306.c ****         ((x + 6 * size - 1) < 0) || // Clip left
 2336              		.loc 1 587 0
 2337 0034 7200     		lsls	r2, r6, #1
 2338 0036 9219     		adds	r2, r2, r6
 2339 0038 5300     		lsls	r3, r2, #1
 2340 003a 4B44     		add	r3, r3, r9
 586:..\..\Cypress-PSOC-OLED-master\Cypress-PSOC-OLED-master\OLED.cydsn/ssd1306.c ****         (y >= _height) || // Clip bottom
 2341              		.loc 1 586 0
 2342 003c 012B     		cmp	r3, #1
 2343 003e 5DD4     		bmi	.L143
 588:..\..\Cypress-PSOC-OLED-master\Cypress-PSOC-OLED-master\OLED.cydsn/ssd1306.c ****         ((y + 8 * size - 1) < 0)) // Clip top
 2344              		.loc 1 588 0
 2345 0040 F300     		lsls	r3, r6, #3
 2346 0042 5344     		add	r3, r3, r10
 587:..\..\Cypress-PSOC-OLED-master\Cypress-PSOC-OLED-master\OLED.cydsn/ssd1306.c ****         ((x + 6 * size - 1) < 0) || // Clip left
 2347              		.loc 1 587 0
 2348 0044 012B     		cmp	r3, #1
 2349 0046 59D4     		bmi	.L143
 2350 0048 0027     		movs	r7, #0
 2351 004a 55E0     		b	.L145
 2352              	.LVL253:
 2353              	.L153:
 2354              	.LBB7:
 589:..\..\Cypress-PSOC-OLED-master\Cypress-PSOC-OLED-master\OLED.cydsn/ssd1306.c ****         return;
 590:..\..\Cypress-PSOC-OLED-master\Cypress-PSOC-OLED-master\OLED.cydsn/ssd1306.c **** 
 591:..\..\Cypress-PSOC-OLED-master\Cypress-PSOC-OLED-master\OLED.cydsn/ssd1306.c ****     int8_t i = 0;
 592:..\..\Cypress-PSOC-OLED-master\Cypress-PSOC-OLED-master\OLED.cydsn/ssd1306.c ****     for( i = 0 ; i < 6 ; i++ ){
 593:..\..\Cypress-PSOC-OLED-master\Cypress-PSOC-OLED-master\OLED.cydsn/ssd1306.c ****         uint8_t line;
 594:..\..\Cypress-PSOC-OLED-master\Cypress-PSOC-OLED-master\OLED.cydsn/ssd1306.c ****         if( i == 5 )
 2355              		.loc 1 594 0
 2356 004c 052F     		cmp	r7, #5
 2357 004e 09D0     		beq	.L154
 595:..\..\Cypress-PSOC-OLED-master\Cypress-PSOC-OLED-master\OLED.cydsn/ssd1306.c ****             line = 0x0;
 596:..\..\Cypress-PSOC-OLED-master\Cypress-PSOC-OLED-master\OLED.cydsn/ssd1306.c ****         else
 597:..\..\Cypress-PSOC-OLED-master\Cypress-PSOC-OLED-master\OLED.cydsn/ssd1306.c ****            line = font[(c*5)+i];
 2358              		.loc 1 597 0
 2359 0050 039A     		ldr	r2, [sp, #12]
 2360 0052 9300     		lsls	r3, r2, #2
 2361 0054 9446     		mov	ip, r2
 2362 0056 6344     		add	r3, r3, ip
 2363 0058 FB18     		adds	r3, r7, r3
 2364 005a 2D4A     		ldr	r2, .L155+4
 2365 005c D318     		adds	r3, r2, r3
 2366 005e 2422     		movs	r2, #36
 2367 0060 9D5C     		ldrb	r5, [r3, r2]
 2368              	.LVL254:
 2369 0062 00E0     		b	.L146
ARM GAS  C:\Users\boise\AppData\Local\Temp\ccDu5XGS.s 			page 55


 2370              	.LVL255:
 2371              	.L154:
 595:..\..\Cypress-PSOC-OLED-master\Cypress-PSOC-OLED-master\OLED.cydsn/ssd1306.c ****             line = 0x0;
 2372              		.loc 1 595 0
 2373 0064 0025     		movs	r5, #0
 2374              	.L146:
 595:..\..\Cypress-PSOC-OLED-master\Cypress-PSOC-OLED-master\OLED.cydsn/ssd1306.c ****             line = 0x0;
 2375              		.loc 1 595 0 is_stmt 0 discriminator 1
 2376 0066 0024     		movs	r4, #0
 2377 0068 4346     		mov	r3, r8
 2378 006a B846     		mov	r8, r7
 2379 006c 1F00     		movs	r7, r3
 2380              	.LVL256:
 2381 006e 3CE0     		b	.L147
 2382              	.LVL257:
 2383              	.L152:
 598:..\..\Cypress-PSOC-OLED-master\Cypress-PSOC-OLED-master\OLED.cydsn/ssd1306.c ****         int8_t j = 0;
 599:..\..\Cypress-PSOC-OLED-master\Cypress-PSOC-OLED-master\OLED.cydsn/ssd1306.c ****         for( j = 0; j < 8 ; j++ ){
 600:..\..\Cypress-PSOC-OLED-master\Cypress-PSOC-OLED-master\OLED.cydsn/ssd1306.c ****             if( line & 0x1 ){
 2384              		.loc 1 600 0 is_stmt 1
 2385 0070 EB07     		lsls	r3, r5, #31
 2386 0072 1AD5     		bpl	.L148
 601:..\..\Cypress-PSOC-OLED-master\Cypress-PSOC-OLED-master\OLED.cydsn/ssd1306.c ****                 if( size == 1 ) // default size
 2387              		.loc 1 601 0
 2388 0074 012E     		cmp	r6, #1
 2389 0076 09D1     		bne	.L149
 602:..\..\Cypress-PSOC-OLED-master\Cypress-PSOC-OLED-master\OLED.cydsn/ssd1306.c ****                     gfx_drawPixel( x+i, y+j, color );
 2390              		.loc 1 602 0
 2391 0078 5346     		mov	r3, r10
 2392 007a E118     		adds	r1, r4, r3
 2393 007c 09B2     		sxth	r1, r1
 2394 007e 4046     		mov	r0, r8
 2395 0080 4844     		add	r0, r0, r9
 2396 0082 00B2     		sxth	r0, r0
 2397 0084 3A00     		movs	r2, r7
 2398 0086 FFF7FEFF 		bl	gfx_drawPixel
 2399              	.LVL258:
 2400 008a 2BE0     		b	.L150
 2401              	.L149:
 603:..\..\Cypress-PSOC-OLED-master\Cypress-PSOC-OLED-master\OLED.cydsn/ssd1306.c ****                 else { // big size
 604:..\..\Cypress-PSOC-OLED-master\Cypress-PSOC-OLED-master\OLED.cydsn/ssd1306.c ****                     gfx_fillRect( x+(i*size), y+(j*size), size, size, color );
 2402              		.loc 1 604 0
 2403 008c B0B2     		uxth	r0, r6
 2404 008e 32B2     		sxth	r2, r6
 2405 0090 2100     		movs	r1, r4
 2406 0092 4143     		muls	r1, r0
 2407 0094 5144     		add	r1, r1, r10
 2408 0096 09B2     		sxth	r1, r1
 2409 0098 4346     		mov	r3, r8
 2410 009a 5843     		muls	r0, r3
 2411 009c 4844     		add	r0, r0, r9
 2412 009e 00B2     		sxth	r0, r0
 2413 00a0 0097     		str	r7, [sp]
 2414 00a2 1300     		movs	r3, r2
 2415 00a4 FFF7FEFF 		bl	gfx_fillRect
 2416              	.LVL259:
 2417 00a8 1CE0     		b	.L150
ARM GAS  C:\Users\boise\AppData\Local\Temp\ccDu5XGS.s 			page 56


 2418              	.L148:
 605:..\..\Cypress-PSOC-OLED-master\Cypress-PSOC-OLED-master\OLED.cydsn/ssd1306.c ****                 }
 606:..\..\Cypress-PSOC-OLED-master\Cypress-PSOC-OLED-master\OLED.cydsn/ssd1306.c ****             } else if( bg != color ){
 2419              		.loc 1 606 0
 2420 00aa 5F45     		cmp	r7, fp
 2421 00ac 1AD0     		beq	.L150
 607:..\..\Cypress-PSOC-OLED-master\Cypress-PSOC-OLED-master\OLED.cydsn/ssd1306.c ****                 if( size == 1 ) // default size
 2422              		.loc 1 607 0
 2423 00ae 012E     		cmp	r6, #1
 2424 00b0 09D1     		bne	.L151
 608:..\..\Cypress-PSOC-OLED-master\Cypress-PSOC-OLED-master\OLED.cydsn/ssd1306.c ****                     gfx_drawPixel( x+i, y+j, bg );
 2425              		.loc 1 608 0
 2426 00b2 5346     		mov	r3, r10
 2427 00b4 E118     		adds	r1, r4, r3
 2428 00b6 09B2     		sxth	r1, r1
 2429 00b8 4046     		mov	r0, r8
 2430 00ba 4844     		add	r0, r0, r9
 2431 00bc 00B2     		sxth	r0, r0
 2432 00be 5A46     		mov	r2, fp
 2433 00c0 FFF7FEFF 		bl	gfx_drawPixel
 2434              	.LVL260:
 2435 00c4 0EE0     		b	.L150
 2436              	.L151:
 609:..\..\Cypress-PSOC-OLED-master\Cypress-PSOC-OLED-master\OLED.cydsn/ssd1306.c ****                 else { // big size
 610:..\..\Cypress-PSOC-OLED-master\Cypress-PSOC-OLED-master\OLED.cydsn/ssd1306.c ****                     gfx_fillRect( x+i*size, y+j*size, size, size, bg );
 2437              		.loc 1 610 0
 2438 00c6 B0B2     		uxth	r0, r6
 2439 00c8 32B2     		sxth	r2, r6
 2440 00ca 2100     		movs	r1, r4
 2441 00cc 4143     		muls	r1, r0
 2442 00ce 5144     		add	r1, r1, r10
 2443 00d0 09B2     		sxth	r1, r1
 2444 00d2 4346     		mov	r3, r8
 2445 00d4 5843     		muls	r0, r3
 2446 00d6 4844     		add	r0, r0, r9
 2447 00d8 00B2     		sxth	r0, r0
 2448 00da 5B46     		mov	r3, fp
 2449 00dc 0093     		str	r3, [sp]
 2450 00de 1300     		movs	r3, r2
 2451 00e0 FFF7FEFF 		bl	gfx_fillRect
 2452              	.LVL261:
 2453              	.L150:
 611:..\..\Cypress-PSOC-OLED-master\Cypress-PSOC-OLED-master\OLED.cydsn/ssd1306.c ****                 }
 612:..\..\Cypress-PSOC-OLED-master\Cypress-PSOC-OLED-master\OLED.cydsn/ssd1306.c ****             }
 613:..\..\Cypress-PSOC-OLED-master\Cypress-PSOC-OLED-master\OLED.cydsn/ssd1306.c ****             line >>= 1;
 2454              		.loc 1 613 0 discriminator 2
 2455 00e4 6D08     		lsrs	r5, r5, #1
 2456              	.LVL262:
 599:..\..\Cypress-PSOC-OLED-master\Cypress-PSOC-OLED-master\OLED.cydsn/ssd1306.c ****             if( line & 0x1 ){
 2457              		.loc 1 599 0 discriminator 2
 2458 00e6 0134     		adds	r4, r4, #1
 2459              	.LVL263:
 2460 00e8 64B2     		sxtb	r4, r4
 2461              	.LVL264:
 2462              	.L147:
 599:..\..\Cypress-PSOC-OLED-master\Cypress-PSOC-OLED-master\OLED.cydsn/ssd1306.c ****             if( line & 0x1 ){
 2463              		.loc 1 599 0 is_stmt 0 discriminator 1
ARM GAS  C:\Users\boise\AppData\Local\Temp\ccDu5XGS.s 			page 57


 2464 00ea 072C     		cmp	r4, #7
 2465 00ec C0DD     		ble	.L152
 2466 00ee 3B00     		movs	r3, r7
 2467 00f0 4746     		mov	r7, r8
 2468 00f2 9846     		mov	r8, r3
 2469              	.LBE7:
 592:..\..\Cypress-PSOC-OLED-master\Cypress-PSOC-OLED-master\OLED.cydsn/ssd1306.c ****         uint8_t line;
 2470              		.loc 1 592 0 is_stmt 1 discriminator 2
 2471 00f4 0137     		adds	r7, r7, #1
 2472 00f6 7FB2     		sxtb	r7, r7
 2473              	.LVL265:
 2474              	.L145:
 592:..\..\Cypress-PSOC-OLED-master\Cypress-PSOC-OLED-master\OLED.cydsn/ssd1306.c ****         uint8_t line;
 2475              		.loc 1 592 0 is_stmt 0 discriminator 1
 2476 00f8 052F     		cmp	r7, #5
 2477 00fa A7DD     		ble	.L153
 2478              	.LVL266:
 2479              	.L143:
 614:..\..\Cypress-PSOC-OLED-master\Cypress-PSOC-OLED-master\OLED.cydsn/ssd1306.c ****         }
 615:..\..\Cypress-PSOC-OLED-master\Cypress-PSOC-OLED-master\OLED.cydsn/ssd1306.c ****     }
 616:..\..\Cypress-PSOC-OLED-master\Cypress-PSOC-OLED-master\OLED.cydsn/ssd1306.c **** }
 2480              		.loc 1 616 0 is_stmt 1
 2481 00fc 05B0     		add	sp, sp, #20
 2482              		@ sp needed
 2483 00fe 3CBC     		pop	{r2, r3, r4, r5}
 2484 0100 9046     		mov	r8, r2
 2485 0102 9946     		mov	r9, r3
 2486 0104 A246     		mov	r10, r4
 2487 0106 AB46     		mov	fp, r5
 2488 0108 F0BD     		pop	{r4, r5, r6, r7, pc}
 2489              	.L156:
 2490 010a C046     		.align	2
 2491              	.L155:
 2492 010c 00000000 		.word	.LANCHOR1
 2493 0110 00000000 		.word	.LANCHOR2
 2494              		.cfi_endproc
 2495              	.LFE60:
 2496              		.size	gfx_drawChar, .-gfx_drawChar
 2497              		.section	.text.gfx_write,"ax",%progbits
 2498              		.align	2
 2499              		.global	gfx_write
 2500              		.code	16
 2501              		.thumb_func
 2502              		.type	gfx_write, %function
 2503              	gfx_write:
 2504              	.LFB61:
 617:..\..\Cypress-PSOC-OLED-master\Cypress-PSOC-OLED-master\OLED.cydsn/ssd1306.c **** 
 618:..\..\Cypress-PSOC-OLED-master\Cypress-PSOC-OLED-master\OLED.cydsn/ssd1306.c **** void gfx_write( uint8_t ch ){
 2505              		.loc 1 618 0
 2506              		.cfi_startproc
 2507              		@ args = 0, pretend = 0, frame = 0
 2508              		@ frame_needed = 0, uses_anonymous_args = 0
 2509              	.LVL267:
 2510 0000 30B5     		push	{r4, r5, lr}
 2511              		.cfi_def_cfa_offset 12
 2512              		.cfi_offset 4, -12
 2513              		.cfi_offset 5, -8
ARM GAS  C:\Users\boise\AppData\Local\Temp\ccDu5XGS.s 			page 58


 2514              		.cfi_offset 14, -4
 2515 0002 83B0     		sub	sp, sp, #12
 2516              		.cfi_def_cfa_offset 24
 619:..\..\Cypress-PSOC-OLED-master\Cypress-PSOC-OLED-master\OLED.cydsn/ssd1306.c ****     if( ch == '\n' ){
 2517              		.loc 1 619 0
 2518 0004 0A28     		cmp	r0, #10
 2519 0006 08D1     		bne	.L158
 620:..\..\Cypress-PSOC-OLED-master\Cypress-PSOC-OLED-master\OLED.cydsn/ssd1306.c ****         cursor_y += textsize*8;
 2520              		.loc 1 620 0
 2521 0008 1B4B     		ldr	r3, .L160
 2522 000a 9A7A     		ldrb	r2, [r3, #10]
 2523 000c D200     		lsls	r2, r2, #3
 2524 000e 1989     		ldrh	r1, [r3, #8]
 2525 0010 5218     		adds	r2, r2, r1
 2526 0012 1A81     		strh	r2, [r3, #8]
 621:..\..\Cypress-PSOC-OLED-master\Cypress-PSOC-OLED-master\OLED.cydsn/ssd1306.c ****         cursor_x = 0;
 2527              		.loc 1 621 0
 2528 0014 0022     		movs	r2, #0
 2529 0016 DA80     		strh	r2, [r3, #6]
 2530 0018 2CE0     		b	.L157
 2531              	.L158:
 622:..\..\Cypress-PSOC-OLED-master\Cypress-PSOC-OLED-master\OLED.cydsn/ssd1306.c ****     }else if( ch == '\r' ){
 2532              		.loc 1 622 0
 2533 001a 0D28     		cmp	r0, #13
 2534 001c 2AD0     		beq	.L157
 623:..\..\Cypress-PSOC-OLED-master\Cypress-PSOC-OLED-master\OLED.cydsn/ssd1306.c ****         // skip em
 624:..\..\Cypress-PSOC-OLED-master\Cypress-PSOC-OLED-master\OLED.cydsn/ssd1306.c ****     }else{
 625:..\..\Cypress-PSOC-OLED-master\Cypress-PSOC-OLED-master\OLED.cydsn/ssd1306.c ****         gfx_drawChar(cursor_x, cursor_y, ch, textcolor, textbgcolor, textsize);
 2535              		.loc 1 625 0
 2536 001e 164C     		ldr	r4, .L160
 2537 0020 E389     		ldrh	r3, [r4, #14]
 2538 0022 0822     		movs	r2, #8
 2539 0024 A15E     		ldrsh	r1, [r4, r2]
 2540 0026 0622     		movs	r2, #6
 2541 0028 A55E     		ldrsh	r5, [r4, r2]
 2542 002a A27A     		ldrb	r2, [r4, #10]
 2543 002c 0192     		str	r2, [sp, #4]
 2544 002e A289     		ldrh	r2, [r4, #12]
 2545 0030 0092     		str	r2, [sp]
 2546 0032 0200     		movs	r2, r0
 2547 0034 2800     		movs	r0, r5
 2548              	.LVL268:
 2549 0036 FFF7FEFF 		bl	gfx_drawChar
 2550              	.LVL269:
 626:..\..\Cypress-PSOC-OLED-master\Cypress-PSOC-OLED-master\OLED.cydsn/ssd1306.c ****         cursor_x += textsize*6;
 2551              		.loc 1 626 0
 2552 003a A27A     		ldrb	r2, [r4, #10]
 2553 003c 90B2     		uxth	r0, r2
 2554 003e 4100     		lsls	r1, r0, #1
 2555 0040 4118     		adds	r1, r0, r1
 2556 0042 4D00     		lsls	r5, r1, #1
 2557 0044 E388     		ldrh	r3, [r4, #6]
 2558 0046 EB18     		adds	r3, r5, r3
 2559 0048 1BB2     		sxth	r3, r3
 2560 004a E380     		strh	r3, [r4, #6]
 627:..\..\Cypress-PSOC-OLED-master\Cypress-PSOC-OLED-master\OLED.cydsn/ssd1306.c ****         if( wrap && (cursor_x > (_width - textsize*6)) ){
 2561              		.loc 1 627 0
ARM GAS  C:\Users\boise\AppData\Local\Temp\ccDu5XGS.s 			page 59


 2562 004c 0B49     		ldr	r1, .L160+4
 2563 004e 0978     		ldrb	r1, [r1]
 2564 0050 0029     		cmp	r1, #0
 2565 0052 0FD0     		beq	.L157
 2566              		.loc 1 627 0 is_stmt 0 discriminator 1
 2567 0054 9100     		lsls	r1, r2, #2
 2568 0056 521A     		subs	r2, r2, r1
 2569 0058 5100     		lsls	r1, r2, #1
 2570 005a 074A     		ldr	r2, .L160
 2571 005c 0224     		movs	r4, #2
 2572 005e 125F     		ldrsh	r2, [r2, r4]
 2573 0060 5118     		adds	r1, r2, r1
 2574 0062 8B42     		cmp	r3, r1
 2575 0064 06DD     		ble	.L157
 628:..\..\Cypress-PSOC-OLED-master\Cypress-PSOC-OLED-master\OLED.cydsn/ssd1306.c ****             cursor_y += textsize*8;
 2576              		.loc 1 628 0 is_stmt 1
 2577 0066 044B     		ldr	r3, .L160
 2578 0068 C000     		lsls	r0, r0, #3
 2579 006a 1A89     		ldrh	r2, [r3, #8]
 2580 006c 8018     		adds	r0, r0, r2
 2581 006e 1881     		strh	r0, [r3, #8]
 629:..\..\Cypress-PSOC-OLED-master\Cypress-PSOC-OLED-master\OLED.cydsn/ssd1306.c ****             cursor_x = 0;
 2582              		.loc 1 629 0
 2583 0070 0022     		movs	r2, #0
 2584 0072 DA80     		strh	r2, [r3, #6]
 2585              	.L157:
 630:..\..\Cypress-PSOC-OLED-master\Cypress-PSOC-OLED-master\OLED.cydsn/ssd1306.c ****         }
 631:..\..\Cypress-PSOC-OLED-master\Cypress-PSOC-OLED-master\OLED.cydsn/ssd1306.c ****     }
 632:..\..\Cypress-PSOC-OLED-master\Cypress-PSOC-OLED-master\OLED.cydsn/ssd1306.c **** }
 2586              		.loc 1 632 0
 2587 0074 03B0     		add	sp, sp, #12
 2588              		@ sp needed
 2589 0076 30BD     		pop	{r4, r5, pc}
 2590              	.L161:
 2591              		.align	2
 2592              	.L160:
 2593 0078 00000000 		.word	.LANCHOR1
 2594 007c 00000000 		.word	wrap
 2595              		.cfi_endproc
 2596              	.LFE61:
 2597              		.size	gfx_write, .-gfx_write
 2598              		.section	.text.gfx_print,"ax",%progbits
 2599              		.align	2
 2600              		.global	gfx_print
 2601              		.code	16
 2602              		.thumb_func
 2603              		.type	gfx_print, %function
 2604              	gfx_print:
 2605              	.LFB62:
 633:..\..\Cypress-PSOC-OLED-master\Cypress-PSOC-OLED-master\OLED.cydsn/ssd1306.c **** 
 634:..\..\Cypress-PSOC-OLED-master\Cypress-PSOC-OLED-master\OLED.cydsn/ssd1306.c **** void gfx_print( const char* s ){
 2606              		.loc 1 634 0
 2607              		.cfi_startproc
 2608              		@ args = 0, pretend = 0, frame = 0
 2609              		@ frame_needed = 0, uses_anonymous_args = 0
 2610              	.LVL270:
 2611 0000 70B5     		push	{r4, r5, r6, lr}
ARM GAS  C:\Users\boise\AppData\Local\Temp\ccDu5XGS.s 			page 60


 2612              		.cfi_def_cfa_offset 16
 2613              		.cfi_offset 4, -16
 2614              		.cfi_offset 5, -12
 2615              		.cfi_offset 6, -8
 2616              		.cfi_offset 14, -4
 2617 0002 0600     		movs	r6, r0
 635:..\..\Cypress-PSOC-OLED-master\Cypress-PSOC-OLED-master\OLED.cydsn/ssd1306.c ****     
 636:..\..\Cypress-PSOC-OLED-master\Cypress-PSOC-OLED-master\OLED.cydsn/ssd1306.c ****     unsigned int len = strlen( s );
 2618              		.loc 1 636 0
 2619 0004 FFF7FEFF 		bl	strlen
 2620              	.LVL271:
 2621 0008 0500     		movs	r5, r0
 2622              	.LVL272:
 637:..\..\Cypress-PSOC-OLED-master\Cypress-PSOC-OLED-master\OLED.cydsn/ssd1306.c ****     unsigned int i = 0; 
 638:..\..\Cypress-PSOC-OLED-master\Cypress-PSOC-OLED-master\OLED.cydsn/ssd1306.c ****     for( i = 0 ; i < len ; i++ ){
 2623              		.loc 1 638 0
 2624 000a 0024     		movs	r4, #0
 2625 000c 03E0     		b	.L163
 2626              	.LVL273:
 2627              	.L164:
 639:..\..\Cypress-PSOC-OLED-master\Cypress-PSOC-OLED-master\OLED.cydsn/ssd1306.c ****         gfx_write( s[i] );
 2628              		.loc 1 639 0 discriminator 3
 2629 000e 305D     		ldrb	r0, [r6, r4]
 2630 0010 FFF7FEFF 		bl	gfx_write
 2631              	.LVL274:
 638:..\..\Cypress-PSOC-OLED-master\Cypress-PSOC-OLED-master\OLED.cydsn/ssd1306.c ****         gfx_write( s[i] );
 2632              		.loc 1 638 0 discriminator 3
 2633 0014 0134     		adds	r4, r4, #1
 2634              	.LVL275:
 2635              	.L163:
 638:..\..\Cypress-PSOC-OLED-master\Cypress-PSOC-OLED-master\OLED.cydsn/ssd1306.c ****         gfx_write( s[i] );
 2636              		.loc 1 638 0 is_stmt 0 discriminator 1
 2637 0016 AC42     		cmp	r4, r5
 2638 0018 F9D3     		bcc	.L164
 640:..\..\Cypress-PSOC-OLED-master\Cypress-PSOC-OLED-master\OLED.cydsn/ssd1306.c ****     }
 641:..\..\Cypress-PSOC-OLED-master\Cypress-PSOC-OLED-master\OLED.cydsn/ssd1306.c **** }
 2639              		.loc 1 641 0 is_stmt 1
 2640              		@ sp needed
 2641              	.LVL276:
 2642              	.LVL277:
 2643              	.LVL278:
 2644 001a 70BD     		pop	{r4, r5, r6, pc}
 2645              		.cfi_endproc
 2646              	.LFE62:
 2647              		.size	gfx_print, .-gfx_print
 2648              		.section	.text.gfx_println,"ax",%progbits
 2649              		.align	2
 2650              		.global	gfx_println
 2651              		.code	16
 2652              		.thumb_func
 2653              		.type	gfx_println, %function
 2654              	gfx_println:
 2655              	.LFB63:
 642:..\..\Cypress-PSOC-OLED-master\Cypress-PSOC-OLED-master\OLED.cydsn/ssd1306.c **** 
 643:..\..\Cypress-PSOC-OLED-master\Cypress-PSOC-OLED-master\OLED.cydsn/ssd1306.c **** void gfx_println( const char* s ){ 
 2656              		.loc 1 643 0
 2657              		.cfi_startproc
ARM GAS  C:\Users\boise\AppData\Local\Temp\ccDu5XGS.s 			page 61


 2658              		@ args = 0, pretend = 0, frame = 0
 2659              		@ frame_needed = 0, uses_anonymous_args = 0
 2660              	.LVL279:
 2661 0000 10B5     		push	{r4, lr}
 2662              		.cfi_def_cfa_offset 8
 2663              		.cfi_offset 4, -8
 2664              		.cfi_offset 14, -4
 644:..\..\Cypress-PSOC-OLED-master\Cypress-PSOC-OLED-master\OLED.cydsn/ssd1306.c ****     gfx_print( s ); 
 2665              		.loc 1 644 0
 2666 0002 FFF7FEFF 		bl	gfx_print
 2667              	.LVL280:
 645:..\..\Cypress-PSOC-OLED-master\Cypress-PSOC-OLED-master\OLED.cydsn/ssd1306.c ****     gfx_write( '\n' );
 2668              		.loc 1 645 0
 2669 0006 0A20     		movs	r0, #10
 2670 0008 FFF7FEFF 		bl	gfx_write
 2671              	.LVL281:
 646:..\..\Cypress-PSOC-OLED-master\Cypress-PSOC-OLED-master\OLED.cydsn/ssd1306.c **** }
 2672              		.loc 1 646 0
 2673              		@ sp needed
 2674 000c 10BD     		pop	{r4, pc}
 2675              		.cfi_endproc
 2676              	.LFE63:
 2677              		.size	gfx_println, .-gfx_println
 2678              		.comm	wrap,1,1
 2679              		.comm	rotation,1,1
 2680              		.comm	HEIGHT,2,2
 2681              		.comm	WIDTH,2,2
 2682 000e C046     		.section	.rodata
 2683              		.align	2
 2684              		.set	.LANCHOR2,. + 0
 2685              	.LC1:
 2686 0000 00       		.byte	0
 2687 0001 21       		.byte	33
 2688 0002 00       		.byte	0
 2689 0003 7F       		.byte	127
 2690 0004 22       		.byte	34
 2691 0005 00       		.byte	0
 2692 0006 07       		.byte	7
 2693 0007 00       		.space	1
 2694              	.LC0:
 2695 0008 00       		.byte	0
 2696 0009 AE       		.byte	-82
 2697 000a D5       		.byte	-43
 2698 000b 80       		.byte	-128
 2699 000c A8       		.byte	-88
 2700 000d 3F       		.byte	63
 2701 000e D3       		.byte	-45
 2702 000f 00       		.byte	0
 2703 0010 40       		.byte	64
 2704 0011 8D       		.byte	-115
 2705 0012 14       		.byte	20
 2706 0013 20       		.byte	32
 2707 0014 00       		.byte	0
 2708 0015 A1       		.byte	-95
 2709 0016 C8       		.byte	-56
 2710 0017 DA       		.byte	-38
 2711 0018 12       		.byte	18
ARM GAS  C:\Users\boise\AppData\Local\Temp\ccDu5XGS.s 			page 62


 2712 0019 81       		.byte	-127
 2713 001a CF       		.byte	-49
 2714 001b D9       		.byte	-39
 2715 001c F1       		.byte	-15
 2716 001d DB       		.byte	-37
 2717 001e 40       		.byte	64
 2718 001f A4       		.byte	-92
 2719 0020 A6       		.byte	-90
 2720 0021 AF       		.byte	-81
 2721 0022 0000     		.space	2
 2722              		.type	font, %object
 2723              		.size	font, 1275
 2724              	font:
 2725 0024 00       		.byte	0
 2726 0025 00       		.byte	0
 2727 0026 00       		.byte	0
 2728 0027 00       		.byte	0
 2729 0028 00       		.byte	0
 2730 0029 3E       		.byte	62
 2731 002a 5B       		.byte	91
 2732 002b 4F       		.byte	79
 2733 002c 5B       		.byte	91
 2734 002d 3E       		.byte	62
 2735 002e 3E       		.byte	62
 2736 002f 6B       		.byte	107
 2737 0030 4F       		.byte	79
 2738 0031 6B       		.byte	107
 2739 0032 3E       		.byte	62
 2740 0033 1C       		.byte	28
 2741 0034 3E       		.byte	62
 2742 0035 7C       		.byte	124
 2743 0036 3E       		.byte	62
 2744 0037 1C       		.byte	28
 2745 0038 18       		.byte	24
 2746 0039 3C       		.byte	60
 2747 003a 7E       		.byte	126
 2748 003b 3C       		.byte	60
 2749 003c 18       		.byte	24
 2750 003d 1C       		.byte	28
 2751 003e 57       		.byte	87
 2752 003f 7D       		.byte	125
 2753 0040 57       		.byte	87
 2754 0041 1C       		.byte	28
 2755 0042 1C       		.byte	28
 2756 0043 5E       		.byte	94
 2757 0044 7F       		.byte	127
 2758 0045 5E       		.byte	94
 2759 0046 1C       		.byte	28
 2760 0047 00       		.byte	0
 2761 0048 18       		.byte	24
 2762 0049 3C       		.byte	60
 2763 004a 18       		.byte	24
 2764 004b 00       		.byte	0
 2765 004c FF       		.byte	-1
 2766 004d E7       		.byte	-25
 2767 004e C3       		.byte	-61
 2768 004f E7       		.byte	-25
ARM GAS  C:\Users\boise\AppData\Local\Temp\ccDu5XGS.s 			page 63


 2769 0050 FF       		.byte	-1
 2770 0051 00       		.byte	0
 2771 0052 18       		.byte	24
 2772 0053 24       		.byte	36
 2773 0054 18       		.byte	24
 2774 0055 00       		.byte	0
 2775 0056 FF       		.byte	-1
 2776 0057 E7       		.byte	-25
 2777 0058 DB       		.byte	-37
 2778 0059 E7       		.byte	-25
 2779 005a FF       		.byte	-1
 2780 005b 30       		.byte	48
 2781 005c 48       		.byte	72
 2782 005d 3A       		.byte	58
 2783 005e 06       		.byte	6
 2784 005f 0E       		.byte	14
 2785 0060 26       		.byte	38
 2786 0061 29       		.byte	41
 2787 0062 79       		.byte	121
 2788 0063 29       		.byte	41
 2789 0064 26       		.byte	38
 2790 0065 40       		.byte	64
 2791 0066 7F       		.byte	127
 2792 0067 05       		.byte	5
 2793 0068 05       		.byte	5
 2794 0069 07       		.byte	7
 2795 006a 40       		.byte	64
 2796 006b 7F       		.byte	127
 2797 006c 05       		.byte	5
 2798 006d 25       		.byte	37
 2799 006e 3F       		.byte	63
 2800 006f 5A       		.byte	90
 2801 0070 3C       		.byte	60
 2802 0071 E7       		.byte	-25
 2803 0072 3C       		.byte	60
 2804 0073 5A       		.byte	90
 2805 0074 7F       		.byte	127
 2806 0075 3E       		.byte	62
 2807 0076 1C       		.byte	28
 2808 0077 1C       		.byte	28
 2809 0078 08       		.byte	8
 2810 0079 08       		.byte	8
 2811 007a 1C       		.byte	28
 2812 007b 1C       		.byte	28
 2813 007c 3E       		.byte	62
 2814 007d 7F       		.byte	127
 2815 007e 14       		.byte	20
 2816 007f 22       		.byte	34
 2817 0080 7F       		.byte	127
 2818 0081 22       		.byte	34
 2819 0082 14       		.byte	20
 2820 0083 5F       		.byte	95
 2821 0084 5F       		.byte	95
 2822 0085 00       		.byte	0
 2823 0086 5F       		.byte	95
 2824 0087 5F       		.byte	95
 2825 0088 06       		.byte	6
ARM GAS  C:\Users\boise\AppData\Local\Temp\ccDu5XGS.s 			page 64


 2826 0089 09       		.byte	9
 2827 008a 7F       		.byte	127
 2828 008b 01       		.byte	1
 2829 008c 7F       		.byte	127
 2830 008d 00       		.byte	0
 2831 008e 66       		.byte	102
 2832 008f 89       		.byte	-119
 2833 0090 95       		.byte	-107
 2834 0091 6A       		.byte	106
 2835 0092 60       		.byte	96
 2836 0093 60       		.byte	96
 2837 0094 60       		.byte	96
 2838 0095 60       		.byte	96
 2839 0096 60       		.byte	96
 2840 0097 94       		.byte	-108
 2841 0098 A2       		.byte	-94
 2842 0099 FF       		.byte	-1
 2843 009a A2       		.byte	-94
 2844 009b 94       		.byte	-108
 2845 009c 08       		.byte	8
 2846 009d 04       		.byte	4
 2847 009e 7E       		.byte	126
 2848 009f 04       		.byte	4
 2849 00a0 08       		.byte	8
 2850 00a1 10       		.byte	16
 2851 00a2 20       		.byte	32
 2852 00a3 7E       		.byte	126
 2853 00a4 20       		.byte	32
 2854 00a5 10       		.byte	16
 2855 00a6 08       		.byte	8
 2856 00a7 08       		.byte	8
 2857 00a8 2A       		.byte	42
 2858 00a9 1C       		.byte	28
 2859 00aa 08       		.byte	8
 2860 00ab 08       		.byte	8
 2861 00ac 1C       		.byte	28
 2862 00ad 2A       		.byte	42
 2863 00ae 08       		.byte	8
 2864 00af 08       		.byte	8
 2865 00b0 1E       		.byte	30
 2866 00b1 10       		.byte	16
 2867 00b2 10       		.byte	16
 2868 00b3 10       		.byte	16
 2869 00b4 10       		.byte	16
 2870 00b5 0C       		.byte	12
 2871 00b6 1E       		.byte	30
 2872 00b7 0C       		.byte	12
 2873 00b8 1E       		.byte	30
 2874 00b9 0C       		.byte	12
 2875 00ba 30       		.byte	48
 2876 00bb 38       		.byte	56
 2877 00bc 3E       		.byte	62
 2878 00bd 38       		.byte	56
 2879 00be 30       		.byte	48
 2880 00bf 06       		.byte	6
 2881 00c0 0E       		.byte	14
 2882 00c1 3E       		.byte	62
ARM GAS  C:\Users\boise\AppData\Local\Temp\ccDu5XGS.s 			page 65


 2883 00c2 0E       		.byte	14
 2884 00c3 06       		.byte	6
 2885 00c4 00       		.byte	0
 2886 00c5 00       		.byte	0
 2887 00c6 00       		.byte	0
 2888 00c7 00       		.byte	0
 2889 00c8 00       		.byte	0
 2890 00c9 00       		.byte	0
 2891 00ca 00       		.byte	0
 2892 00cb 5F       		.byte	95
 2893 00cc 00       		.byte	0
 2894 00cd 00       		.byte	0
 2895 00ce 00       		.byte	0
 2896 00cf 07       		.byte	7
 2897 00d0 00       		.byte	0
 2898 00d1 07       		.byte	7
 2899 00d2 00       		.byte	0
 2900 00d3 14       		.byte	20
 2901 00d4 7F       		.byte	127
 2902 00d5 14       		.byte	20
 2903 00d6 7F       		.byte	127
 2904 00d7 14       		.byte	20
 2905 00d8 24       		.byte	36
 2906 00d9 2A       		.byte	42
 2907 00da 7F       		.byte	127
 2908 00db 2A       		.byte	42
 2909 00dc 12       		.byte	18
 2910 00dd 23       		.byte	35
 2911 00de 13       		.byte	19
 2912 00df 08       		.byte	8
 2913 00e0 64       		.byte	100
 2914 00e1 62       		.byte	98
 2915 00e2 36       		.byte	54
 2916 00e3 49       		.byte	73
 2917 00e4 56       		.byte	86
 2918 00e5 20       		.byte	32
 2919 00e6 50       		.byte	80
 2920 00e7 00       		.byte	0
 2921 00e8 08       		.byte	8
 2922 00e9 07       		.byte	7
 2923 00ea 03       		.byte	3
 2924 00eb 00       		.byte	0
 2925 00ec 00       		.byte	0
 2926 00ed 1C       		.byte	28
 2927 00ee 22       		.byte	34
 2928 00ef 41       		.byte	65
 2929 00f0 00       		.byte	0
 2930 00f1 00       		.byte	0
 2931 00f2 41       		.byte	65
 2932 00f3 22       		.byte	34
 2933 00f4 1C       		.byte	28
 2934 00f5 00       		.byte	0
 2935 00f6 2A       		.byte	42
 2936 00f7 1C       		.byte	28
 2937 00f8 7F       		.byte	127
 2938 00f9 1C       		.byte	28
 2939 00fa 2A       		.byte	42
ARM GAS  C:\Users\boise\AppData\Local\Temp\ccDu5XGS.s 			page 66


 2940 00fb 08       		.byte	8
 2941 00fc 08       		.byte	8
 2942 00fd 3E       		.byte	62
 2943 00fe 08       		.byte	8
 2944 00ff 08       		.byte	8
 2945 0100 00       		.byte	0
 2946 0101 80       		.byte	-128
 2947 0102 70       		.byte	112
 2948 0103 30       		.byte	48
 2949 0104 00       		.byte	0
 2950 0105 08       		.byte	8
 2951 0106 08       		.byte	8
 2952 0107 08       		.byte	8
 2953 0108 08       		.byte	8
 2954 0109 08       		.byte	8
 2955 010a 00       		.byte	0
 2956 010b 00       		.byte	0
 2957 010c 60       		.byte	96
 2958 010d 60       		.byte	96
 2959 010e 00       		.byte	0
 2960 010f 20       		.byte	32
 2961 0110 10       		.byte	16
 2962 0111 08       		.byte	8
 2963 0112 04       		.byte	4
 2964 0113 02       		.byte	2
 2965 0114 3E       		.byte	62
 2966 0115 51       		.byte	81
 2967 0116 49       		.byte	73
 2968 0117 45       		.byte	69
 2969 0118 3E       		.byte	62
 2970 0119 00       		.byte	0
 2971 011a 42       		.byte	66
 2972 011b 7F       		.byte	127
 2973 011c 40       		.byte	64
 2974 011d 00       		.byte	0
 2975 011e 72       		.byte	114
 2976 011f 49       		.byte	73
 2977 0120 49       		.byte	73
 2978 0121 49       		.byte	73
 2979 0122 46       		.byte	70
 2980 0123 21       		.byte	33
 2981 0124 41       		.byte	65
 2982 0125 49       		.byte	73
 2983 0126 4D       		.byte	77
 2984 0127 33       		.byte	51
 2985 0128 18       		.byte	24
 2986 0129 14       		.byte	20
 2987 012a 12       		.byte	18
 2988 012b 7F       		.byte	127
 2989 012c 10       		.byte	16
 2990 012d 27       		.byte	39
 2991 012e 45       		.byte	69
 2992 012f 45       		.byte	69
 2993 0130 45       		.byte	69
 2994 0131 39       		.byte	57
 2995 0132 3C       		.byte	60
 2996 0133 4A       		.byte	74
ARM GAS  C:\Users\boise\AppData\Local\Temp\ccDu5XGS.s 			page 67


 2997 0134 49       		.byte	73
 2998 0135 49       		.byte	73
 2999 0136 31       		.byte	49
 3000 0137 41       		.byte	65
 3001 0138 21       		.byte	33
 3002 0139 11       		.byte	17
 3003 013a 09       		.byte	9
 3004 013b 07       		.byte	7
 3005 013c 36       		.byte	54
 3006 013d 49       		.byte	73
 3007 013e 49       		.byte	73
 3008 013f 49       		.byte	73
 3009 0140 36       		.byte	54
 3010 0141 46       		.byte	70
 3011 0142 49       		.byte	73
 3012 0143 49       		.byte	73
 3013 0144 29       		.byte	41
 3014 0145 1E       		.byte	30
 3015 0146 00       		.byte	0
 3016 0147 00       		.byte	0
 3017 0148 14       		.byte	20
 3018 0149 00       		.byte	0
 3019 014a 00       		.byte	0
 3020 014b 00       		.byte	0
 3021 014c 40       		.byte	64
 3022 014d 34       		.byte	52
 3023 014e 00       		.byte	0
 3024 014f 00       		.byte	0
 3025 0150 00       		.byte	0
 3026 0151 08       		.byte	8
 3027 0152 14       		.byte	20
 3028 0153 22       		.byte	34
 3029 0154 41       		.byte	65
 3030 0155 14       		.byte	20
 3031 0156 14       		.byte	20
 3032 0157 14       		.byte	20
 3033 0158 14       		.byte	20
 3034 0159 14       		.byte	20
 3035 015a 00       		.byte	0
 3036 015b 41       		.byte	65
 3037 015c 22       		.byte	34
 3038 015d 14       		.byte	20
 3039 015e 08       		.byte	8
 3040 015f 02       		.byte	2
 3041 0160 01       		.byte	1
 3042 0161 59       		.byte	89
 3043 0162 09       		.byte	9
 3044 0163 06       		.byte	6
 3045 0164 3E       		.byte	62
 3046 0165 41       		.byte	65
 3047 0166 5D       		.byte	93
 3048 0167 59       		.byte	89
 3049 0168 4E       		.byte	78
 3050 0169 7C       		.byte	124
 3051 016a 12       		.byte	18
 3052 016b 11       		.byte	17
 3053 016c 12       		.byte	18
ARM GAS  C:\Users\boise\AppData\Local\Temp\ccDu5XGS.s 			page 68


 3054 016d 7C       		.byte	124
 3055 016e 7F       		.byte	127
 3056 016f 49       		.byte	73
 3057 0170 49       		.byte	73
 3058 0171 49       		.byte	73
 3059 0172 36       		.byte	54
 3060 0173 3E       		.byte	62
 3061 0174 41       		.byte	65
 3062 0175 41       		.byte	65
 3063 0176 41       		.byte	65
 3064 0177 22       		.byte	34
 3065 0178 7F       		.byte	127
 3066 0179 41       		.byte	65
 3067 017a 41       		.byte	65
 3068 017b 41       		.byte	65
 3069 017c 3E       		.byte	62
 3070 017d 7F       		.byte	127
 3071 017e 49       		.byte	73
 3072 017f 49       		.byte	73
 3073 0180 49       		.byte	73
 3074 0181 41       		.byte	65
 3075 0182 7F       		.byte	127
 3076 0183 09       		.byte	9
 3077 0184 09       		.byte	9
 3078 0185 09       		.byte	9
 3079 0186 01       		.byte	1
 3080 0187 3E       		.byte	62
 3081 0188 41       		.byte	65
 3082 0189 41       		.byte	65
 3083 018a 51       		.byte	81
 3084 018b 73       		.byte	115
 3085 018c 7F       		.byte	127
 3086 018d 08       		.byte	8
 3087 018e 08       		.byte	8
 3088 018f 08       		.byte	8
 3089 0190 7F       		.byte	127
 3090 0191 00       		.byte	0
 3091 0192 41       		.byte	65
 3092 0193 7F       		.byte	127
 3093 0194 41       		.byte	65
 3094 0195 00       		.byte	0
 3095 0196 20       		.byte	32
 3096 0197 40       		.byte	64
 3097 0198 41       		.byte	65
 3098 0199 3F       		.byte	63
 3099 019a 01       		.byte	1
 3100 019b 7F       		.byte	127
 3101 019c 08       		.byte	8
 3102 019d 14       		.byte	20
 3103 019e 22       		.byte	34
 3104 019f 41       		.byte	65
 3105 01a0 7F       		.byte	127
 3106 01a1 40       		.byte	64
 3107 01a2 40       		.byte	64
 3108 01a3 40       		.byte	64
 3109 01a4 40       		.byte	64
 3110 01a5 7F       		.byte	127
ARM GAS  C:\Users\boise\AppData\Local\Temp\ccDu5XGS.s 			page 69


 3111 01a6 02       		.byte	2
 3112 01a7 1C       		.byte	28
 3113 01a8 02       		.byte	2
 3114 01a9 7F       		.byte	127
 3115 01aa 7F       		.byte	127
 3116 01ab 04       		.byte	4
 3117 01ac 08       		.byte	8
 3118 01ad 10       		.byte	16
 3119 01ae 7F       		.byte	127
 3120 01af 3E       		.byte	62
 3121 01b0 41       		.byte	65
 3122 01b1 41       		.byte	65
 3123 01b2 41       		.byte	65
 3124 01b3 3E       		.byte	62
 3125 01b4 7F       		.byte	127
 3126 01b5 09       		.byte	9
 3127 01b6 09       		.byte	9
 3128 01b7 09       		.byte	9
 3129 01b8 06       		.byte	6
 3130 01b9 3E       		.byte	62
 3131 01ba 41       		.byte	65
 3132 01bb 51       		.byte	81
 3133 01bc 21       		.byte	33
 3134 01bd 5E       		.byte	94
 3135 01be 7F       		.byte	127
 3136 01bf 09       		.byte	9
 3137 01c0 19       		.byte	25
 3138 01c1 29       		.byte	41
 3139 01c2 46       		.byte	70
 3140 01c3 26       		.byte	38
 3141 01c4 49       		.byte	73
 3142 01c5 49       		.byte	73
 3143 01c6 49       		.byte	73
 3144 01c7 32       		.byte	50
 3145 01c8 03       		.byte	3
 3146 01c9 01       		.byte	1
 3147 01ca 7F       		.byte	127
 3148 01cb 01       		.byte	1
 3149 01cc 03       		.byte	3
 3150 01cd 3F       		.byte	63
 3151 01ce 40       		.byte	64
 3152 01cf 40       		.byte	64
 3153 01d0 40       		.byte	64
 3154 01d1 3F       		.byte	63
 3155 01d2 1F       		.byte	31
 3156 01d3 20       		.byte	32
 3157 01d4 40       		.byte	64
 3158 01d5 20       		.byte	32
 3159 01d6 1F       		.byte	31
 3160 01d7 3F       		.byte	63
 3161 01d8 40       		.byte	64
 3162 01d9 38       		.byte	56
 3163 01da 40       		.byte	64
 3164 01db 3F       		.byte	63
 3165 01dc 63       		.byte	99
 3166 01dd 14       		.byte	20
 3167 01de 08       		.byte	8
ARM GAS  C:\Users\boise\AppData\Local\Temp\ccDu5XGS.s 			page 70


 3168 01df 14       		.byte	20
 3169 01e0 63       		.byte	99
 3170 01e1 03       		.byte	3
 3171 01e2 04       		.byte	4
 3172 01e3 78       		.byte	120
 3173 01e4 04       		.byte	4
 3174 01e5 03       		.byte	3
 3175 01e6 61       		.byte	97
 3176 01e7 59       		.byte	89
 3177 01e8 49       		.byte	73
 3178 01e9 4D       		.byte	77
 3179 01ea 43       		.byte	67
 3180 01eb 00       		.byte	0
 3181 01ec 7F       		.byte	127
 3182 01ed 41       		.byte	65
 3183 01ee 41       		.byte	65
 3184 01ef 41       		.byte	65
 3185 01f0 02       		.byte	2
 3186 01f1 04       		.byte	4
 3187 01f2 08       		.byte	8
 3188 01f3 10       		.byte	16
 3189 01f4 20       		.byte	32
 3190 01f5 00       		.byte	0
 3191 01f6 41       		.byte	65
 3192 01f7 41       		.byte	65
 3193 01f8 41       		.byte	65
 3194 01f9 7F       		.byte	127
 3195 01fa 04       		.byte	4
 3196 01fb 02       		.byte	2
 3197 01fc 01       		.byte	1
 3198 01fd 02       		.byte	2
 3199 01fe 04       		.byte	4
 3200 01ff 40       		.byte	64
 3201 0200 40       		.byte	64
 3202 0201 40       		.byte	64
 3203 0202 40       		.byte	64
 3204 0203 40       		.byte	64
 3205 0204 00       		.byte	0
 3206 0205 03       		.byte	3
 3207 0206 07       		.byte	7
 3208 0207 08       		.byte	8
 3209 0208 00       		.byte	0
 3210 0209 20       		.byte	32
 3211 020a 54       		.byte	84
 3212 020b 54       		.byte	84
 3213 020c 78       		.byte	120
 3214 020d 40       		.byte	64
 3215 020e 7F       		.byte	127
 3216 020f 28       		.byte	40
 3217 0210 44       		.byte	68
 3218 0211 44       		.byte	68
 3219 0212 38       		.byte	56
 3220 0213 38       		.byte	56
 3221 0214 44       		.byte	68
 3222 0215 44       		.byte	68
 3223 0216 44       		.byte	68
 3224 0217 28       		.byte	40
ARM GAS  C:\Users\boise\AppData\Local\Temp\ccDu5XGS.s 			page 71


 3225 0218 38       		.byte	56
 3226 0219 44       		.byte	68
 3227 021a 44       		.byte	68
 3228 021b 28       		.byte	40
 3229 021c 7F       		.byte	127
 3230 021d 38       		.byte	56
 3231 021e 54       		.byte	84
 3232 021f 54       		.byte	84
 3233 0220 54       		.byte	84
 3234 0221 18       		.byte	24
 3235 0222 00       		.byte	0
 3236 0223 08       		.byte	8
 3237 0224 7E       		.byte	126
 3238 0225 09       		.byte	9
 3239 0226 02       		.byte	2
 3240 0227 18       		.byte	24
 3241 0228 A4       		.byte	-92
 3242 0229 A4       		.byte	-92
 3243 022a 9C       		.byte	-100
 3244 022b 78       		.byte	120
 3245 022c 7F       		.byte	127
 3246 022d 08       		.byte	8
 3247 022e 04       		.byte	4
 3248 022f 04       		.byte	4
 3249 0230 78       		.byte	120
 3250 0231 00       		.byte	0
 3251 0232 44       		.byte	68
 3252 0233 7D       		.byte	125
 3253 0234 40       		.byte	64
 3254 0235 00       		.byte	0
 3255 0236 20       		.byte	32
 3256 0237 40       		.byte	64
 3257 0238 40       		.byte	64
 3258 0239 3D       		.byte	61
 3259 023a 00       		.byte	0
 3260 023b 7F       		.byte	127
 3261 023c 10       		.byte	16
 3262 023d 28       		.byte	40
 3263 023e 44       		.byte	68
 3264 023f 00       		.byte	0
 3265 0240 00       		.byte	0
 3266 0241 41       		.byte	65
 3267 0242 7F       		.byte	127
 3268 0243 40       		.byte	64
 3269 0244 00       		.byte	0
 3270 0245 7C       		.byte	124
 3271 0246 04       		.byte	4
 3272 0247 78       		.byte	120
 3273 0248 04       		.byte	4
 3274 0249 78       		.byte	120
 3275 024a 7C       		.byte	124
 3276 024b 08       		.byte	8
 3277 024c 04       		.byte	4
 3278 024d 04       		.byte	4
 3279 024e 78       		.byte	120
 3280 024f 38       		.byte	56
 3281 0250 44       		.byte	68
ARM GAS  C:\Users\boise\AppData\Local\Temp\ccDu5XGS.s 			page 72


 3282 0251 44       		.byte	68
 3283 0252 44       		.byte	68
 3284 0253 38       		.byte	56
 3285 0254 FC       		.byte	-4
 3286 0255 18       		.byte	24
 3287 0256 24       		.byte	36
 3288 0257 24       		.byte	36
 3289 0258 18       		.byte	24
 3290 0259 18       		.byte	24
 3291 025a 24       		.byte	36
 3292 025b 24       		.byte	36
 3293 025c 18       		.byte	24
 3294 025d FC       		.byte	-4
 3295 025e 7C       		.byte	124
 3296 025f 08       		.byte	8
 3297 0260 04       		.byte	4
 3298 0261 04       		.byte	4
 3299 0262 08       		.byte	8
 3300 0263 48       		.byte	72
 3301 0264 54       		.byte	84
 3302 0265 54       		.byte	84
 3303 0266 54       		.byte	84
 3304 0267 24       		.byte	36
 3305 0268 04       		.byte	4
 3306 0269 04       		.byte	4
 3307 026a 3F       		.byte	63
 3308 026b 44       		.byte	68
 3309 026c 24       		.byte	36
 3310 026d 3C       		.byte	60
 3311 026e 40       		.byte	64
 3312 026f 40       		.byte	64
 3313 0270 20       		.byte	32
 3314 0271 7C       		.byte	124
 3315 0272 1C       		.byte	28
 3316 0273 20       		.byte	32
 3317 0274 40       		.byte	64
 3318 0275 20       		.byte	32
 3319 0276 1C       		.byte	28
 3320 0277 3C       		.byte	60
 3321 0278 40       		.byte	64
 3322 0279 30       		.byte	48
 3323 027a 40       		.byte	64
 3324 027b 3C       		.byte	60
 3325 027c 44       		.byte	68
 3326 027d 28       		.byte	40
 3327 027e 10       		.byte	16
 3328 027f 28       		.byte	40
 3329 0280 44       		.byte	68
 3330 0281 4C       		.byte	76
 3331 0282 90       		.byte	-112
 3332 0283 90       		.byte	-112
 3333 0284 90       		.byte	-112
 3334 0285 7C       		.byte	124
 3335 0286 44       		.byte	68
 3336 0287 64       		.byte	100
 3337 0288 54       		.byte	84
 3338 0289 4C       		.byte	76
ARM GAS  C:\Users\boise\AppData\Local\Temp\ccDu5XGS.s 			page 73


 3339 028a 44       		.byte	68
 3340 028b 00       		.byte	0
 3341 028c 08       		.byte	8
 3342 028d 36       		.byte	54
 3343 028e 41       		.byte	65
 3344 028f 00       		.byte	0
 3345 0290 00       		.byte	0
 3346 0291 00       		.byte	0
 3347 0292 77       		.byte	119
 3348 0293 00       		.byte	0
 3349 0294 00       		.byte	0
 3350 0295 00       		.byte	0
 3351 0296 41       		.byte	65
 3352 0297 36       		.byte	54
 3353 0298 08       		.byte	8
 3354 0299 00       		.byte	0
 3355 029a 02       		.byte	2
 3356 029b 01       		.byte	1
 3357 029c 02       		.byte	2
 3358 029d 04       		.byte	4
 3359 029e 02       		.byte	2
 3360 029f 3C       		.byte	60
 3361 02a0 26       		.byte	38
 3362 02a1 23       		.byte	35
 3363 02a2 26       		.byte	38
 3364 02a3 3C       		.byte	60
 3365 02a4 1E       		.byte	30
 3366 02a5 A1       		.byte	-95
 3367 02a6 A1       		.byte	-95
 3368 02a7 61       		.byte	97
 3369 02a8 12       		.byte	18
 3370 02a9 3A       		.byte	58
 3371 02aa 40       		.byte	64
 3372 02ab 40       		.byte	64
 3373 02ac 20       		.byte	32
 3374 02ad 7A       		.byte	122
 3375 02ae 38       		.byte	56
 3376 02af 54       		.byte	84
 3377 02b0 54       		.byte	84
 3378 02b1 55       		.byte	85
 3379 02b2 59       		.byte	89
 3380 02b3 21       		.byte	33
 3381 02b4 55       		.byte	85
 3382 02b5 55       		.byte	85
 3383 02b6 79       		.byte	121
 3384 02b7 41       		.byte	65
 3385 02b8 22       		.byte	34
 3386 02b9 54       		.byte	84
 3387 02ba 54       		.byte	84
 3388 02bb 78       		.byte	120
 3389 02bc 42       		.byte	66
 3390 02bd 21       		.byte	33
 3391 02be 55       		.byte	85
 3392 02bf 54       		.byte	84
 3393 02c0 78       		.byte	120
 3394 02c1 40       		.byte	64
 3395 02c2 20       		.byte	32
ARM GAS  C:\Users\boise\AppData\Local\Temp\ccDu5XGS.s 			page 74


 3396 02c3 54       		.byte	84
 3397 02c4 55       		.byte	85
 3398 02c5 79       		.byte	121
 3399 02c6 40       		.byte	64
 3400 02c7 0C       		.byte	12
 3401 02c8 1E       		.byte	30
 3402 02c9 52       		.byte	82
 3403 02ca 72       		.byte	114
 3404 02cb 12       		.byte	18
 3405 02cc 39       		.byte	57
 3406 02cd 55       		.byte	85
 3407 02ce 55       		.byte	85
 3408 02cf 55       		.byte	85
 3409 02d0 59       		.byte	89
 3410 02d1 39       		.byte	57
 3411 02d2 54       		.byte	84
 3412 02d3 54       		.byte	84
 3413 02d4 54       		.byte	84
 3414 02d5 59       		.byte	89
 3415 02d6 39       		.byte	57
 3416 02d7 55       		.byte	85
 3417 02d8 54       		.byte	84
 3418 02d9 54       		.byte	84
 3419 02da 58       		.byte	88
 3420 02db 00       		.byte	0
 3421 02dc 00       		.byte	0
 3422 02dd 45       		.byte	69
 3423 02de 7C       		.byte	124
 3424 02df 41       		.byte	65
 3425 02e0 00       		.byte	0
 3426 02e1 02       		.byte	2
 3427 02e2 45       		.byte	69
 3428 02e3 7D       		.byte	125
 3429 02e4 42       		.byte	66
 3430 02e5 00       		.byte	0
 3431 02e6 01       		.byte	1
 3432 02e7 45       		.byte	69
 3433 02e8 7C       		.byte	124
 3434 02e9 40       		.byte	64
 3435 02ea 7D       		.byte	125
 3436 02eb 12       		.byte	18
 3437 02ec 11       		.byte	17
 3438 02ed 12       		.byte	18
 3439 02ee 7D       		.byte	125
 3440 02ef F0       		.byte	-16
 3441 02f0 28       		.byte	40
 3442 02f1 25       		.byte	37
 3443 02f2 28       		.byte	40
 3444 02f3 F0       		.byte	-16
 3445 02f4 7C       		.byte	124
 3446 02f5 54       		.byte	84
 3447 02f6 55       		.byte	85
 3448 02f7 45       		.byte	69
 3449 02f8 00       		.byte	0
 3450 02f9 20       		.byte	32
 3451 02fa 54       		.byte	84
 3452 02fb 54       		.byte	84
ARM GAS  C:\Users\boise\AppData\Local\Temp\ccDu5XGS.s 			page 75


 3453 02fc 7C       		.byte	124
 3454 02fd 54       		.byte	84
 3455 02fe 7C       		.byte	124
 3456 02ff 0A       		.byte	10
 3457 0300 09       		.byte	9
 3458 0301 7F       		.byte	127
 3459 0302 49       		.byte	73
 3460 0303 32       		.byte	50
 3461 0304 49       		.byte	73
 3462 0305 49       		.byte	73
 3463 0306 49       		.byte	73
 3464 0307 32       		.byte	50
 3465 0308 3A       		.byte	58
 3466 0309 44       		.byte	68
 3467 030a 44       		.byte	68
 3468 030b 44       		.byte	68
 3469 030c 3A       		.byte	58
 3470 030d 32       		.byte	50
 3471 030e 4A       		.byte	74
 3472 030f 48       		.byte	72
 3473 0310 48       		.byte	72
 3474 0311 30       		.byte	48
 3475 0312 3A       		.byte	58
 3476 0313 41       		.byte	65
 3477 0314 41       		.byte	65
 3478 0315 21       		.byte	33
 3479 0316 7A       		.byte	122
 3480 0317 3A       		.byte	58
 3481 0318 42       		.byte	66
 3482 0319 40       		.byte	64
 3483 031a 20       		.byte	32
 3484 031b 78       		.byte	120
 3485 031c 00       		.byte	0
 3486 031d 9D       		.byte	-99
 3487 031e A0       		.byte	-96
 3488 031f A0       		.byte	-96
 3489 0320 7D       		.byte	125
 3490 0321 3D       		.byte	61
 3491 0322 42       		.byte	66
 3492 0323 42       		.byte	66
 3493 0324 42       		.byte	66
 3494 0325 3D       		.byte	61
 3495 0326 3D       		.byte	61
 3496 0327 40       		.byte	64
 3497 0328 40       		.byte	64
 3498 0329 40       		.byte	64
 3499 032a 3D       		.byte	61
 3500 032b 3C       		.byte	60
 3501 032c 24       		.byte	36
 3502 032d FF       		.byte	-1
 3503 032e 24       		.byte	36
 3504 032f 24       		.byte	36
 3505 0330 48       		.byte	72
 3506 0331 7E       		.byte	126
 3507 0332 49       		.byte	73
 3508 0333 43       		.byte	67
 3509 0334 66       		.byte	102
ARM GAS  C:\Users\boise\AppData\Local\Temp\ccDu5XGS.s 			page 76


 3510 0335 2B       		.byte	43
 3511 0336 2F       		.byte	47
 3512 0337 FC       		.byte	-4
 3513 0338 2F       		.byte	47
 3514 0339 2B       		.byte	43
 3515 033a FF       		.byte	-1
 3516 033b 09       		.byte	9
 3517 033c 29       		.byte	41
 3518 033d F6       		.byte	-10
 3519 033e 20       		.byte	32
 3520 033f C0       		.byte	-64
 3521 0340 88       		.byte	-120
 3522 0341 7E       		.byte	126
 3523 0342 09       		.byte	9
 3524 0343 03       		.byte	3
 3525 0344 20       		.byte	32
 3526 0345 54       		.byte	84
 3527 0346 54       		.byte	84
 3528 0347 79       		.byte	121
 3529 0348 41       		.byte	65
 3530 0349 00       		.byte	0
 3531 034a 00       		.byte	0
 3532 034b 44       		.byte	68
 3533 034c 7D       		.byte	125
 3534 034d 41       		.byte	65
 3535 034e 30       		.byte	48
 3536 034f 48       		.byte	72
 3537 0350 48       		.byte	72
 3538 0351 4A       		.byte	74
 3539 0352 32       		.byte	50
 3540 0353 38       		.byte	56
 3541 0354 40       		.byte	64
 3542 0355 40       		.byte	64
 3543 0356 22       		.byte	34
 3544 0357 7A       		.byte	122
 3545 0358 00       		.byte	0
 3546 0359 7A       		.byte	122
 3547 035a 0A       		.byte	10
 3548 035b 0A       		.byte	10
 3549 035c 72       		.byte	114
 3550 035d 7D       		.byte	125
 3551 035e 0D       		.byte	13
 3552 035f 19       		.byte	25
 3553 0360 31       		.byte	49
 3554 0361 7D       		.byte	125
 3555 0362 26       		.byte	38
 3556 0363 29       		.byte	41
 3557 0364 29       		.byte	41
 3558 0365 2F       		.byte	47
 3559 0366 28       		.byte	40
 3560 0367 26       		.byte	38
 3561 0368 29       		.byte	41
 3562 0369 29       		.byte	41
 3563 036a 29       		.byte	41
 3564 036b 26       		.byte	38
 3565 036c 30       		.byte	48
 3566 036d 48       		.byte	72
ARM GAS  C:\Users\boise\AppData\Local\Temp\ccDu5XGS.s 			page 77


 3567 036e 4D       		.byte	77
 3568 036f 40       		.byte	64
 3569 0370 20       		.byte	32
 3570 0371 38       		.byte	56
 3571 0372 08       		.byte	8
 3572 0373 08       		.byte	8
 3573 0374 08       		.byte	8
 3574 0375 08       		.byte	8
 3575 0376 08       		.byte	8
 3576 0377 08       		.byte	8
 3577 0378 08       		.byte	8
 3578 0379 08       		.byte	8
 3579 037a 38       		.byte	56
 3580 037b 2F       		.byte	47
 3581 037c 10       		.byte	16
 3582 037d C8       		.byte	-56
 3583 037e AC       		.byte	-84
 3584 037f BA       		.byte	-70
 3585 0380 2F       		.byte	47
 3586 0381 10       		.byte	16
 3587 0382 28       		.byte	40
 3588 0383 34       		.byte	52
 3589 0384 FA       		.byte	-6
 3590 0385 00       		.byte	0
 3591 0386 00       		.byte	0
 3592 0387 7B       		.byte	123
 3593 0388 00       		.byte	0
 3594 0389 00       		.byte	0
 3595 038a 08       		.byte	8
 3596 038b 14       		.byte	20
 3597 038c 2A       		.byte	42
 3598 038d 14       		.byte	20
 3599 038e 22       		.byte	34
 3600 038f 22       		.byte	34
 3601 0390 14       		.byte	20
 3602 0391 2A       		.byte	42
 3603 0392 14       		.byte	20
 3604 0393 08       		.byte	8
 3605 0394 AA       		.byte	-86
 3606 0395 00       		.byte	0
 3607 0396 55       		.byte	85
 3608 0397 00       		.byte	0
 3609 0398 AA       		.byte	-86
 3610 0399 AA       		.byte	-86
 3611 039a 55       		.byte	85
 3612 039b AA       		.byte	-86
 3613 039c 55       		.byte	85
 3614 039d AA       		.byte	-86
 3615 039e 00       		.byte	0
 3616 039f 00       		.byte	0
 3617 03a0 00       		.byte	0
 3618 03a1 FF       		.byte	-1
 3619 03a2 00       		.byte	0
 3620 03a3 10       		.byte	16
 3621 03a4 10       		.byte	16
 3622 03a5 10       		.byte	16
 3623 03a6 FF       		.byte	-1
ARM GAS  C:\Users\boise\AppData\Local\Temp\ccDu5XGS.s 			page 78


 3624 03a7 00       		.byte	0
 3625 03a8 14       		.byte	20
 3626 03a9 14       		.byte	20
 3627 03aa 14       		.byte	20
 3628 03ab FF       		.byte	-1
 3629 03ac 00       		.byte	0
 3630 03ad 10       		.byte	16
 3631 03ae 10       		.byte	16
 3632 03af FF       		.byte	-1
 3633 03b0 00       		.byte	0
 3634 03b1 FF       		.byte	-1
 3635 03b2 10       		.byte	16
 3636 03b3 10       		.byte	16
 3637 03b4 F0       		.byte	-16
 3638 03b5 10       		.byte	16
 3639 03b6 F0       		.byte	-16
 3640 03b7 14       		.byte	20
 3641 03b8 14       		.byte	20
 3642 03b9 14       		.byte	20
 3643 03ba FC       		.byte	-4
 3644 03bb 00       		.byte	0
 3645 03bc 14       		.byte	20
 3646 03bd 14       		.byte	20
 3647 03be F7       		.byte	-9
 3648 03bf 00       		.byte	0
 3649 03c0 FF       		.byte	-1
 3650 03c1 00       		.byte	0
 3651 03c2 00       		.byte	0
 3652 03c3 FF       		.byte	-1
 3653 03c4 00       		.byte	0
 3654 03c5 FF       		.byte	-1
 3655 03c6 14       		.byte	20
 3656 03c7 14       		.byte	20
 3657 03c8 F4       		.byte	-12
 3658 03c9 04       		.byte	4
 3659 03ca FC       		.byte	-4
 3660 03cb 14       		.byte	20
 3661 03cc 14       		.byte	20
 3662 03cd 17       		.byte	23
 3663 03ce 10       		.byte	16
 3664 03cf 1F       		.byte	31
 3665 03d0 10       		.byte	16
 3666 03d1 10       		.byte	16
 3667 03d2 1F       		.byte	31
 3668 03d3 10       		.byte	16
 3669 03d4 1F       		.byte	31
 3670 03d5 14       		.byte	20
 3671 03d6 14       		.byte	20
 3672 03d7 14       		.byte	20
 3673 03d8 1F       		.byte	31
 3674 03d9 00       		.byte	0
 3675 03da 10       		.byte	16
 3676 03db 10       		.byte	16
 3677 03dc 10       		.byte	16
 3678 03dd F0       		.byte	-16
 3679 03de 00       		.byte	0
 3680 03df 00       		.byte	0
ARM GAS  C:\Users\boise\AppData\Local\Temp\ccDu5XGS.s 			page 79


 3681 03e0 00       		.byte	0
 3682 03e1 00       		.byte	0
 3683 03e2 1F       		.byte	31
 3684 03e3 10       		.byte	16
 3685 03e4 10       		.byte	16
 3686 03e5 10       		.byte	16
 3687 03e6 10       		.byte	16
 3688 03e7 1F       		.byte	31
 3689 03e8 10       		.byte	16
 3690 03e9 10       		.byte	16
 3691 03ea 10       		.byte	16
 3692 03eb 10       		.byte	16
 3693 03ec F0       		.byte	-16
 3694 03ed 10       		.byte	16
 3695 03ee 00       		.byte	0
 3696 03ef 00       		.byte	0
 3697 03f0 00       		.byte	0
 3698 03f1 FF       		.byte	-1
 3699 03f2 10       		.byte	16
 3700 03f3 10       		.byte	16
 3701 03f4 10       		.byte	16
 3702 03f5 10       		.byte	16
 3703 03f6 10       		.byte	16
 3704 03f7 10       		.byte	16
 3705 03f8 10       		.byte	16
 3706 03f9 10       		.byte	16
 3707 03fa 10       		.byte	16
 3708 03fb FF       		.byte	-1
 3709 03fc 10       		.byte	16
 3710 03fd 00       		.byte	0
 3711 03fe 00       		.byte	0
 3712 03ff 00       		.byte	0
 3713 0400 FF       		.byte	-1
 3714 0401 14       		.byte	20
 3715 0402 00       		.byte	0
 3716 0403 00       		.byte	0
 3717 0404 FF       		.byte	-1
 3718 0405 00       		.byte	0
 3719 0406 FF       		.byte	-1
 3720 0407 00       		.byte	0
 3721 0408 00       		.byte	0
 3722 0409 1F       		.byte	31
 3723 040a 10       		.byte	16
 3724 040b 17       		.byte	23
 3725 040c 00       		.byte	0
 3726 040d 00       		.byte	0
 3727 040e FC       		.byte	-4
 3728 040f 04       		.byte	4
 3729 0410 F4       		.byte	-12
 3730 0411 14       		.byte	20
 3731 0412 14       		.byte	20
 3732 0413 17       		.byte	23
 3733 0414 10       		.byte	16
 3734 0415 17       		.byte	23
 3735 0416 14       		.byte	20
 3736 0417 14       		.byte	20
 3737 0418 F4       		.byte	-12
ARM GAS  C:\Users\boise\AppData\Local\Temp\ccDu5XGS.s 			page 80


 3738 0419 04       		.byte	4
 3739 041a F4       		.byte	-12
 3740 041b 00       		.byte	0
 3741 041c 00       		.byte	0
 3742 041d FF       		.byte	-1
 3743 041e 00       		.byte	0
 3744 041f F7       		.byte	-9
 3745 0420 14       		.byte	20
 3746 0421 14       		.byte	20
 3747 0422 14       		.byte	20
 3748 0423 14       		.byte	20
 3749 0424 14       		.byte	20
 3750 0425 14       		.byte	20
 3751 0426 14       		.byte	20
 3752 0427 F7       		.byte	-9
 3753 0428 00       		.byte	0
 3754 0429 F7       		.byte	-9
 3755 042a 14       		.byte	20
 3756 042b 14       		.byte	20
 3757 042c 14       		.byte	20
 3758 042d 17       		.byte	23
 3759 042e 14       		.byte	20
 3760 042f 10       		.byte	16
 3761 0430 10       		.byte	16
 3762 0431 1F       		.byte	31
 3763 0432 10       		.byte	16
 3764 0433 1F       		.byte	31
 3765 0434 14       		.byte	20
 3766 0435 14       		.byte	20
 3767 0436 14       		.byte	20
 3768 0437 F4       		.byte	-12
 3769 0438 14       		.byte	20
 3770 0439 10       		.byte	16
 3771 043a 10       		.byte	16
 3772 043b F0       		.byte	-16
 3773 043c 10       		.byte	16
 3774 043d F0       		.byte	-16
 3775 043e 00       		.byte	0
 3776 043f 00       		.byte	0
 3777 0440 1F       		.byte	31
 3778 0441 10       		.byte	16
 3779 0442 1F       		.byte	31
 3780 0443 00       		.byte	0
 3781 0444 00       		.byte	0
 3782 0445 00       		.byte	0
 3783 0446 1F       		.byte	31
 3784 0447 14       		.byte	20
 3785 0448 00       		.byte	0
 3786 0449 00       		.byte	0
 3787 044a 00       		.byte	0
 3788 044b FC       		.byte	-4
 3789 044c 14       		.byte	20
 3790 044d 00       		.byte	0
 3791 044e 00       		.byte	0
 3792 044f F0       		.byte	-16
 3793 0450 10       		.byte	16
 3794 0451 F0       		.byte	-16
ARM GAS  C:\Users\boise\AppData\Local\Temp\ccDu5XGS.s 			page 81


 3795 0452 10       		.byte	16
 3796 0453 10       		.byte	16
 3797 0454 FF       		.byte	-1
 3798 0455 10       		.byte	16
 3799 0456 FF       		.byte	-1
 3800 0457 14       		.byte	20
 3801 0458 14       		.byte	20
 3802 0459 14       		.byte	20
 3803 045a FF       		.byte	-1
 3804 045b 14       		.byte	20
 3805 045c 10       		.byte	16
 3806 045d 10       		.byte	16
 3807 045e 10       		.byte	16
 3808 045f 1F       		.byte	31
 3809 0460 00       		.byte	0
 3810 0461 00       		.byte	0
 3811 0462 00       		.byte	0
 3812 0463 00       		.byte	0
 3813 0464 F0       		.byte	-16
 3814 0465 10       		.byte	16
 3815 0466 FF       		.byte	-1
 3816 0467 FF       		.byte	-1
 3817 0468 FF       		.byte	-1
 3818 0469 FF       		.byte	-1
 3819 046a FF       		.byte	-1
 3820 046b F0       		.byte	-16
 3821 046c F0       		.byte	-16
 3822 046d F0       		.byte	-16
 3823 046e F0       		.byte	-16
 3824 046f F0       		.byte	-16
 3825 0470 FF       		.byte	-1
 3826 0471 FF       		.byte	-1
 3827 0472 FF       		.byte	-1
 3828 0473 00       		.byte	0
 3829 0474 00       		.byte	0
 3830 0475 00       		.byte	0
 3831 0476 00       		.byte	0
 3832 0477 00       		.byte	0
 3833 0478 FF       		.byte	-1
 3834 0479 FF       		.byte	-1
 3835 047a 0F       		.byte	15
 3836 047b 0F       		.byte	15
 3837 047c 0F       		.byte	15
 3838 047d 0F       		.byte	15
 3839 047e 0F       		.byte	15
 3840 047f 38       		.byte	56
 3841 0480 44       		.byte	68
 3842 0481 44       		.byte	68
 3843 0482 38       		.byte	56
 3844 0483 44       		.byte	68
 3845 0484 FC       		.byte	-4
 3846 0485 4A       		.byte	74
 3847 0486 4A       		.byte	74
 3848 0487 4A       		.byte	74
 3849 0488 34       		.byte	52
 3850 0489 7E       		.byte	126
 3851 048a 02       		.byte	2
ARM GAS  C:\Users\boise\AppData\Local\Temp\ccDu5XGS.s 			page 82


 3852 048b 02       		.byte	2
 3853 048c 06       		.byte	6
 3854 048d 06       		.byte	6
 3855 048e 02       		.byte	2
 3856 048f 7E       		.byte	126
 3857 0490 02       		.byte	2
 3858 0491 7E       		.byte	126
 3859 0492 02       		.byte	2
 3860 0493 63       		.byte	99
 3861 0494 55       		.byte	85
 3862 0495 49       		.byte	73
 3863 0496 41       		.byte	65
 3864 0497 63       		.byte	99
 3865 0498 38       		.byte	56
 3866 0499 44       		.byte	68
 3867 049a 44       		.byte	68
 3868 049b 3C       		.byte	60
 3869 049c 04       		.byte	4
 3870 049d 40       		.byte	64
 3871 049e 7E       		.byte	126
 3872 049f 20       		.byte	32
 3873 04a0 1E       		.byte	30
 3874 04a1 20       		.byte	32
 3875 04a2 06       		.byte	6
 3876 04a3 02       		.byte	2
 3877 04a4 7E       		.byte	126
 3878 04a5 02       		.byte	2
 3879 04a6 02       		.byte	2
 3880 04a7 99       		.byte	-103
 3881 04a8 A5       		.byte	-91
 3882 04a9 E7       		.byte	-25
 3883 04aa A5       		.byte	-91
 3884 04ab 99       		.byte	-103
 3885 04ac 1C       		.byte	28
 3886 04ad 2A       		.byte	42
 3887 04ae 49       		.byte	73
 3888 04af 2A       		.byte	42
 3889 04b0 1C       		.byte	28
 3890 04b1 4C       		.byte	76
 3891 04b2 72       		.byte	114
 3892 04b3 01       		.byte	1
 3893 04b4 72       		.byte	114
 3894 04b5 4C       		.byte	76
 3895 04b6 30       		.byte	48
 3896 04b7 4A       		.byte	74
 3897 04b8 4D       		.byte	77
 3898 04b9 4D       		.byte	77
 3899 04ba 30       		.byte	48
 3900 04bb 30       		.byte	48
 3901 04bc 48       		.byte	72
 3902 04bd 78       		.byte	120
 3903 04be 48       		.byte	72
 3904 04bf 30       		.byte	48
 3905 04c0 BC       		.byte	-68
 3906 04c1 62       		.byte	98
 3907 04c2 5A       		.byte	90
 3908 04c3 46       		.byte	70
ARM GAS  C:\Users\boise\AppData\Local\Temp\ccDu5XGS.s 			page 83


 3909 04c4 3D       		.byte	61
 3910 04c5 3E       		.byte	62
 3911 04c6 49       		.byte	73
 3912 04c7 49       		.byte	73
 3913 04c8 49       		.byte	73
 3914 04c9 00       		.byte	0
 3915 04ca 7E       		.byte	126
 3916 04cb 01       		.byte	1
 3917 04cc 01       		.byte	1
 3918 04cd 01       		.byte	1
 3919 04ce 7E       		.byte	126
 3920 04cf 2A       		.byte	42
 3921 04d0 2A       		.byte	42
 3922 04d1 2A       		.byte	42
 3923 04d2 2A       		.byte	42
 3924 04d3 2A       		.byte	42
 3925 04d4 44       		.byte	68
 3926 04d5 44       		.byte	68
 3927 04d6 5F       		.byte	95
 3928 04d7 44       		.byte	68
 3929 04d8 44       		.byte	68
 3930 04d9 40       		.byte	64
 3931 04da 51       		.byte	81
 3932 04db 4A       		.byte	74
 3933 04dc 44       		.byte	68
 3934 04dd 40       		.byte	64
 3935 04de 40       		.byte	64
 3936 04df 44       		.byte	68
 3937 04e0 4A       		.byte	74
 3938 04e1 51       		.byte	81
 3939 04e2 40       		.byte	64
 3940 04e3 00       		.byte	0
 3941 04e4 00       		.byte	0
 3942 04e5 FF       		.byte	-1
 3943 04e6 01       		.byte	1
 3944 04e7 03       		.byte	3
 3945 04e8 E0       		.byte	-32
 3946 04e9 80       		.byte	-128
 3947 04ea FF       		.byte	-1
 3948 04eb 00       		.byte	0
 3949 04ec 00       		.byte	0
 3950 04ed 08       		.byte	8
 3951 04ee 08       		.byte	8
 3952 04ef 6B       		.byte	107
 3953 04f0 6B       		.byte	107
 3954 04f1 08       		.byte	8
 3955 04f2 36       		.byte	54
 3956 04f3 12       		.byte	18
 3957 04f4 36       		.byte	54
 3958 04f5 24       		.byte	36
 3959 04f6 36       		.byte	54
 3960 04f7 06       		.byte	6
 3961 04f8 0F       		.byte	15
 3962 04f9 09       		.byte	9
 3963 04fa 0F       		.byte	15
 3964 04fb 06       		.byte	6
 3965 04fc 00       		.byte	0
ARM GAS  C:\Users\boise\AppData\Local\Temp\ccDu5XGS.s 			page 84


 3966 04fd 00       		.byte	0
 3967 04fe 18       		.byte	24
 3968 04ff 18       		.byte	24
 3969 0500 00       		.byte	0
 3970 0501 00       		.byte	0
 3971 0502 00       		.byte	0
 3972 0503 10       		.byte	16
 3973 0504 10       		.byte	16
 3974 0505 00       		.byte	0
 3975 0506 30       		.byte	48
 3976 0507 40       		.byte	64
 3977 0508 FF       		.byte	-1
 3978 0509 01       		.byte	1
 3979 050a 01       		.byte	1
 3980 050b 00       		.byte	0
 3981 050c 1F       		.byte	31
 3982 050d 01       		.byte	1
 3983 050e 01       		.byte	1
 3984 050f 1E       		.byte	30
 3985 0510 00       		.byte	0
 3986 0511 19       		.byte	25
 3987 0512 1D       		.byte	29
 3988 0513 17       		.byte	23
 3989 0514 12       		.byte	18
 3990 0515 00       		.byte	0
 3991 0516 3C       		.byte	60
 3992 0517 3C       		.byte	60
 3993 0518 3C       		.byte	60
 3994 0519 3C       		.byte	60
 3995 051a 00       		.byte	0
 3996 051b 00       		.byte	0
 3997 051c 00       		.byte	0
 3998 051d 00       		.byte	0
 3999 051e 00       		.byte	0
 4000              		.data
 4001              		.align	2
 4002              		.set	.LANCHOR0,. + 0
 4003              		.type	SSD1306_buffer, %object
 4004              		.size	SSD1306_buffer, 1025
 4005              	SSD1306_buffer:
 4006 0000 40       		.byte	64
 4007 0001 00000000 		.space	1024
 4007      00000000 
 4007      00000000 
 4007      00000000 
 4007      00000000 
 4008              		.bss
 4009              		.align	1
 4010              		.set	.LANCHOR1,. + 0
 4011              		.type	_i2caddr, %object
 4012              		.size	_i2caddr, 1
 4013              	_i2caddr:
 4014 0000 00       		.space	1
 4015 0001 00       		.space	1
 4016              		.type	_width, %object
 4017              		.size	_width, 2
 4018              	_width:
ARM GAS  C:\Users\boise\AppData\Local\Temp\ccDu5XGS.s 			page 85


 4019 0002 0000     		.space	2
 4020              		.type	_height, %object
 4021              		.size	_height, 2
 4022              	_height:
 4023 0004 0000     		.space	2
 4024              		.type	cursor_x, %object
 4025              		.size	cursor_x, 2
 4026              	cursor_x:
 4027 0006 0000     		.space	2
 4028              		.type	cursor_y, %object
 4029              		.size	cursor_y, 2
 4030              	cursor_y:
 4031 0008 0000     		.space	2
 4032              		.type	textsize, %object
 4033              		.size	textsize, 1
 4034              	textsize:
 4035 000a 00       		.space	1
 4036 000b 00       		.space	1
 4037              		.type	textbgcolor, %object
 4038              		.size	textbgcolor, 2
 4039              	textbgcolor:
 4040 000c 0000     		.space	2
 4041              		.type	textcolor, %object
 4042              		.size	textcolor, 2
 4043              	textcolor:
 4044 000e 0000     		.space	2
 4045              		.text
 4046              	.Letext0:
 4047              		.file 2 "c:\\program files (x86)\\cypress\\psoc creator\\4.4\\psoc creator\\import\\gnu\\arm\\5.4.
 4048              		.file 3 "c:\\program files (x86)\\cypress\\psoc creator\\4.4\\psoc creator\\import\\gnu\\arm\\5.4.
 4049              		.file 4 "Generated_Source\\PSoC4/cytypes.h"
 4050              		.file 5 "..\\..\\Cypress-PSOC-OLED-master\\Cypress-PSOC-OLED-master\\OLED.cydsn\\ssd1306.h"
 4051              		.file 6 "..\\..\\Cypress-PSOC-OLED-master\\Cypress-PSOC-OLED-master\\OLED.cydsn\\font.h"
 4052              		.file 7 "Generated_Source\\PSoC4/I2C_I2C.h"
 4053              		.file 8 "c:\\program files (x86)\\cypress\\psoc creator\\4.4\\psoc creator\\import\\gnu\\arm\\5.4.
 4054              		.section	.debug_info,"",%progbits
 4055              	.Ldebug_info0:
 4056 0000 95130000 		.4byte	0x1395
 4057 0004 0400     		.2byte	0x4
 4058 0006 00000000 		.4byte	.Ldebug_abbrev0
 4059 000a 04       		.byte	0x4
 4060 000b 01       		.uleb128 0x1
 4061 000c B8010000 		.4byte	.LASF122
 4062 0010 0C       		.byte	0xc
 4063 0011 93050000 		.4byte	.LASF123
 4064 0015 E2020000 		.4byte	.LASF124
 4065 0019 00000000 		.4byte	.Ldebug_ranges0+0
 4066 001d 00000000 		.4byte	0
 4067 0021 00000000 		.4byte	.Ldebug_line0
 4068 0025 02       		.uleb128 0x2
 4069 0026 46040000 		.4byte	.LASF0
 4070 002a 02       		.byte	0x2
 4071 002b 1B       		.byte	0x1b
 4072 002c 30000000 		.4byte	0x30
 4073 0030 03       		.uleb128 0x3
 4074 0031 01       		.byte	0x1
 4075 0032 06       		.byte	0x6
ARM GAS  C:\Users\boise\AppData\Local\Temp\ccDu5XGS.s 			page 86


 4076 0033 25060000 		.4byte	.LASF2
 4077 0037 02       		.uleb128 0x2
 4078 0038 03050000 		.4byte	.LASF1
 4079 003c 02       		.byte	0x2
 4080 003d 1D       		.byte	0x1d
 4081 003e 42000000 		.4byte	0x42
 4082 0042 03       		.uleb128 0x3
 4083 0043 01       		.byte	0x1
 4084 0044 08       		.byte	0x8
 4085 0045 7B050000 		.4byte	.LASF3
 4086 0049 02       		.uleb128 0x2
 4087 004a C2030000 		.4byte	.LASF4
 4088 004e 02       		.byte	0x2
 4089 004f 29       		.byte	0x29
 4090 0050 54000000 		.4byte	0x54
 4091 0054 03       		.uleb128 0x3
 4092 0055 02       		.byte	0x2
 4093 0056 05       		.byte	0x5
 4094 0057 AD040000 		.4byte	.LASF5
 4095 005b 02       		.uleb128 0x2
 4096 005c 99010000 		.4byte	.LASF6
 4097 0060 02       		.byte	0x2
 4098 0061 2B       		.byte	0x2b
 4099 0062 66000000 		.4byte	0x66
 4100 0066 03       		.uleb128 0x3
 4101 0067 02       		.byte	0x2
 4102 0068 07       		.byte	0x7
 4103 0069 31060000 		.4byte	.LASF7
 4104 006d 03       		.uleb128 0x3
 4105 006e 04       		.byte	0x4
 4106 006f 05       		.byte	0x5
 4107 0070 BF040000 		.4byte	.LASF8
 4108 0074 03       		.uleb128 0x3
 4109 0075 04       		.byte	0x4
 4110 0076 07       		.byte	0x7
 4111 0077 3D050000 		.4byte	.LASF9
 4112 007b 03       		.uleb128 0x3
 4113 007c 08       		.byte	0x8
 4114 007d 05       		.byte	0x5
 4115 007e 88030000 		.4byte	.LASF10
 4116 0082 03       		.uleb128 0x3
 4117 0083 08       		.byte	0x8
 4118 0084 07       		.byte	0x7
 4119 0085 69010000 		.4byte	.LASF11
 4120 0089 04       		.uleb128 0x4
 4121 008a 04       		.byte	0x4
 4122 008b 05       		.byte	0x5
 4123 008c 696E7400 		.ascii	"int\000"
 4124 0090 03       		.uleb128 0x3
 4125 0091 04       		.byte	0x4
 4126 0092 07       		.byte	0x7
 4127 0093 2B000000 		.4byte	.LASF12
 4128 0097 02       		.uleb128 0x2
 4129 0098 1C010000 		.4byte	.LASF13
 4130 009c 03       		.byte	0x3
 4131 009d 14       		.byte	0x14
 4132 009e 25000000 		.4byte	0x25
ARM GAS  C:\Users\boise\AppData\Local\Temp\ccDu5XGS.s 			page 87


 4133 00a2 02       		.uleb128 0x2
 4134 00a3 5F030000 		.4byte	.LASF14
 4135 00a7 03       		.byte	0x3
 4136 00a8 18       		.byte	0x18
 4137 00a9 37000000 		.4byte	0x37
 4138 00ad 02       		.uleb128 0x2
 4139 00ae 61010000 		.4byte	.LASF15
 4140 00b2 03       		.byte	0x3
 4141 00b3 20       		.byte	0x20
 4142 00b4 49000000 		.4byte	0x49
 4143 00b8 02       		.uleb128 0x2
 4144 00b9 7A040000 		.4byte	.LASF16
 4145 00bd 03       		.byte	0x3
 4146 00be 24       		.byte	0x24
 4147 00bf 5B000000 		.4byte	0x5b
 4148 00c3 05       		.uleb128 0x5
 4149 00c4 5E060000 		.4byte	.LASF17
 4150 00c8 04       		.byte	0x4
 4151 00c9 FC01     		.2byte	0x1fc
 4152 00cb 42000000 		.4byte	0x42
 4153 00cf 05       		.uleb128 0x5
 4154 00d0 51030000 		.4byte	.LASF18
 4155 00d4 04       		.byte	0x4
 4156 00d5 FD01     		.2byte	0x1fd
 4157 00d7 66000000 		.4byte	0x66
 4158 00db 05       		.uleb128 0x5
 4159 00dc F1030000 		.4byte	.LASF19
 4160 00e0 04       		.byte	0x4
 4161 00e1 FE01     		.2byte	0x1fe
 4162 00e3 74000000 		.4byte	0x74
 4163 00e7 03       		.uleb128 0x3
 4164 00e8 04       		.byte	0x4
 4165 00e9 04       		.byte	0x4
 4166 00ea 28010000 		.4byte	.LASF20
 4167 00ee 03       		.uleb128 0x3
 4168 00ef 08       		.byte	0x8
 4169 00f0 04       		.byte	0x4
 4170 00f1 64060000 		.4byte	.LASF21
 4171 00f5 03       		.uleb128 0x3
 4172 00f6 01       		.byte	0x1
 4173 00f7 08       		.byte	0x8
 4174 00f8 4C030000 		.4byte	.LASF22
 4175 00fc 03       		.uleb128 0x3
 4176 00fd 08       		.byte	0x8
 4177 00fe 04       		.byte	0x4
 4178 00ff 63040000 		.4byte	.LASF23
 4179 0103 03       		.uleb128 0x3
 4180 0104 04       		.byte	0x4
 4181 0105 07       		.byte	0x7
 4182 0106 2D050000 		.4byte	.LASF24
 4183 010a 06       		.uleb128 0x6
 4184 010b 04       		.byte	0x4
 4185 010c 10010000 		.4byte	0x110
 4186 0110 07       		.uleb128 0x7
 4187 0111 F5000000 		.4byte	0xf5
 4188 0115 08       		.uleb128 0x8
 4189 0116 01       		.byte	0x1
ARM GAS  C:\Users\boise\AppData\Local\Temp\ccDu5XGS.s 			page 88


 4190 0117 42000000 		.4byte	0x42
 4191 011b 05       		.byte	0x5
 4192 011c 19       		.byte	0x19
 4193 011d 2E010000 		.4byte	0x12e
 4194 0121 09       		.uleb128 0x9
 4195 0122 6E050000 		.4byte	.LASF25
 4196 0126 26       		.byte	0x26
 4197 0127 09       		.uleb128 0x9
 4198 0128 4F050000 		.4byte	.LASF26
 4199 012c 2A       		.byte	0x2a
 4200 012d 00       		.byte	0
 4201 012e 02       		.uleb128 0x2
 4202 012f 76000000 		.4byte	.LASF27
 4203 0133 05       		.byte	0x5
 4204 0134 1C       		.byte	0x1c
 4205 0135 15010000 		.4byte	0x115
 4206 0139 08       		.uleb128 0x8
 4207 013a 01       		.byte	0x1
 4208 013b 42000000 		.4byte	0x42
 4209 013f 05       		.byte	0x5
 4210 0140 1E       		.byte	0x1e
 4211 0141 76010000 		.4byte	0x176
 4212 0145 09       		.uleb128 0x9
 4213 0146 9D000000 		.4byte	.LASF28
 4214 014a 03       		.byte	0x3
 4215 014b 09       		.uleb128 0x9
 4216 014c AC000000 		.4byte	.LASF29
 4217 0150 02       		.byte	0x2
 4218 0151 09       		.uleb128 0x9
 4219 0152 BB000000 		.4byte	.LASF30
 4220 0156 01       		.byte	0x1
 4221 0157 09       		.uleb128 0x9
 4222 0158 CA000000 		.4byte	.LASF31
 4223 015c 06       		.byte	0x6
 4224 015d 09       		.uleb128 0x9
 4225 015e D9000000 		.4byte	.LASF32
 4226 0162 00       		.byte	0
 4227 0163 09       		.uleb128 0x9
 4228 0164 E8000000 		.4byte	.LASF33
 4229 0168 05       		.byte	0x5
 4230 0169 09       		.uleb128 0x9
 4231 016a F7000000 		.4byte	.LASF34
 4232 016e 04       		.byte	0x4
 4233 016f 09       		.uleb128 0x9
 4234 0170 06010000 		.4byte	.LASF35
 4235 0174 07       		.byte	0x7
 4236 0175 00       		.byte	0
 4237 0176 02       		.uleb128 0x2
 4238 0177 9F030000 		.4byte	.LASF36
 4239 017b 05       		.byte	0x5
 4240 017c 27       		.byte	0x27
 4241 017d 39010000 		.4byte	0x139
 4242 0181 08       		.uleb128 0x8
 4243 0182 01       		.byte	0x1
 4244 0183 42000000 		.4byte	0x42
 4245 0187 05       		.byte	0x5
 4246 0188 29       		.byte	0x29
ARM GAS  C:\Users\boise\AppData\Local\Temp\ccDu5XGS.s 			page 89


 4247 0189 BE010000 		.4byte	0x1be
 4248 018d 09       		.uleb128 0x9
 4249 018e 72020000 		.4byte	.LASF37
 4250 0192 00       		.byte	0
 4251 0193 09       		.uleb128 0x9
 4252 0194 80020000 		.4byte	.LASF38
 4253 0198 01       		.byte	0x1
 4254 0199 09       		.uleb128 0x9
 4255 019a 8E020000 		.4byte	.LASF39
 4256 019e 02       		.byte	0x2
 4257 019f 09       		.uleb128 0x9
 4258 01a0 9C020000 		.4byte	.LASF40
 4259 01a4 03       		.byte	0x3
 4260 01a5 09       		.uleb128 0x9
 4261 01a6 AA020000 		.4byte	.LASF41
 4262 01aa 04       		.byte	0x4
 4263 01ab 09       		.uleb128 0x9
 4264 01ac B8020000 		.4byte	.LASF42
 4265 01b0 05       		.byte	0x5
 4266 01b1 09       		.uleb128 0x9
 4267 01b2 C6020000 		.4byte	.LASF43
 4268 01b6 06       		.byte	0x6
 4269 01b7 09       		.uleb128 0x9
 4270 01b8 D4020000 		.4byte	.LASF44
 4271 01bc 07       		.byte	0x7
 4272 01bd 00       		.byte	0
 4273 01be 02       		.uleb128 0x2
 4274 01bf AC030000 		.4byte	.LASF45
 4275 01c3 05       		.byte	0x5
 4276 01c4 32       		.byte	0x32
 4277 01c5 81010000 		.4byte	0x181
 4278 01c9 0A       		.uleb128 0xa
 4279 01ca 61020000 		.4byte	.LASF47
 4280 01ce 01       		.byte	0x1
 4281 01cf B2       		.byte	0xb2
 4282 01d0 00000000 		.4byte	.LFB34
 4283 01d4 8C000000 		.4byte	.LFE34-.LFB34
 4284 01d8 01       		.uleb128 0x1
 4285 01d9 9C       		.byte	0x9c
 4286 01da 08020000 		.4byte	0x208
 4287 01de 0B       		.uleb128 0xb
 4288 01df 7800     		.ascii	"x\000"
 4289 01e1 01       		.byte	0x1
 4290 01e2 B2       		.byte	0xb2
 4291 01e3 AD000000 		.4byte	0xad
 4292 01e7 00000000 		.4byte	.LLST0
 4293 01eb 0B       		.uleb128 0xb
 4294 01ec 7900     		.ascii	"y\000"
 4295 01ee 01       		.byte	0x1
 4296 01ef B2       		.byte	0xb2
 4297 01f0 AD000000 		.4byte	0xad
 4298 01f4 53000000 		.4byte	.LLST1
 4299 01f8 0C       		.uleb128 0xc
 4300 01f9 ED040000 		.4byte	.LASF46
 4301 01fd 01       		.byte	0x1
 4302 01fe B2       		.byte	0xb2
 4303 01ff B8000000 		.4byte	0xb8
ARM GAS  C:\Users\boise\AppData\Local\Temp\ccDu5XGS.s 			page 90


 4304 0203 A6000000 		.4byte	.LLST2
 4305 0207 00       		.byte	0
 4306 0208 0A       		.uleb128 0xa
 4307 0209 5E000000 		.4byte	.LASF48
 4308 020d 01       		.byte	0x1
 4309 020e F6       		.byte	0xf6
 4310 020f 00000000 		.4byte	.LFB39
 4311 0213 4C010000 		.4byte	.LFE39-.LFB39
 4312 0217 01       		.uleb128 0x1
 4313 0218 9C       		.byte	0x9c
 4314 0219 2E030000 		.4byte	0x32e
 4315 021d 0B       		.uleb128 0xb
 4316 021e 783100   		.ascii	"x1\000"
 4317 0221 01       		.byte	0x1
 4318 0222 F6       		.byte	0xf6
 4319 0223 AD000000 		.4byte	0xad
 4320 0227 F9000000 		.4byte	.LLST3
 4321 022b 0B       		.uleb128 0xb
 4322 022c 793100   		.ascii	"y1\000"
 4323 022f 01       		.byte	0x1
 4324 0230 F6       		.byte	0xf6
 4325 0231 AD000000 		.4byte	0xad
 4326 0235 33010000 		.4byte	.LLST4
 4327 0239 0B       		.uleb128 0xb
 4328 023a 783200   		.ascii	"x2\000"
 4329 023d 01       		.byte	0x1
 4330 023e F6       		.byte	0xf6
 4331 023f AD000000 		.4byte	0xad
 4332 0243 54010000 		.4byte	.LLST5
 4333 0247 0B       		.uleb128 0xb
 4334 0248 793200   		.ascii	"y2\000"
 4335 024b 01       		.byte	0x1
 4336 024c F6       		.byte	0xf6
 4337 024d AD000000 		.4byte	0xad
 4338 0251 8E010000 		.4byte	.LLST6
 4339 0255 0C       		.uleb128 0xc
 4340 0256 ED040000 		.4byte	.LASF46
 4341 025a 01       		.byte	0x1
 4342 025b F6       		.byte	0xf6
 4343 025c B8000000 		.4byte	0xb8
 4344 0260 AF010000 		.4byte	.LLST7
 4345 0264 0D       		.uleb128 0xd
 4346 0265 0E000000 		.4byte	.LBB2
 4347 0269 E0000000 		.4byte	.LBE2-.LBB2
 4348 026d E3020000 		.4byte	0x2e3
 4349 0271 0E       		.uleb128 0xe
 4350 0272 2E010000 		.4byte	.LASF49
 4351 0276 01       		.byte	0x1
 4352 0277 FA       		.byte	0xfa
 4353 0278 2E030000 		.4byte	0x32e
 4354 027c F3010000 		.4byte	.LLST8
 4355 0280 0E       		.uleb128 0xe
 4356 0281 DB030000 		.4byte	.LASF50
 4357 0285 01       		.byte	0x1
 4358 0286 FB       		.byte	0xfb
 4359 0287 2E030000 		.4byte	0x32e
 4360 028b 06020000 		.4byte	.LLST9
ARM GAS  C:\Users\boise\AppData\Local\Temp\ccDu5XGS.s 			page 91


 4361 028f 0F       		.uleb128 0xf
 4362 0290 70747200 		.ascii	"ptr\000"
 4363 0294 01       		.byte	0x1
 4364 0295 FC       		.byte	0xfc
 4365 0296 2E030000 		.4byte	0x32e
 4366 029a 19020000 		.4byte	.LLST10
 4367 029e 10       		.uleb128 0x10
 4368 029f 34000000 		.4byte	.LBB3
 4369 02a3 B4000000 		.4byte	.LBE3-.LBB3
 4370 02a7 11       		.uleb128 0x11
 4371 02a8 20040000 		.4byte	.LASF51
 4372 02ac 01       		.byte	0x1
 4373 02ad 0001     		.2byte	0x100
 4374 02af A2000000 		.4byte	0xa2
 4375 02b3 37020000 		.4byte	.LLST11
 4376 02b7 10       		.uleb128 0x10
 4377 02b8 38000000 		.4byte	.LBB4
 4378 02bc 36000000 		.4byte	.LBE4-.LBB4
 4379 02c0 11       		.uleb128 0x11
 4380 02c1 0D050000 		.4byte	.LASF52
 4381 02c5 01       		.byte	0x1
 4382 02c6 0301     		.2byte	0x103
 4383 02c8 A2000000 		.4byte	0xa2
 4384 02cc 4A020000 		.4byte	.LLST12
 4385 02d0 11       		.uleb128 0x11
 4386 02d1 89050000 		.4byte	.LASF53
 4387 02d5 01       		.byte	0x1
 4388 02d6 0501     		.2byte	0x105
 4389 02d8 A2000000 		.4byte	0xa2
 4390 02dc 68020000 		.4byte	.LLST13
 4391 02e0 00       		.byte	0
 4392 02e1 00       		.byte	0
 4393 02e2 00       		.byte	0
 4394 02e3 10       		.uleb128 0x10
 4395 02e4 EE000000 		.4byte	.LBB5
 4396 02e8 4E000000 		.4byte	.LBE5-.LBB5
 4397 02ec 11       		.uleb128 0x11
 4398 02ed 2E010000 		.4byte	.LASF49
 4399 02f1 01       		.byte	0x1
 4400 02f2 2101     		.2byte	0x121
 4401 02f4 2E030000 		.4byte	0x32e
 4402 02f8 7B020000 		.4byte	.LLST14
 4403 02fc 11       		.uleb128 0x11
 4404 02fd DB030000 		.4byte	.LASF50
 4405 0301 01       		.byte	0x1
 4406 0302 2201     		.2byte	0x122
 4407 0304 2E030000 		.4byte	0x32e
 4408 0308 8E020000 		.4byte	.LLST15
 4409 030c 11       		.uleb128 0x11
 4410 030d B7040000 		.4byte	.LASF54
 4411 0311 01       		.byte	0x1
 4412 0312 2301     		.2byte	0x123
 4413 0314 A2000000 		.4byte	0xa2
 4414 0318 A1020000 		.4byte	.LLST16
 4415 031c 12       		.uleb128 0x12
 4416 031d 70747200 		.ascii	"ptr\000"
 4417 0321 01       		.byte	0x1
ARM GAS  C:\Users\boise\AppData\Local\Temp\ccDu5XGS.s 			page 92


 4418 0322 2501     		.2byte	0x125
 4419 0324 2E030000 		.4byte	0x32e
 4420 0328 B4020000 		.4byte	.LLST17
 4421 032c 00       		.byte	0
 4422 032d 00       		.byte	0
 4423 032e 06       		.uleb128 0x6
 4424 032f 04       		.byte	0x4
 4425 0330 A2000000 		.4byte	0xa2
 4426 0334 13       		.uleb128 0x13
 4427 0335 A4010000 		.4byte	.LASF55
 4428 0339 01       		.byte	0x1
 4429 033a 9D01     		.2byte	0x19d
 4430 033c 00000000 		.4byte	.LFB52
 4431 0340 64000000 		.4byte	.LFE52-.LFB52
 4432 0344 01       		.uleb128 0x1
 4433 0345 9C       		.byte	0x9c
 4434 0346 74030000 		.4byte	0x374
 4435 034a 14       		.uleb128 0x14
 4436 034b 707800   		.ascii	"px\000"
 4437 034e 01       		.byte	0x1
 4438 034f 9D01     		.2byte	0x19d
 4439 0351 74030000 		.4byte	0x374
 4440 0355 01       		.uleb128 0x1
 4441 0356 50       		.byte	0x50
 4442 0357 14       		.uleb128 0x14
 4443 0358 707900   		.ascii	"py\000"
 4444 035b 01       		.byte	0x1
 4445 035c 9D01     		.2byte	0x19d
 4446 035e 74030000 		.4byte	0x374
 4447 0362 01       		.uleb128 0x1
 4448 0363 51       		.byte	0x51
 4449 0364 12       		.uleb128 0x12
 4450 0365 793000   		.ascii	"y0\000"
 4451 0368 01       		.byte	0x1
 4452 0369 9F01     		.2byte	0x19f
 4453 036b AD000000 		.4byte	0xad
 4454 036f C7020000 		.4byte	.LLST18
 4455 0373 00       		.byte	0
 4456 0374 06       		.uleb128 0x6
 4457 0375 04       		.byte	0x4
 4458 0376 AD000000 		.4byte	0xad
 4459 037a 13       		.uleb128 0x13
 4460 037b 6B000000 		.4byte	.LASF56
 4461 037f 01       		.byte	0x1
 4462 0380 BC01     		.2byte	0x1bc
 4463 0382 00000000 		.4byte	.LFB54
 4464 0386 44010000 		.4byte	.LFE54-.LFB54
 4465 038a 01       		.uleb128 0x1
 4466 038b 9C       		.byte	0x9c
 4467 038c 3E040000 		.4byte	0x43e
 4468 0390 15       		.uleb128 0x15
 4469 0391 783100   		.ascii	"x1\000"
 4470 0394 01       		.byte	0x1
 4471 0395 BC01     		.2byte	0x1bc
 4472 0397 AD000000 		.4byte	0xad
 4473 039b FC020000 		.4byte	.LLST19
 4474 039f 15       		.uleb128 0x15
ARM GAS  C:\Users\boise\AppData\Local\Temp\ccDu5XGS.s 			page 93


 4475 03a0 793100   		.ascii	"y1\000"
 4476 03a3 01       		.byte	0x1
 4477 03a4 BC01     		.2byte	0x1bc
 4478 03a6 AD000000 		.4byte	0xad
 4479 03aa 57030000 		.4byte	.LLST20
 4480 03ae 15       		.uleb128 0x15
 4481 03af 783200   		.ascii	"x2\000"
 4482 03b2 01       		.byte	0x1
 4483 03b3 BC01     		.2byte	0x1bc
 4484 03b5 AD000000 		.4byte	0xad
 4485 03b9 2A040000 		.4byte	.LLST21
 4486 03bd 15       		.uleb128 0x15
 4487 03be 793200   		.ascii	"y2\000"
 4488 03c1 01       		.byte	0x1
 4489 03c2 BC01     		.2byte	0x1bc
 4490 03c4 AD000000 		.4byte	0xad
 4491 03c8 BA040000 		.4byte	.LLST22
 4492 03cc 16       		.uleb128 0x16
 4493 03cd ED040000 		.4byte	.LASF46
 4494 03d1 01       		.byte	0x1
 4495 03d2 BC01     		.2byte	0x1bc
 4496 03d4 B8000000 		.4byte	0xb8
 4497 03d8 A5050000 		.4byte	.LLST23
 4498 03dc 0D       		.uleb128 0xd
 4499 03dd F8000000 		.4byte	.LBB6
 4500 03e1 1A000000 		.4byte	.LBE6-.LBB6
 4501 03e5 F8030000 		.4byte	0x3f8
 4502 03e9 12       		.uleb128 0x12
 4503 03ea 7400     		.ascii	"t\000"
 4504 03ec 01       		.byte	0x1
 4505 03ed D601     		.2byte	0x1d6
 4506 03ef AD000000 		.4byte	0xad
 4507 03f3 D1050000 		.4byte	.LLST24
 4508 03f7 00       		.byte	0
 4509 03f8 17       		.uleb128 0x17
 4510 03f9 BC000000 		.4byte	.LVL69
 4511 03fd 34030000 		.4byte	0x334
 4512 0401 12040000 		.4byte	0x412
 4513 0405 18       		.uleb128 0x18
 4514 0406 01       		.uleb128 0x1
 4515 0407 50       		.byte	0x50
 4516 0408 02       		.uleb128 0x2
 4517 0409 76       		.byte	0x76
 4518 040a 00       		.sleb128 0
 4519 040b 18       		.uleb128 0x18
 4520 040c 01       		.uleb128 0x1
 4521 040d 51       		.byte	0x51
 4522 040e 02       		.uleb128 0x2
 4523 040f 91       		.byte	0x91
 4524 0410 6C       		.sleb128 -20
 4525 0411 00       		.byte	0
 4526 0412 17       		.uleb128 0x17
 4527 0413 C8000000 		.4byte	.LVL73
 4528 0417 34030000 		.4byte	0x334
 4529 041b 2C040000 		.4byte	0x42c
 4530 041f 18       		.uleb128 0x18
 4531 0420 01       		.uleb128 0x1
ARM GAS  C:\Users\boise\AppData\Local\Temp\ccDu5XGS.s 			page 94


 4532 0421 50       		.byte	0x50
 4533 0422 02       		.uleb128 0x2
 4534 0423 75       		.byte	0x75
 4535 0424 00       		.sleb128 0
 4536 0425 18       		.uleb128 0x18
 4537 0426 01       		.uleb128 0x1
 4538 0427 51       		.byte	0x51
 4539 0428 02       		.uleb128 0x2
 4540 0429 91       		.byte	0x91
 4541 042a 68       		.sleb128 -24
 4542 042b 00       		.byte	0
 4543 042c 19       		.uleb128 0x19
 4544 042d 34010000 		.4byte	.LVL99
 4545 0431 08020000 		.4byte	0x208
 4546 0435 18       		.uleb128 0x18
 4547 0436 02       		.uleb128 0x2
 4548 0437 7D       		.byte	0x7d
 4549 0438 00       		.sleb128 0
 4550 0439 02       		.uleb128 0x2
 4551 043a 74       		.byte	0x74
 4552 043b 00       		.sleb128 0
 4553 043c 00       		.byte	0
 4554 043d 00       		.byte	0
 4555 043e 1A       		.uleb128 0x1a
 4556 043f F8030000 		.4byte	.LASF125
 4557 0443 01       		.byte	0x1
 4558 0444 9E       		.byte	0x9e
 4559 0445 DB000000 		.4byte	0xdb
 4560 0449 00000000 		.4byte	.LFB33
 4561 044d 44000000 		.4byte	.LFE33-.LFB33
 4562 0451 01       		.uleb128 0x1
 4563 0452 9C       		.byte	0x9c
 4564 0453 C8040000 		.4byte	0x4c8
 4565 0457 0B       		.uleb128 0xb
 4566 0458 62756600 		.ascii	"buf\000"
 4567 045c 01       		.byte	0x1
 4568 045d 9E       		.byte	0x9e
 4569 045e C8040000 		.4byte	0x4c8
 4570 0462 EF050000 		.4byte	.LLST25
 4571 0466 0C       		.uleb128 0xc
 4572 0467 23010000 		.4byte	.LASF57
 4573 046b 01       		.byte	0x1
 4574 046c 9E       		.byte	0x9e
 4575 046d B8000000 		.4byte	0xb8
 4576 0471 1B060000 		.4byte	.LLST26
 4577 0475 0E       		.uleb128 0xe
 4578 0476 67030000 		.4byte	.LASF58
 4579 047a 01       		.byte	0x1
 4580 047b A0       		.byte	0xa0
 4581 047c DB000000 		.4byte	0xdb
 4582 0480 3C060000 		.4byte	.LLST27
 4583 0484 17       		.uleb128 0x17
 4584 0485 14000000 		.4byte	.LVL104
 4585 0489 4B130000 		.4byte	0x134b
 4586 048d A3040000 		.4byte	0x4a3
 4587 0491 18       		.uleb128 0x18
 4588 0492 01       		.uleb128 0x1
ARM GAS  C:\Users\boise\AppData\Local\Temp\ccDu5XGS.s 			page 95


 4589 0493 51       		.byte	0x51
 4590 0494 02       		.uleb128 0x2
 4591 0495 75       		.byte	0x75
 4592 0496 00       		.sleb128 0
 4593 0497 18       		.uleb128 0x18
 4594 0498 01       		.uleb128 0x1
 4595 0499 52       		.byte	0x52
 4596 049a 02       		.uleb128 0x2
 4597 049b 74       		.byte	0x74
 4598 049c 00       		.sleb128 0
 4599 049d 18       		.uleb128 0x18
 4600 049e 01       		.uleb128 0x1
 4601 049f 53       		.byte	0x53
 4602 04a0 01       		.uleb128 0x1
 4603 04a1 30       		.byte	0x30
 4604 04a2 00       		.byte	0
 4605 04a3 1B       		.uleb128 0x1b
 4606 04a4 18000000 		.4byte	.LVL105
 4607 04a8 57130000 		.4byte	0x1357
 4608 04ac 1B       		.uleb128 0x1b
 4609 04ad 20000000 		.4byte	.LVL106
 4610 04b1 57130000 		.4byte	0x1357
 4611 04b5 1B       		.uleb128 0x1b
 4612 04b6 28000000 		.4byte	.LVL107
 4613 04ba 63130000 		.4byte	0x1363
 4614 04be 1B       		.uleb128 0x1b
 4615 04bf 3A000000 		.4byte	.LVL109
 4616 04c3 6F130000 		.4byte	0x136f
 4617 04c7 00       		.byte	0
 4618 04c8 06       		.uleb128 0x6
 4619 04c9 04       		.byte	0x4
 4620 04ca C3000000 		.4byte	0xc3
 4621 04ce 1C       		.uleb128 0x1c
 4622 04cf 5B050000 		.4byte	.LASF59
 4623 04d3 01       		.byte	0x1
 4624 04d4 C5       		.byte	0xc5
 4625 04d5 00000000 		.4byte	.LFB35
 4626 04d9 1C000000 		.4byte	.LFE35-.LFB35
 4627 04dd 01       		.uleb128 0x1
 4628 04de 9C       		.byte	0x9c
 4629 04df 00050000 		.4byte	0x500
 4630 04e3 19       		.uleb128 0x19
 4631 04e4 10000000 		.4byte	.LVL112
 4632 04e8 7B130000 		.4byte	0x137b
 4633 04ec 18       		.uleb128 0x18
 4634 04ed 01       		.uleb128 0x1
 4635 04ee 50       		.byte	0x50
 4636 04ef 02       		.uleb128 0x2
 4637 04f0 74       		.byte	0x74
 4638 04f1 01       		.sleb128 1
 4639 04f2 18       		.uleb128 0x18
 4640 04f3 01       		.uleb128 0x1
 4641 04f4 51       		.byte	0x51
 4642 04f5 01       		.uleb128 0x1
 4643 04f6 30       		.byte	0x30
 4644 04f7 18       		.uleb128 0x18
 4645 04f8 01       		.uleb128 0x1
ARM GAS  C:\Users\boise\AppData\Local\Temp\ccDu5XGS.s 			page 96


 4646 04f9 52       		.byte	0x52
 4647 04fa 03       		.uleb128 0x3
 4648 04fb 0A       		.byte	0xa
 4649 04fc 0004     		.2byte	0x400
 4650 04fe 00       		.byte	0
 4651 04ff 00       		.byte	0
 4652 0500 1C       		.uleb128 0x1c
 4653 0501 08060000 		.4byte	.LASF60
 4654 0505 01       		.byte	0x1
 4655 0506 CC       		.byte	0xcc
 4656 0507 00000000 		.4byte	.LFB36
 4657 050b 1C000000 		.4byte	.LFE36-.LFB36
 4658 050f 01       		.uleb128 0x1
 4659 0510 9C       		.byte	0x9c
 4660 0511 48050000 		.4byte	0x548
 4661 0515 0C       		.uleb128 0xc
 4662 0516 96030000 		.4byte	.LASF61
 4663 051a 01       		.byte	0x1
 4664 051b CC       		.byte	0xcc
 4665 051c A2000000 		.4byte	0xa2
 4666 0520 67060000 		.4byte	.LLST28
 4667 0524 1D       		.uleb128 0x1d
 4668 0525 36050000 		.4byte	.LASF62
 4669 0529 01       		.byte	0x1
 4670 052a CE       		.byte	0xce
 4671 052b 48050000 		.4byte	0x548
 4672 052f 02       		.uleb128 0x2
 4673 0530 91       		.byte	0x91
 4674 0531 74       		.sleb128 -12
 4675 0532 19       		.uleb128 0x19
 4676 0533 18000000 		.4byte	.LVL115
 4677 0537 3E040000 		.4byte	0x43e
 4678 053b 18       		.uleb128 0x18
 4679 053c 01       		.uleb128 0x1
 4680 053d 50       		.byte	0x50
 4681 053e 02       		.uleb128 0x2
 4682 053f 91       		.byte	0x91
 4683 0540 74       		.sleb128 -12
 4684 0541 18       		.uleb128 0x18
 4685 0542 01       		.uleb128 0x1
 4686 0543 51       		.byte	0x51
 4687 0544 01       		.uleb128 0x1
 4688 0545 33       		.byte	0x33
 4689 0546 00       		.byte	0
 4690 0547 00       		.byte	0
 4691 0548 1E       		.uleb128 0x1e
 4692 0549 C3000000 		.4byte	0xc3
 4693 054d 58050000 		.4byte	0x558
 4694 0551 1F       		.uleb128 0x1f
 4695 0552 03010000 		.4byte	0x103
 4696 0556 02       		.byte	0x2
 4697 0557 00       		.byte	0
 4698 0558 1C       		.uleb128 0x1c
 4699 0559 DE040000 		.4byte	.LASF63
 4700 055d 01       		.byte	0x1
 4701 055e D8       		.byte	0xd8
 4702 055f 00000000 		.4byte	.LFB37
ARM GAS  C:\Users\boise\AppData\Local\Temp\ccDu5XGS.s 			page 97


 4703 0563 22000000 		.4byte	.LFE37-.LFB37
 4704 0567 01       		.uleb128 0x1
 4705 0568 9C       		.byte	0x9c
 4706 0569 A0050000 		.4byte	0x5a0
 4707 056d 0C       		.uleb128 0xc
 4708 056e 58030000 		.4byte	.LASF64
 4709 0572 01       		.byte	0x1
 4710 0573 D8       		.byte	0xd8
 4711 0574 A2000000 		.4byte	0xa2
 4712 0578 94060000 		.4byte	.LLST29
 4713 057c 1D       		.uleb128 0x1d
 4714 057d 36050000 		.4byte	.LASF62
 4715 0581 01       		.byte	0x1
 4716 0582 DA       		.byte	0xda
 4717 0583 A0050000 		.4byte	0x5a0
 4718 0587 02       		.uleb128 0x2
 4719 0588 91       		.byte	0x91
 4720 0589 74       		.sleb128 -12
 4721 058a 19       		.uleb128 0x19
 4722 058b 1E000000 		.4byte	.LVL118
 4723 058f 3E040000 		.4byte	0x43e
 4724 0593 18       		.uleb128 0x18
 4725 0594 01       		.uleb128 0x1
 4726 0595 50       		.byte	0x50
 4727 0596 02       		.uleb128 0x2
 4728 0597 91       		.byte	0x91
 4729 0598 74       		.sleb128 -12
 4730 0599 18       		.uleb128 0x18
 4731 059a 01       		.uleb128 0x1
 4732 059b 51       		.byte	0x51
 4733 059c 01       		.uleb128 0x1
 4734 059d 32       		.byte	0x32
 4735 059e 00       		.byte	0
 4736 059f 00       		.byte	0
 4737 05a0 1E       		.uleb128 0x1e
 4738 05a1 C3000000 		.4byte	0xc3
 4739 05a5 B0050000 		.4byte	0x5b0
 4740 05a9 1F       		.uleb128 0x1f
 4741 05aa 03010000 		.4byte	0x103
 4742 05ae 01       		.byte	0x1
 4743 05af 00       		.byte	0
 4744 05b0 1C       		.uleb128 0x1c
 4745 05b1 3D030000 		.4byte	.LASF65
 4746 05b5 01       		.byte	0x1
 4747 05b6 E3       		.byte	0xe3
 4748 05b7 00000000 		.4byte	.LFB38
 4749 05bb 30000000 		.4byte	.LFE38-.LFB38
 4750 05bf 01       		.uleb128 0x1
 4751 05c0 9C       		.byte	0x9c
 4752 05c1 29060000 		.4byte	0x629
 4753 05c5 1D       		.uleb128 0x1d
 4754 05c6 36050000 		.4byte	.LASF62
 4755 05ca 01       		.byte	0x1
 4756 05cb E5       		.byte	0xe5
 4757 05cc 29060000 		.4byte	0x629
 4758 05d0 02       		.uleb128 0x2
 4759 05d1 91       		.byte	0x91
ARM GAS  C:\Users\boise\AppData\Local\Temp\ccDu5XGS.s 			page 98


 4760 05d2 70       		.sleb128 -16
 4761 05d3 17       		.uleb128 0x17
 4762 05d4 0E000000 		.4byte	.LVL119
 4763 05d8 84130000 		.4byte	0x1384
 4764 05dc F5050000 		.4byte	0x5f5
 4765 05e0 18       		.uleb128 0x18
 4766 05e1 01       		.uleb128 0x1
 4767 05e2 50       		.byte	0x50
 4768 05e3 02       		.uleb128 0x2
 4769 05e4 7D       		.byte	0x7d
 4770 05e5 00       		.sleb128 0
 4771 05e6 18       		.uleb128 0x18
 4772 05e7 01       		.uleb128 0x1
 4773 05e8 51       		.byte	0x51
 4774 05e9 05       		.uleb128 0x5
 4775 05ea 03       		.byte	0x3
 4776 05eb 00000000 		.4byte	.LANCHOR2
 4777 05ef 18       		.uleb128 0x18
 4778 05f0 01       		.uleb128 0x1
 4779 05f1 52       		.byte	0x52
 4780 05f2 01       		.uleb128 0x1
 4781 05f3 37       		.byte	0x37
 4782 05f4 00       		.byte	0
 4783 05f5 17       		.uleb128 0x17
 4784 05f6 16000000 		.4byte	.LVL120
 4785 05fa 3E040000 		.4byte	0x43e
 4786 05fe 0E060000 		.4byte	0x60e
 4787 0602 18       		.uleb128 0x18
 4788 0603 01       		.uleb128 0x1
 4789 0604 50       		.byte	0x50
 4790 0605 02       		.uleb128 0x2
 4791 0606 7D       		.byte	0x7d
 4792 0607 00       		.sleb128 0
 4793 0608 18       		.uleb128 0x18
 4794 0609 01       		.uleb128 0x1
 4795 060a 51       		.byte	0x51
 4796 060b 01       		.uleb128 0x1
 4797 060c 37       		.byte	0x37
 4798 060d 00       		.byte	0
 4799 060e 19       		.uleb128 0x19
 4800 060f 1E000000 		.4byte	.LVL121
 4801 0613 3E040000 		.4byte	0x43e
 4802 0617 18       		.uleb128 0x18
 4803 0618 01       		.uleb128 0x1
 4804 0619 50       		.byte	0x50
 4805 061a 05       		.uleb128 0x5
 4806 061b 03       		.byte	0x3
 4807 061c 00000000 		.4byte	.LANCHOR0
 4808 0620 18       		.uleb128 0x18
 4809 0621 01       		.uleb128 0x1
 4810 0622 51       		.byte	0x51
 4811 0623 03       		.uleb128 0x3
 4812 0624 0A       		.byte	0xa
 4813 0625 0104     		.2byte	0x401
 4814 0627 00       		.byte	0
 4815 0628 00       		.byte	0
 4816 0629 1E       		.uleb128 0x1e
ARM GAS  C:\Users\boise\AppData\Local\Temp\ccDu5XGS.s 			page 99


 4817 062a C3000000 		.4byte	0xc3
 4818 062e 39060000 		.4byte	0x639
 4819 0632 1F       		.uleb128 0x1f
 4820 0633 03010000 		.4byte	0x103
 4821 0637 06       		.byte	0x6
 4822 0638 00       		.byte	0
 4823 0639 20       		.uleb128 0x20
 4824 063a 4B060000 		.4byte	.LASF66
 4825 063e 01       		.byte	0x1
 4826 063f 3301     		.2byte	0x133
 4827 0641 00000000 		.4byte	.LFB40
 4828 0645 18000000 		.4byte	.LFE40-.LFB40
 4829 0649 01       		.uleb128 0x1
 4830 064a 9C       		.byte	0x9c
 4831 064b 74060000 		.4byte	0x674
 4832 064f 21       		.uleb128 0x21
 4833 0650 36050000 		.4byte	.LASF62
 4834 0654 01       		.byte	0x1
 4835 0655 3501     		.2byte	0x135
 4836 0657 A0050000 		.4byte	0x5a0
 4837 065b 02       		.uleb128 0x2
 4838 065c 91       		.byte	0x91
 4839 065d 74       		.sleb128 -12
 4840 065e 19       		.uleb128 0x19
 4841 065f 14000000 		.4byte	.LVL122
 4842 0663 3E040000 		.4byte	0x43e
 4843 0667 18       		.uleb128 0x18
 4844 0668 01       		.uleb128 0x1
 4845 0669 50       		.byte	0x50
 4846 066a 02       		.uleb128 0x2
 4847 066b 91       		.byte	0x91
 4848 066c 74       		.sleb128 -12
 4849 066d 18       		.uleb128 0x18
 4850 066e 01       		.uleb128 0x1
 4851 066f 51       		.byte	0x51
 4852 0670 01       		.uleb128 0x1
 4853 0671 32       		.byte	0x32
 4854 0672 00       		.byte	0
 4855 0673 00       		.byte	0
 4856 0674 20       		.uleb128 0x20
 4857 0675 ED050000 		.4byte	.LASF67
 4858 0679 01       		.byte	0x1
 4859 067a 3C01     		.2byte	0x13c
 4860 067c 00000000 		.4byte	.LFB41
 4861 0680 2A000000 		.4byte	.LFE41-.LFB41
 4862 0684 01       		.uleb128 0x1
 4863 0685 9C       		.byte	0x9c
 4864 0686 EF060000 		.4byte	0x6ef
 4865 068a 16       		.uleb128 0x16
 4866 068b 12050000 		.4byte	.LASF68
 4867 068f 01       		.byte	0x1
 4868 0690 3C01     		.2byte	0x13c
 4869 0692 BE010000 		.4byte	0x1be
 4870 0696 B5060000 		.4byte	.LLST30
 4871 069a 15       		.uleb128 0x15
 4872 069b 656E6400 		.ascii	"end\000"
 4873 069f 01       		.byte	0x1
ARM GAS  C:\Users\boise\AppData\Local\Temp\ccDu5XGS.s 			page 100


 4874 06a0 3C01     		.2byte	0x13c
 4875 06a2 BE010000 		.4byte	0x1be
 4876 06a6 E2060000 		.4byte	.LLST31
 4877 06aa 15       		.uleb128 0x15
 4878 06ab 64697200 		.ascii	"dir\000"
 4879 06af 01       		.byte	0x1
 4880 06b0 3C01     		.2byte	0x13c
 4881 06b2 2E010000 		.4byte	0x12e
 4882 06b6 0F070000 		.4byte	.LLST32
 4883 06ba 16       		.uleb128 0x16
 4884 06bb 8A000000 		.4byte	.LASF69
 4885 06bf 01       		.byte	0x1
 4886 06c0 3C01     		.2byte	0x13c
 4887 06c2 76010000 		.4byte	0x176
 4888 06c6 30070000 		.4byte	.LLST33
 4889 06ca 21       		.uleb128 0x21
 4890 06cb 36050000 		.4byte	.LASF62
 4891 06cf 01       		.byte	0x1
 4892 06d0 3E01     		.2byte	0x13e
 4893 06d2 EF060000 		.4byte	0x6ef
 4894 06d6 02       		.uleb128 0x2
 4895 06d7 91       		.byte	0x91
 4896 06d8 64       		.sleb128 -28
 4897 06d9 19       		.uleb128 0x19
 4898 06da 26000000 		.4byte	.LVL127
 4899 06de 3E040000 		.4byte	0x43e
 4900 06e2 18       		.uleb128 0x18
 4901 06e3 01       		.uleb128 0x1
 4902 06e4 50       		.byte	0x50
 4903 06e5 02       		.uleb128 0x2
 4904 06e6 74       		.byte	0x74
 4905 06e7 00       		.sleb128 0
 4906 06e8 18       		.uleb128 0x18
 4907 06e9 01       		.uleb128 0x1
 4908 06ea 51       		.byte	0x51
 4909 06eb 01       		.uleb128 0x1
 4910 06ec 39       		.byte	0x39
 4911 06ed 00       		.byte	0
 4912 06ee 00       		.byte	0
 4913 06ef 1E       		.uleb128 0x1e
 4914 06f0 C3000000 		.4byte	0xc3
 4915 06f4 FF060000 		.4byte	0x6ff
 4916 06f8 1F       		.uleb128 0x1f
 4917 06f9 03010000 		.4byte	0x103
 4918 06fd 08       		.byte	0x8
 4919 06fe 00       		.byte	0
 4920 06ff 20       		.uleb128 0x20
 4921 0700 15000000 		.4byte	.LASF70
 4922 0704 01       		.byte	0x1
 4923 0705 5B01     		.2byte	0x15b
 4924 0707 00000000 		.4byte	.LFB42
 4925 070b 40000000 		.4byte	.LFE42-.LFB42
 4926 070f 01       		.uleb128 0x1
 4927 0710 9C       		.byte	0x9c
 4928 0711 34070000 		.4byte	0x734
 4929 0715 22       		.uleb128 0x22
 4930 0716 5B020000 		.4byte	.LASF71
ARM GAS  C:\Users\boise\AppData\Local\Temp\ccDu5XGS.s 			page 101


 4931 071a 01       		.byte	0x1
 4932 071b 5B01     		.2byte	0x15b
 4933 071d AD000000 		.4byte	0xad
 4934 0721 01       		.uleb128 0x1
 4935 0722 50       		.byte	0x50
 4936 0723 16       		.uleb128 0x16
 4937 0724 2E040000 		.4byte	.LASF72
 4938 0728 01       		.byte	0x1
 4939 0729 5B01     		.2byte	0x15b
 4940 072b AD000000 		.4byte	0xad
 4941 072f 5D070000 		.4byte	.LLST34
 4942 0733 00       		.byte	0
 4943 0734 1C       		.uleb128 0x1c
 4944 0735 90000000 		.4byte	.LASF73
 4945 0739 01       		.byte	0x1
 4946 073a 74       		.byte	0x74
 4947 073b 00000000 		.4byte	.LFB32
 4948 073f 30000000 		.4byte	.LFE32-.LFB32
 4949 0743 01       		.uleb128 0x1
 4950 0744 9C       		.byte	0x9c
 4951 0745 B8070000 		.4byte	0x7b8
 4952 0749 0C       		.uleb128 0xc
 4953 074a 46000000 		.4byte	.LASF74
 4954 074e 01       		.byte	0x1
 4955 074f 74       		.byte	0x74
 4956 0750 C3000000 		.4byte	0xc3
 4957 0754 7F070000 		.4byte	.LLST35
 4958 0758 1D       		.uleb128 0x1d
 4959 0759 36050000 		.4byte	.LASF62
 4960 075d 01       		.byte	0x1
 4961 075e 79       		.byte	0x79
 4962 075f B8070000 		.4byte	0x7b8
 4963 0763 02       		.uleb128 0x2
 4964 0764 91       		.byte	0x91
 4965 0765 5C       		.sleb128 -36
 4966 0766 17       		.uleb128 0x17
 4967 0767 10000000 		.4byte	.LVL132
 4968 076b FF060000 		.4byte	0x6ff
 4969 076f 80070000 		.4byte	0x780
 4970 0773 18       		.uleb128 0x18
 4971 0774 01       		.uleb128 0x1
 4972 0775 50       		.byte	0x50
 4973 0776 02       		.uleb128 0x2
 4974 0777 08       		.byte	0x8
 4975 0778 80       		.byte	0x80
 4976 0779 18       		.uleb128 0x18
 4977 077a 01       		.uleb128 0x1
 4978 077b 51       		.byte	0x51
 4979 077c 02       		.uleb128 0x2
 4980 077d 08       		.byte	0x8
 4981 077e 40       		.byte	0x40
 4982 077f 00       		.byte	0
 4983 0780 17       		.uleb128 0x17
 4984 0781 1C000000 		.4byte	.LVL133
 4985 0785 84130000 		.4byte	0x1384
 4986 0789 A2070000 		.4byte	0x7a2
 4987 078d 18       		.uleb128 0x18
ARM GAS  C:\Users\boise\AppData\Local\Temp\ccDu5XGS.s 			page 102


 4988 078e 01       		.uleb128 0x1
 4989 078f 50       		.byte	0x50
 4990 0790 02       		.uleb128 0x2
 4991 0791 91       		.byte	0x91
 4992 0792 5C       		.sleb128 -36
 4993 0793 18       		.uleb128 0x18
 4994 0794 01       		.uleb128 0x1
 4995 0795 51       		.byte	0x51
 4996 0796 05       		.uleb128 0x5
 4997 0797 03       		.byte	0x3
 4998 0798 08000000 		.4byte	.LANCHOR2+8
 4999 079c 18       		.uleb128 0x18
 5000 079d 01       		.uleb128 0x1
 5001 079e 52       		.byte	0x52
 5002 079f 01       		.uleb128 0x1
 5003 07a0 4A       		.byte	0x4a
 5004 07a1 00       		.byte	0
 5005 07a2 19       		.uleb128 0x19
 5006 07a3 24000000 		.4byte	.LVL134
 5007 07a7 3E040000 		.4byte	0x43e
 5008 07ab 18       		.uleb128 0x18
 5009 07ac 01       		.uleb128 0x1
 5010 07ad 50       		.byte	0x50
 5011 07ae 02       		.uleb128 0x2
 5012 07af 91       		.byte	0x91
 5013 07b0 5C       		.sleb128 -36
 5014 07b1 18       		.uleb128 0x18
 5015 07b2 01       		.uleb128 0x1
 5016 07b3 51       		.byte	0x51
 5017 07b4 01       		.uleb128 0x1
 5018 07b5 4A       		.byte	0x4a
 5019 07b6 00       		.byte	0
 5020 07b7 00       		.byte	0
 5021 07b8 1E       		.uleb128 0x1e
 5022 07b9 C3000000 		.4byte	0xc3
 5023 07bd C8070000 		.4byte	0x7c8
 5024 07c1 1F       		.uleb128 0x1f
 5025 07c2 03010000 		.4byte	0x103
 5026 07c6 19       		.byte	0x19
 5027 07c7 00       		.byte	0
 5028 07c8 23       		.uleb128 0x23
 5029 07c9 B8030000 		.4byte	.LASF75
 5030 07cd 01       		.byte	0x1
 5031 07ce 6901     		.2byte	0x169
 5032 07d0 AD000000 		.4byte	0xad
 5033 07d4 00000000 		.4byte	.LFB43
 5034 07d8 0C000000 		.4byte	.LFE43-.LFB43
 5035 07dc 01       		.uleb128 0x1
 5036 07dd 9C       		.byte	0x9c
 5037 07de 23       		.uleb128 0x23
 5038 07df 6F040000 		.4byte	.LASF76
 5039 07e3 01       		.byte	0x1
 5040 07e4 6D01     		.2byte	0x16d
 5041 07e6 AD000000 		.4byte	0xad
 5042 07ea 00000000 		.4byte	.LFB44
 5043 07ee 0C000000 		.4byte	.LFE44-.LFB44
 5044 07f2 01       		.uleb128 0x1
ARM GAS  C:\Users\boise\AppData\Local\Temp\ccDu5XGS.s 			page 103


 5045 07f3 9C       		.byte	0x9c
 5046 07f4 23       		.uleb128 0x23
 5047 07f5 1E000000 		.4byte	.LASF77
 5048 07f9 01       		.byte	0x1
 5049 07fa 7101     		.2byte	0x171
 5050 07fc A2000000 		.4byte	0xa2
 5051 0800 00000000 		.4byte	.LFB45
 5052 0804 0C000000 		.4byte	.LFE45-.LFB45
 5053 0808 01       		.uleb128 0x1
 5054 0809 9C       		.byte	0x9c
 5055 080a 20       		.uleb128 0x20
 5056 080b 81060000 		.4byte	.LASF78
 5057 080f 01       		.byte	0x1
 5058 0810 7501     		.2byte	0x175
 5059 0812 00000000 		.4byte	.LFB46
 5060 0816 0C000000 		.4byte	.LFE46-.LFB46
 5061 081a 01       		.uleb128 0x1
 5062 081b 9C       		.byte	0x9c
 5063 081c 39080000 		.4byte	0x839
 5064 0820 14       		.uleb128 0x14
 5065 0821 7800     		.ascii	"x\000"
 5066 0823 01       		.byte	0x1
 5067 0824 7501     		.2byte	0x175
 5068 0826 AD000000 		.4byte	0xad
 5069 082a 01       		.uleb128 0x1
 5070 082b 50       		.byte	0x50
 5071 082c 14       		.uleb128 0x14
 5072 082d 7900     		.ascii	"y\000"
 5073 082f 01       		.byte	0x1
 5074 0830 7501     		.2byte	0x175
 5075 0832 AD000000 		.4byte	0xad
 5076 0836 01       		.uleb128 0x1
 5077 0837 51       		.byte	0x51
 5078 0838 00       		.byte	0
 5079 0839 20       		.uleb128 0x20
 5080 083a F3040000 		.4byte	.LASF79
 5081 083e 01       		.byte	0x1
 5082 083f 7A01     		.2byte	0x17a
 5083 0841 00000000 		.4byte	.LFB47
 5084 0845 10000000 		.4byte	.LFE47-.LFB47
 5085 0849 01       		.uleb128 0x1
 5086 084a 9C       		.byte	0x9c
 5087 084b 60080000 		.4byte	0x860
 5088 084f 16       		.uleb128 0x16
 5089 0850 23010000 		.4byte	.LASF57
 5090 0854 01       		.byte	0x1
 5091 0855 7A01     		.2byte	0x17a
 5092 0857 A2000000 		.4byte	0xa2
 5093 085b AF070000 		.4byte	.LLST36
 5094 085f 00       		.byte	0
 5095 0860 20       		.uleb128 0x20
 5096 0861 35040000 		.4byte	.LASF80
 5097 0865 01       		.byte	0x1
 5098 0866 7E01     		.2byte	0x17e
 5099 0868 00000000 		.4byte	.LFB48
 5100 086c 0C000000 		.4byte	.LFE48-.LFB48
 5101 0870 01       		.uleb128 0x1
ARM GAS  C:\Users\boise\AppData\Local\Temp\ccDu5XGS.s 			page 104


 5102 0871 9C       		.byte	0x9c
 5103 0872 85080000 		.4byte	0x885
 5104 0876 22       		.uleb128 0x22
 5105 0877 ED040000 		.4byte	.LASF46
 5106 087b 01       		.byte	0x1
 5107 087c 7E01     		.2byte	0x17e
 5108 087e B8000000 		.4byte	0xb8
 5109 0882 01       		.uleb128 0x1
 5110 0883 50       		.byte	0x50
 5111 0884 00       		.byte	0
 5112 0885 20       		.uleb128 0x20
 5113 0886 38000000 		.4byte	.LASF81
 5114 088a 01       		.byte	0x1
 5115 088b 8401     		.2byte	0x184
 5116 088d 00000000 		.4byte	.LFB49
 5117 0891 0C000000 		.4byte	.LFE49-.LFB49
 5118 0895 01       		.uleb128 0x1
 5119 0896 9C       		.byte	0x9c
 5120 0897 AA080000 		.4byte	0x8aa
 5121 089b 22       		.uleb128 0x22
 5122 089c ED040000 		.4byte	.LASF46
 5123 08a0 01       		.byte	0x1
 5124 08a1 8401     		.2byte	0x184
 5125 08a3 B8000000 		.4byte	0xb8
 5126 08a7 01       		.uleb128 0x1
 5127 08a8 50       		.byte	0x50
 5128 08a9 00       		.byte	0
 5129 08aa 20       		.uleb128 0x20
 5130 08ab 8F060000 		.4byte	.LASF82
 5131 08af 01       		.byte	0x1
 5132 08b0 8801     		.2byte	0x188
 5133 08b2 00000000 		.4byte	.LFB50
 5134 08b6 0C000000 		.4byte	.LFE50-.LFB50
 5135 08ba 01       		.uleb128 0x1
 5136 08bb 9C       		.byte	0x9c
 5137 08bc CD080000 		.4byte	0x8cd
 5138 08c0 14       		.uleb128 0x14
 5139 08c1 7700     		.ascii	"w\000"
 5140 08c3 01       		.byte	0x1
 5141 08c4 8801     		.2byte	0x188
 5142 08c6 C3000000 		.4byte	0xc3
 5143 08ca 01       		.uleb128 0x1
 5144 08cb 50       		.byte	0x50
 5145 08cc 00       		.byte	0
 5146 08cd 20       		.uleb128 0x20
 5147 08ce 4E000000 		.4byte	.LASF83
 5148 08d2 01       		.byte	0x1
 5149 08d3 8C01     		.2byte	0x18c
 5150 08d5 00000000 		.4byte	.LFB51
 5151 08d9 4C000000 		.4byte	.LFE51-.LFB51
 5152 08dd 01       		.uleb128 0x1
 5153 08de 9C       		.byte	0x9c
 5154 08df F2080000 		.4byte	0x8f2
 5155 08e3 15       		.uleb128 0x15
 5156 08e4 7800     		.ascii	"x\000"
 5157 08e6 01       		.byte	0x1
 5158 08e7 8C01     		.2byte	0x18c
ARM GAS  C:\Users\boise\AppData\Local\Temp\ccDu5XGS.s 			page 105


 5159 08e9 A2000000 		.4byte	0xa2
 5160 08ed D0070000 		.4byte	.LLST37
 5161 08f1 00       		.byte	0
 5162 08f2 20       		.uleb128 0x20
 5163 08f3 00000000 		.4byte	.LASF84
 5164 08f7 01       		.byte	0x1
 5165 08f8 B101     		.2byte	0x1b1
 5166 08fa 00000000 		.4byte	.LFB53
 5167 08fe 50000000 		.4byte	.LFE53-.LFB53
 5168 0902 01       		.uleb128 0x1
 5169 0903 9C       		.byte	0x9c
 5170 0904 5F090000 		.4byte	0x95f
 5171 0908 15       		.uleb128 0x15
 5172 0909 7800     		.ascii	"x\000"
 5173 090b 01       		.byte	0x1
 5174 090c B101     		.2byte	0x1b1
 5175 090e AD000000 		.4byte	0xad
 5176 0912 F1070000 		.4byte	.LLST38
 5177 0916 15       		.uleb128 0x15
 5178 0917 7900     		.ascii	"y\000"
 5179 0919 01       		.byte	0x1
 5180 091a B101     		.2byte	0x1b1
 5181 091c AD000000 		.4byte	0xad
 5182 0920 34080000 		.4byte	.LLST39
 5183 0924 16       		.uleb128 0x16
 5184 0925 ED040000 		.4byte	.LASF46
 5185 0929 01       		.byte	0x1
 5186 092a B101     		.2byte	0x1b1
 5187 092c B8000000 		.4byte	0xb8
 5188 0930 6B080000 		.4byte	.LLST40
 5189 0934 17       		.uleb128 0x17
 5190 0935 3A000000 		.4byte	.LVL148
 5191 0939 34030000 		.4byte	0x334
 5192 093d 4E090000 		.4byte	0x94e
 5193 0941 18       		.uleb128 0x18
 5194 0942 01       		.uleb128 0x1
 5195 0943 50       		.byte	0x50
 5196 0944 02       		.uleb128 0x2
 5197 0945 75       		.byte	0x75
 5198 0946 00       		.sleb128 0
 5199 0947 18       		.uleb128 0x18
 5200 0948 01       		.uleb128 0x1
 5201 0949 51       		.byte	0x51
 5202 094a 02       		.uleb128 0x2
 5203 094b 76       		.byte	0x76
 5204 094c 00       		.sleb128 0
 5205 094d 00       		.byte	0
 5206 094e 19       		.uleb128 0x19
 5207 094f 48000000 		.4byte	.LVL149
 5208 0953 C9010000 		.4byte	0x1c9
 5209 0957 18       		.uleb128 0x18
 5210 0958 01       		.uleb128 0x1
 5211 0959 52       		.byte	0x52
 5212 095a 02       		.uleb128 0x2
 5213 095b 74       		.byte	0x74
 5214 095c 00       		.sleb128 0
 5215 095d 00       		.byte	0
ARM GAS  C:\Users\boise\AppData\Local\Temp\ccDu5XGS.s 			page 106


 5216 095e 00       		.byte	0
 5217 095f 20       		.uleb128 0x20
 5218 0960 30030000 		.4byte	.LASF85
 5219 0964 01       		.byte	0x1
 5220 0965 DE01     		.2byte	0x1de
 5221 0967 00000000 		.4byte	.LFB55
 5222 096b D6000000 		.4byte	.LFE55-.LFB55
 5223 096f 01       		.uleb128 0x1
 5224 0970 9C       		.byte	0x9c
 5225 0971 830A0000 		.4byte	0xa83
 5226 0975 15       		.uleb128 0x15
 5227 0976 783000   		.ascii	"x0\000"
 5228 0979 01       		.byte	0x1
 5229 097a DE01     		.2byte	0x1de
 5230 097c AD000000 		.4byte	0xad
 5231 0980 8C080000 		.4byte	.LLST41
 5232 0984 15       		.uleb128 0x15
 5233 0985 793000   		.ascii	"y0\000"
 5234 0988 01       		.byte	0x1
 5235 0989 DE01     		.2byte	0x1de
 5236 098b AD000000 		.4byte	0xad
 5237 098f D9080000 		.4byte	.LLST42
 5238 0993 15       		.uleb128 0x15
 5239 0994 783100   		.ascii	"x1\000"
 5240 0997 01       		.byte	0x1
 5241 0998 DE01     		.2byte	0x1de
 5242 099a AD000000 		.4byte	0xad
 5243 099e 34090000 		.4byte	.LLST43
 5244 09a2 15       		.uleb128 0x15
 5245 09a3 793100   		.ascii	"y1\000"
 5246 09a6 01       		.byte	0x1
 5247 09a7 DE01     		.2byte	0x1de
 5248 09a9 AD000000 		.4byte	0xad
 5249 09ad 60090000 		.4byte	.LLST44
 5250 09b1 16       		.uleb128 0x16
 5251 09b2 ED040000 		.4byte	.LASF46
 5252 09b6 01       		.byte	0x1
 5253 09b7 DE01     		.2byte	0x1de
 5254 09b9 B8000000 		.4byte	0xb8
 5255 09bd BB090000 		.4byte	.LLST45
 5256 09c1 24       		.uleb128 0x24
 5257 09c2 7400     		.ascii	"t\000"
 5258 09c4 01       		.byte	0x1
 5259 09c5 E601     		.2byte	0x1e6
 5260 09c7 AD000000 		.4byte	0xad
 5261 09cb 11       		.uleb128 0x11
 5262 09cc 82030000 		.4byte	.LASF86
 5263 09d0 01       		.byte	0x1
 5264 09d1 E801     		.2byte	0x1e8
 5265 09d3 AD000000 		.4byte	0xad
 5266 09d7 E7090000 		.4byte	.LLST46
 5267 09db 12       		.uleb128 0x12
 5268 09dc 647800   		.ascii	"dx\000"
 5269 09df 01       		.byte	0x1
 5270 09e0 F101     		.2byte	0x1f1
 5271 09e2 AD000000 		.4byte	0xad
 5272 09e6 150A0000 		.4byte	.LLST47
ARM GAS  C:\Users\boise\AppData\Local\Temp\ccDu5XGS.s 			page 107


 5273 09ea 12       		.uleb128 0x12
 5274 09eb 647900   		.ascii	"dy\000"
 5275 09ee 01       		.byte	0x1
 5276 09ef F101     		.2byte	0x1f1
 5277 09f1 AD000000 		.4byte	0xad
 5278 09f5 330A0000 		.4byte	.LLST48
 5279 09f9 12       		.uleb128 0x12
 5280 09fa 65727200 		.ascii	"err\000"
 5281 09fe 01       		.byte	0x1
 5282 09ff F401     		.2byte	0x1f4
 5283 0a01 AD000000 		.4byte	0xad
 5284 0a05 460A0000 		.4byte	.LLST49
 5285 0a09 11       		.uleb128 0x11
 5286 0a0a 22050000 		.4byte	.LASF87
 5287 0a0e 01       		.byte	0x1
 5288 0a0f F501     		.2byte	0x1f5
 5289 0a11 AD000000 		.4byte	0xad
 5290 0a15 640A0000 		.4byte	.LLST50
 5291 0a19 17       		.uleb128 0x17
 5292 0a1a 30000000 		.4byte	.LVL156
 5293 0a1e 7A030000 		.4byte	0x37a
 5294 0a22 420A0000 		.4byte	0xa42
 5295 0a26 18       		.uleb128 0x18
 5296 0a27 01       		.uleb128 0x1
 5297 0a28 50       		.byte	0x50
 5298 0a29 02       		.uleb128 0x2
 5299 0a2a 75       		.byte	0x75
 5300 0a2b 00       		.sleb128 0
 5301 0a2c 18       		.uleb128 0x18
 5302 0a2d 01       		.uleb128 0x1
 5303 0a2e 51       		.byte	0x51
 5304 0a2f 02       		.uleb128 0x2
 5305 0a30 76       		.byte	0x76
 5306 0a31 00       		.sleb128 0
 5307 0a32 18       		.uleb128 0x18
 5308 0a33 01       		.uleb128 0x1
 5309 0a34 52       		.byte	0x52
 5310 0a35 02       		.uleb128 0x2
 5311 0a36 77       		.byte	0x77
 5312 0a37 00       		.sleb128 0
 5313 0a38 18       		.uleb128 0x18
 5314 0a39 02       		.uleb128 0x2
 5315 0a3a 7D       		.byte	0x7d
 5316 0a3b 00       		.sleb128 0
 5317 0a3c 04       		.uleb128 0x4
 5318 0a3d 91       		.byte	0x91
 5319 0a3e 50       		.sleb128 -48
 5320 0a3f 94       		.byte	0x94
 5321 0a40 02       		.byte	0x2
 5322 0a41 00       		.byte	0
 5323 0a42 17       		.uleb128 0x17
 5324 0a43 9C000000 		.4byte	.LVL175
 5325 0a47 F2080000 		.4byte	0x8f2
 5326 0a4b 640A0000 		.4byte	0xa64
 5327 0a4f 18       		.uleb128 0x18
 5328 0a50 01       		.uleb128 0x1
 5329 0a51 50       		.byte	0x50
ARM GAS  C:\Users\boise\AppData\Local\Temp\ccDu5XGS.s 			page 108


 5330 0a52 02       		.uleb128 0x2
 5331 0a53 76       		.byte	0x76
 5332 0a54 00       		.sleb128 0
 5333 0a55 18       		.uleb128 0x18
 5334 0a56 01       		.uleb128 0x1
 5335 0a57 51       		.byte	0x51
 5336 0a58 02       		.uleb128 0x2
 5337 0a59 75       		.byte	0x75
 5338 0a5a 00       		.sleb128 0
 5339 0a5b 18       		.uleb128 0x18
 5340 0a5c 01       		.uleb128 0x1
 5341 0a5d 52       		.byte	0x52
 5342 0a5e 04       		.uleb128 0x4
 5343 0a5f 91       		.byte	0x91
 5344 0a60 50       		.sleb128 -48
 5345 0a61 94       		.byte	0x94
 5346 0a62 02       		.byte	0x2
 5347 0a63 00       		.byte	0
 5348 0a64 19       		.uleb128 0x19
 5349 0a65 A8000000 		.4byte	.LVL176
 5350 0a69 F2080000 		.4byte	0x8f2
 5351 0a6d 18       		.uleb128 0x18
 5352 0a6e 01       		.uleb128 0x1
 5353 0a6f 50       		.byte	0x50
 5354 0a70 02       		.uleb128 0x2
 5355 0a71 75       		.byte	0x75
 5356 0a72 00       		.sleb128 0
 5357 0a73 18       		.uleb128 0x18
 5358 0a74 01       		.uleb128 0x1
 5359 0a75 51       		.byte	0x51
 5360 0a76 02       		.uleb128 0x2
 5361 0a77 76       		.byte	0x76
 5362 0a78 00       		.sleb128 0
 5363 0a79 18       		.uleb128 0x18
 5364 0a7a 01       		.uleb128 0x1
 5365 0a7b 52       		.byte	0x52
 5366 0a7c 04       		.uleb128 0x4
 5367 0a7d 91       		.byte	0x91
 5368 0a7e 50       		.sleb128 -48
 5369 0a7f 94       		.byte	0x94
 5370 0a80 02       		.byte	0x2
 5371 0a81 00       		.byte	0
 5372 0a82 00       		.byte	0
 5373 0a83 20       		.uleb128 0x20
 5374 0a84 6E030000 		.4byte	.LASF88
 5375 0a88 01       		.byte	0x1
 5376 0a89 0902     		.2byte	0x209
 5377 0a8b 00000000 		.4byte	.LFB56
 5378 0a8f 58000000 		.4byte	.LFE56-.LFB56
 5379 0a93 01       		.uleb128 0x1
 5380 0a94 9C       		.byte	0x9c
 5381 0a95 9A0B0000 		.4byte	0xb9a
 5382 0a99 15       		.uleb128 0x15
 5383 0a9a 7800     		.ascii	"x\000"
 5384 0a9c 01       		.byte	0x1
 5385 0a9d 0902     		.2byte	0x209
 5386 0a9f AD000000 		.4byte	0xad
ARM GAS  C:\Users\boise\AppData\Local\Temp\ccDu5XGS.s 			page 109


 5387 0aa3 780A0000 		.4byte	.LLST51
 5388 0aa7 15       		.uleb128 0x15
 5389 0aa8 7900     		.ascii	"y\000"
 5390 0aaa 01       		.byte	0x1
 5391 0aab 0902     		.2byte	0x209
 5392 0aad AD000000 		.4byte	0xad
 5393 0ab1 990A0000 		.4byte	.LLST52
 5394 0ab5 15       		.uleb128 0x15
 5395 0ab6 7700     		.ascii	"w\000"
 5396 0ab8 01       		.byte	0x1
 5397 0ab9 0902     		.2byte	0x209
 5398 0abb AD000000 		.4byte	0xad
 5399 0abf BA0A0000 		.4byte	.LLST53
 5400 0ac3 15       		.uleb128 0x15
 5401 0ac4 6800     		.ascii	"h\000"
 5402 0ac6 01       		.byte	0x1
 5403 0ac7 0902     		.2byte	0x209
 5404 0ac9 AD000000 		.4byte	0xad
 5405 0acd DB0A0000 		.4byte	.LLST54
 5406 0ad1 16       		.uleb128 0x16
 5407 0ad2 ED040000 		.4byte	.LASF46
 5408 0ad6 01       		.byte	0x1
 5409 0ad7 0902     		.2byte	0x209
 5410 0ad9 B8000000 		.4byte	0xb8
 5411 0add FC0A0000 		.4byte	.LLST55
 5412 0ae1 17       		.uleb128 0x17
 5413 0ae2 24000000 		.4byte	.LVL190
 5414 0ae6 5F090000 		.4byte	0x95f
 5415 0aea 100B0000 		.4byte	0xb10
 5416 0aee 18       		.uleb128 0x18
 5417 0aef 01       		.uleb128 0x1
 5418 0af0 50       		.byte	0x50
 5419 0af1 02       		.uleb128 0x2
 5420 0af2 77       		.byte	0x77
 5421 0af3 00       		.sleb128 0
 5422 0af4 18       		.uleb128 0x18
 5423 0af5 01       		.uleb128 0x1
 5424 0af6 51       		.byte	0x51
 5425 0af7 02       		.uleb128 0x2
 5426 0af8 76       		.byte	0x76
 5427 0af9 00       		.sleb128 0
 5428 0afa 18       		.uleb128 0x18
 5429 0afb 01       		.uleb128 0x1
 5430 0afc 52       		.byte	0x52
 5431 0afd 04       		.uleb128 0x4
 5432 0afe 91       		.byte	0x91
 5433 0aff 64       		.sleb128 -28
 5434 0b00 94       		.byte	0x94
 5435 0b01 02       		.byte	0x2
 5436 0b02 18       		.uleb128 0x18
 5437 0b03 01       		.uleb128 0x1
 5438 0b04 53       		.byte	0x53
 5439 0b05 02       		.uleb128 0x2
 5440 0b06 76       		.byte	0x76
 5441 0b07 00       		.sleb128 0
 5442 0b08 18       		.uleb128 0x18
 5443 0b09 02       		.uleb128 0x2
ARM GAS  C:\Users\boise\AppData\Local\Temp\ccDu5XGS.s 			page 110


 5444 0b0a 7D       		.byte	0x7d
 5445 0b0b 00       		.sleb128 0
 5446 0b0c 02       		.uleb128 0x2
 5447 0b0d 74       		.byte	0x74
 5448 0b0e 00       		.sleb128 0
 5449 0b0f 00       		.byte	0
 5450 0b10 17       		.uleb128 0x17
 5451 0b11 38000000 		.4byte	.LVL191
 5452 0b15 5F090000 		.4byte	0x95f
 5453 0b19 3F0B0000 		.4byte	0xb3f
 5454 0b1d 18       		.uleb128 0x18
 5455 0b1e 01       		.uleb128 0x1
 5456 0b1f 50       		.byte	0x50
 5457 0b20 02       		.uleb128 0x2
 5458 0b21 77       		.byte	0x77
 5459 0b22 00       		.sleb128 0
 5460 0b23 18       		.uleb128 0x18
 5461 0b24 01       		.uleb128 0x1
 5462 0b25 51       		.byte	0x51
 5463 0b26 02       		.uleb128 0x2
 5464 0b27 75       		.byte	0x75
 5465 0b28 00       		.sleb128 0
 5466 0b29 18       		.uleb128 0x18
 5467 0b2a 01       		.uleb128 0x1
 5468 0b2b 52       		.byte	0x52
 5469 0b2c 04       		.uleb128 0x4
 5470 0b2d 91       		.byte	0x91
 5471 0b2e 64       		.sleb128 -28
 5472 0b2f 94       		.byte	0x94
 5473 0b30 02       		.byte	0x2
 5474 0b31 18       		.uleb128 0x18
 5475 0b32 01       		.uleb128 0x1
 5476 0b33 53       		.byte	0x53
 5477 0b34 02       		.uleb128 0x2
 5478 0b35 75       		.byte	0x75
 5479 0b36 00       		.sleb128 0
 5480 0b37 18       		.uleb128 0x18
 5481 0b38 02       		.uleb128 0x2
 5482 0b39 7D       		.byte	0x7d
 5483 0b3a 00       		.sleb128 0
 5484 0b3b 02       		.uleb128 0x2
 5485 0b3c 74       		.byte	0x74
 5486 0b3d 00       		.sleb128 0
 5487 0b3e 00       		.byte	0
 5488 0b3f 17       		.uleb128 0x17
 5489 0b40 46000000 		.4byte	.LVL192
 5490 0b44 5F090000 		.4byte	0x95f
 5491 0b48 6C0B0000 		.4byte	0xb6c
 5492 0b4c 18       		.uleb128 0x18
 5493 0b4d 01       		.uleb128 0x1
 5494 0b4e 50       		.byte	0x50
 5495 0b4f 02       		.uleb128 0x2
 5496 0b50 77       		.byte	0x77
 5497 0b51 00       		.sleb128 0
 5498 0b52 18       		.uleb128 0x18
 5499 0b53 01       		.uleb128 0x1
 5500 0b54 51       		.byte	0x51
ARM GAS  C:\Users\boise\AppData\Local\Temp\ccDu5XGS.s 			page 111


 5501 0b55 02       		.uleb128 0x2
 5502 0b56 76       		.byte	0x76
 5503 0b57 00       		.sleb128 0
 5504 0b58 18       		.uleb128 0x18
 5505 0b59 01       		.uleb128 0x1
 5506 0b5a 52       		.byte	0x52
 5507 0b5b 02       		.uleb128 0x2
 5508 0b5c 77       		.byte	0x77
 5509 0b5d 00       		.sleb128 0
 5510 0b5e 18       		.uleb128 0x18
 5511 0b5f 01       		.uleb128 0x1
 5512 0b60 53       		.byte	0x53
 5513 0b61 02       		.uleb128 0x2
 5514 0b62 75       		.byte	0x75
 5515 0b63 00       		.sleb128 0
 5516 0b64 18       		.uleb128 0x18
 5517 0b65 02       		.uleb128 0x2
 5518 0b66 7D       		.byte	0x7d
 5519 0b67 00       		.sleb128 0
 5520 0b68 02       		.uleb128 0x2
 5521 0b69 74       		.byte	0x74
 5522 0b6a 00       		.sleb128 0
 5523 0b6b 00       		.byte	0
 5524 0b6c 19       		.uleb128 0x19
 5525 0b6d 54000000 		.4byte	.LVL193
 5526 0b71 5F090000 		.4byte	0x95f
 5527 0b75 18       		.uleb128 0x18
 5528 0b76 01       		.uleb128 0x1
 5529 0b77 50       		.byte	0x50
 5530 0b78 04       		.uleb128 0x4
 5531 0b79 91       		.byte	0x91
 5532 0b7a 64       		.sleb128 -28
 5533 0b7b 94       		.byte	0x94
 5534 0b7c 02       		.byte	0x2
 5535 0b7d 18       		.uleb128 0x18
 5536 0b7e 01       		.uleb128 0x1
 5537 0b7f 51       		.byte	0x51
 5538 0b80 02       		.uleb128 0x2
 5539 0b81 76       		.byte	0x76
 5540 0b82 00       		.sleb128 0
 5541 0b83 18       		.uleb128 0x18
 5542 0b84 01       		.uleb128 0x1
 5543 0b85 52       		.byte	0x52
 5544 0b86 04       		.uleb128 0x4
 5545 0b87 91       		.byte	0x91
 5546 0b88 64       		.sleb128 -28
 5547 0b89 94       		.byte	0x94
 5548 0b8a 02       		.byte	0x2
 5549 0b8b 18       		.uleb128 0x18
 5550 0b8c 01       		.uleb128 0x1
 5551 0b8d 53       		.byte	0x53
 5552 0b8e 02       		.uleb128 0x2
 5553 0b8f 75       		.byte	0x75
 5554 0b90 00       		.sleb128 0
 5555 0b91 18       		.uleb128 0x18
 5556 0b92 02       		.uleb128 0x2
 5557 0b93 7D       		.byte	0x7d
ARM GAS  C:\Users\boise\AppData\Local\Temp\ccDu5XGS.s 			page 112


 5558 0b94 00       		.sleb128 0
 5559 0b95 02       		.uleb128 0x2
 5560 0b96 74       		.byte	0x74
 5561 0b97 00       		.sleb128 0
 5562 0b98 00       		.byte	0
 5563 0b99 00       		.byte	0
 5564 0b9a 20       		.uleb128 0x20
 5565 0b9b A0040000 		.4byte	.LASF89
 5566 0b9f 01       		.byte	0x1
 5567 0ba0 1102     		.2byte	0x211
 5568 0ba2 00000000 		.4byte	.LFB57
 5569 0ba6 70000000 		.4byte	.LFE57-.LFB57
 5570 0baa 01       		.uleb128 0x1
 5571 0bab 9C       		.byte	0x9c
 5572 0bac 670C0000 		.4byte	0xc67
 5573 0bb0 15       		.uleb128 0x15
 5574 0bb1 7800     		.ascii	"x\000"
 5575 0bb3 01       		.byte	0x1
 5576 0bb4 1102     		.2byte	0x211
 5577 0bb6 AD000000 		.4byte	0xad
 5578 0bba 280B0000 		.4byte	.LLST56
 5579 0bbe 15       		.uleb128 0x15
 5580 0bbf 7900     		.ascii	"y\000"
 5581 0bc1 01       		.byte	0x1
 5582 0bc2 1102     		.2byte	0x211
 5583 0bc4 AD000000 		.4byte	0xad
 5584 0bc8 620B0000 		.4byte	.LLST57
 5585 0bcc 15       		.uleb128 0x15
 5586 0bcd 7700     		.ascii	"w\000"
 5587 0bcf 01       		.byte	0x1
 5588 0bd0 1102     		.2byte	0x211
 5589 0bd2 AD000000 		.4byte	0xad
 5590 0bd6 9C0B0000 		.4byte	.LLST58
 5591 0bda 15       		.uleb128 0x15
 5592 0bdb 6800     		.ascii	"h\000"
 5593 0bdd 01       		.byte	0x1
 5594 0bde 1102     		.2byte	0x211
 5595 0be0 AD000000 		.4byte	0xad
 5596 0be4 D60B0000 		.4byte	.LLST59
 5597 0be8 16       		.uleb128 0x16
 5598 0be9 ED040000 		.4byte	.LASF46
 5599 0bed 01       		.byte	0x1
 5600 0bee 1102     		.2byte	0x211
 5601 0bf0 B8000000 		.4byte	0xb8
 5602 0bf4 F70B0000 		.4byte	.LLST60
 5603 0bf8 12       		.uleb128 0x12
 5604 0bf9 6900     		.ascii	"i\000"
 5605 0bfb 01       		.byte	0x1
 5606 0bfc 1202     		.2byte	0x212
 5607 0bfe AD000000 		.4byte	0xad
 5608 0c02 230C0000 		.4byte	.LLST61
 5609 0c06 17       		.uleb128 0x17
 5610 0c07 36000000 		.4byte	.LVL199
 5611 0c0b 5F090000 		.4byte	0x95f
 5612 0c0f 380C0000 		.4byte	0xc38
 5613 0c13 18       		.uleb128 0x18
 5614 0c14 01       		.uleb128 0x1
ARM GAS  C:\Users\boise\AppData\Local\Temp\ccDu5XGS.s 			page 113


 5615 0c15 50       		.byte	0x50
 5616 0c16 02       		.uleb128 0x2
 5617 0c17 74       		.byte	0x74
 5618 0c18 00       		.sleb128 0
 5619 0c19 18       		.uleb128 0x18
 5620 0c1a 01       		.uleb128 0x1
 5621 0c1b 51       		.byte	0x51
 5622 0c1c 02       		.uleb128 0x2
 5623 0c1d 76       		.byte	0x76
 5624 0c1e 00       		.sleb128 0
 5625 0c1f 18       		.uleb128 0x18
 5626 0c20 01       		.uleb128 0x1
 5627 0c21 52       		.byte	0x52
 5628 0c22 02       		.uleb128 0x2
 5629 0c23 74       		.byte	0x74
 5630 0c24 00       		.sleb128 0
 5631 0c25 18       		.uleb128 0x18
 5632 0c26 01       		.uleb128 0x1
 5633 0c27 53       		.byte	0x53
 5634 0c28 07       		.uleb128 0x7
 5635 0c29 76       		.byte	0x76
 5636 0c2a 00       		.sleb128 0
 5637 0c2b 78       		.byte	0x78
 5638 0c2c 00       		.sleb128 0
 5639 0c2d 22       		.byte	0x22
 5640 0c2e 31       		.byte	0x31
 5641 0c2f 1C       		.byte	0x1c
 5642 0c30 18       		.uleb128 0x18
 5643 0c31 02       		.uleb128 0x2
 5644 0c32 7D       		.byte	0x7d
 5645 0c33 00       		.sleb128 0
 5646 0c34 02       		.uleb128 0x2
 5647 0c35 79       		.byte	0x79
 5648 0c36 00       		.sleb128 0
 5649 0c37 00       		.byte	0
 5650 0c38 19       		.uleb128 0x19
 5651 0c39 5A000000 		.4byte	.LVL204
 5652 0c3d 5F090000 		.4byte	0x95f
 5653 0c41 18       		.uleb128 0x18
 5654 0c42 01       		.uleb128 0x1
 5655 0c43 50       		.byte	0x50
 5656 0c44 02       		.uleb128 0x2
 5657 0c45 75       		.byte	0x75
 5658 0c46 00       		.sleb128 0
 5659 0c47 18       		.uleb128 0x18
 5660 0c48 01       		.uleb128 0x1
 5661 0c49 51       		.byte	0x51
 5662 0c4a 02       		.uleb128 0x2
 5663 0c4b 74       		.byte	0x74
 5664 0c4c 00       		.sleb128 0
 5665 0c4d 18       		.uleb128 0x18
 5666 0c4e 01       		.uleb128 0x1
 5667 0c4f 52       		.byte	0x52
 5668 0c50 07       		.uleb128 0x7
 5669 0c51 75       		.byte	0x75
 5670 0c52 00       		.sleb128 0
 5671 0c53 77       		.byte	0x77
ARM GAS  C:\Users\boise\AppData\Local\Temp\ccDu5XGS.s 			page 114


 5672 0c54 00       		.sleb128 0
 5673 0c55 22       		.byte	0x22
 5674 0c56 31       		.byte	0x31
 5675 0c57 1C       		.byte	0x1c
 5676 0c58 18       		.uleb128 0x18
 5677 0c59 01       		.uleb128 0x1
 5678 0c5a 53       		.byte	0x53
 5679 0c5b 02       		.uleb128 0x2
 5680 0c5c 74       		.byte	0x74
 5681 0c5d 00       		.sleb128 0
 5682 0c5e 18       		.uleb128 0x18
 5683 0c5f 02       		.uleb128 0x2
 5684 0c60 7D       		.byte	0x7d
 5685 0c61 00       		.sleb128 0
 5686 0c62 02       		.uleb128 0x2
 5687 0c63 79       		.byte	0x79
 5688 0c64 00       		.sleb128 0
 5689 0c65 00       		.byte	0
 5690 0c66 00       		.byte	0
 5691 0c67 20       		.uleb128 0x20
 5692 0c68 4C020000 		.4byte	.LASF90
 5693 0c6c 01       		.byte	0x1
 5694 0c6d 2002     		.2byte	0x220
 5695 0c6f 00000000 		.4byte	.LFB58
 5696 0c73 48010000 		.4byte	.LFE58-.LFB58
 5697 0c77 01       		.uleb128 0x1
 5698 0c78 9C       		.byte	0x9c
 5699 0c79 9E0E0000 		.4byte	0xe9e
 5700 0c7d 15       		.uleb128 0x15
 5701 0c7e 783000   		.ascii	"x0\000"
 5702 0c81 01       		.byte	0x1
 5703 0c82 2002     		.2byte	0x220
 5704 0c84 AD000000 		.4byte	0xad
 5705 0c88 6F0C0000 		.4byte	.LLST62
 5706 0c8c 15       		.uleb128 0x15
 5707 0c8d 793000   		.ascii	"y0\000"
 5708 0c90 01       		.byte	0x1
 5709 0c91 2002     		.2byte	0x220
 5710 0c93 AD000000 		.4byte	0xad
 5711 0c97 900C0000 		.4byte	.LLST63
 5712 0c9b 15       		.uleb128 0x15
 5713 0c9c 7200     		.ascii	"r\000"
 5714 0c9e 01       		.byte	0x1
 5715 0c9f 2002     		.2byte	0x220
 5716 0ca1 AD000000 		.4byte	0xad
 5717 0ca5 C70C0000 		.4byte	.LLST64
 5718 0ca9 16       		.uleb128 0x16
 5719 0caa ED040000 		.4byte	.LASF46
 5720 0cae 01       		.byte	0x1
 5721 0caf 2002     		.2byte	0x220
 5722 0cb1 B8000000 		.4byte	0xb8
 5723 0cb5 F30C0000 		.4byte	.LLST65
 5724 0cb9 12       		.uleb128 0x12
 5725 0cba 6600     		.ascii	"f\000"
 5726 0cbc 01       		.byte	0x1
 5727 0cbd 2202     		.2byte	0x222
 5728 0cbf AD000000 		.4byte	0xad
ARM GAS  C:\Users\boise\AppData\Local\Temp\ccDu5XGS.s 			page 115


 5729 0cc3 140D0000 		.4byte	.LLST66
 5730 0cc7 11       		.uleb128 0x11
 5731 0cc8 19060000 		.4byte	.LASF91
 5732 0ccc 01       		.byte	0x1
 5733 0ccd 2302     		.2byte	0x223
 5734 0ccf AD000000 		.4byte	0xad
 5735 0cd3 320D0000 		.4byte	.LLST67
 5736 0cd7 21       		.uleb128 0x21
 5737 0cd8 1F060000 		.4byte	.LASF92
 5738 0cdc 01       		.byte	0x1
 5739 0cdd 2402     		.2byte	0x224
 5740 0cdf AD000000 		.4byte	0xad
 5741 0ce3 02       		.uleb128 0x2
 5742 0ce4 91       		.byte	0x91
 5743 0ce5 54       		.sleb128 -44
 5744 0ce6 12       		.uleb128 0x12
 5745 0ce7 7800     		.ascii	"x\000"
 5746 0ce9 01       		.byte	0x1
 5747 0cea 2502     		.2byte	0x225
 5748 0cec AD000000 		.4byte	0xad
 5749 0cf0 520D0000 		.4byte	.LLST68
 5750 0cf4 25       		.uleb128 0x25
 5751 0cf5 7900     		.ascii	"y\000"
 5752 0cf7 01       		.byte	0x1
 5753 0cf8 2602     		.2byte	0x226
 5754 0cfa AD000000 		.4byte	0xad
 5755 0cfe 02       		.uleb128 0x2
 5756 0cff 91       		.byte	0x91
 5757 0d00 48       		.sleb128 -56
 5758 0d01 17       		.uleb128 0x17
 5759 0d02 3A000000 		.4byte	.LVL215
 5760 0d06 F2080000 		.4byte	0x8f2
 5761 0d0a 260D0000 		.4byte	0xd26
 5762 0d0e 18       		.uleb128 0x18
 5763 0d0f 01       		.uleb128 0x1
 5764 0d10 50       		.byte	0x50
 5765 0d11 02       		.uleb128 0x2
 5766 0d12 76       		.byte	0x76
 5767 0d13 00       		.sleb128 0
 5768 0d14 18       		.uleb128 0x18
 5769 0d15 01       		.uleb128 0x1
 5770 0d16 51       		.byte	0x51
 5771 0d17 05       		.uleb128 0x5
 5772 0d18 77       		.byte	0x77
 5773 0d19 00       		.sleb128 0
 5774 0d1a 7A       		.byte	0x7a
 5775 0d1b 00       		.sleb128 0
 5776 0d1c 22       		.byte	0x22
 5777 0d1d 18       		.uleb128 0x18
 5778 0d1e 01       		.uleb128 0x1
 5779 0d1f 52       		.byte	0x52
 5780 0d20 04       		.uleb128 0x4
 5781 0d21 91       		.byte	0x91
 5782 0d22 44       		.sleb128 -60
 5783 0d23 94       		.byte	0x94
 5784 0d24 02       		.byte	0x2
 5785 0d25 00       		.byte	0
ARM GAS  C:\Users\boise\AppData\Local\Temp\ccDu5XGS.s 			page 116


 5786 0d26 17       		.uleb128 0x17
 5787 0d27 48000000 		.4byte	.LVL216
 5788 0d2b F2080000 		.4byte	0x8f2
 5789 0d2f 4B0D0000 		.4byte	0xd4b
 5790 0d33 18       		.uleb128 0x18
 5791 0d34 01       		.uleb128 0x1
 5792 0d35 50       		.byte	0x50
 5793 0d36 02       		.uleb128 0x2
 5794 0d37 76       		.byte	0x76
 5795 0d38 00       		.sleb128 0
 5796 0d39 18       		.uleb128 0x18
 5797 0d3a 01       		.uleb128 0x1
 5798 0d3b 51       		.byte	0x51
 5799 0d3c 05       		.uleb128 0x5
 5800 0d3d 7A       		.byte	0x7a
 5801 0d3e 00       		.sleb128 0
 5802 0d3f 77       		.byte	0x77
 5803 0d40 00       		.sleb128 0
 5804 0d41 1C       		.byte	0x1c
 5805 0d42 18       		.uleb128 0x18
 5806 0d43 01       		.uleb128 0x1
 5807 0d44 52       		.byte	0x52
 5808 0d45 04       		.uleb128 0x4
 5809 0d46 91       		.byte	0x91
 5810 0d47 44       		.sleb128 -60
 5811 0d48 94       		.byte	0x94
 5812 0d49 02       		.byte	0x2
 5813 0d4a 00       		.byte	0
 5814 0d4b 17       		.uleb128 0x17
 5815 0d4c 5A000000 		.4byte	.LVL217
 5816 0d50 F2080000 		.4byte	0x8f2
 5817 0d54 6E0D0000 		.4byte	0xd6e
 5818 0d58 18       		.uleb128 0x18
 5819 0d59 01       		.uleb128 0x1
 5820 0d5a 50       		.byte	0x50
 5821 0d5b 05       		.uleb128 0x5
 5822 0d5c 77       		.byte	0x77
 5823 0d5d 00       		.sleb128 0
 5824 0d5e 7B       		.byte	0x7b
 5825 0d5f 00       		.sleb128 0
 5826 0d60 22       		.byte	0x22
 5827 0d61 18       		.uleb128 0x18
 5828 0d62 01       		.uleb128 0x1
 5829 0d63 51       		.byte	0x51
 5830 0d64 02       		.uleb128 0x2
 5831 0d65 75       		.byte	0x75
 5832 0d66 00       		.sleb128 0
 5833 0d67 18       		.uleb128 0x18
 5834 0d68 01       		.uleb128 0x1
 5835 0d69 52       		.byte	0x52
 5836 0d6a 02       		.uleb128 0x2
 5837 0d6b 76       		.byte	0x76
 5838 0d6c 00       		.sleb128 0
 5839 0d6d 00       		.byte	0
 5840 0d6e 17       		.uleb128 0x17
 5841 0d6f 68000000 		.4byte	.LVL218
 5842 0d73 F2080000 		.4byte	0x8f2
ARM GAS  C:\Users\boise\AppData\Local\Temp\ccDu5XGS.s 			page 117


 5843 0d77 910D0000 		.4byte	0xd91
 5844 0d7b 18       		.uleb128 0x18
 5845 0d7c 01       		.uleb128 0x1
 5846 0d7d 50       		.byte	0x50
 5847 0d7e 05       		.uleb128 0x5
 5848 0d7f 7B       		.byte	0x7b
 5849 0d80 00       		.sleb128 0
 5850 0d81 77       		.byte	0x77
 5851 0d82 00       		.sleb128 0
 5852 0d83 1C       		.byte	0x1c
 5853 0d84 18       		.uleb128 0x18
 5854 0d85 01       		.uleb128 0x1
 5855 0d86 51       		.byte	0x51
 5856 0d87 02       		.uleb128 0x2
 5857 0d88 75       		.byte	0x75
 5858 0d89 00       		.sleb128 0
 5859 0d8a 18       		.uleb128 0x18
 5860 0d8b 01       		.uleb128 0x1
 5861 0d8c 52       		.byte	0x52
 5862 0d8d 02       		.uleb128 0x2
 5863 0d8e 76       		.byte	0x76
 5864 0d8f 00       		.sleb128 0
 5865 0d90 00       		.byte	0
 5866 0d91 17       		.uleb128 0x17
 5867 0d92 C8000000 		.4byte	.LVL226
 5868 0d96 F2080000 		.4byte	0x8f2
 5869 0d9a B50D0000 		.4byte	0xdb5
 5870 0d9e 18       		.uleb128 0x18
 5871 0d9f 01       		.uleb128 0x1
 5872 0da0 50       		.byte	0x50
 5873 0da1 04       		.uleb128 0x4
 5874 0da2 91       		.byte	0x91
 5875 0da3 50       		.sleb128 -48
 5876 0da4 94       		.byte	0x94
 5877 0da5 02       		.byte	0x2
 5878 0da6 18       		.uleb128 0x18
 5879 0da7 01       		.uleb128 0x1
 5880 0da8 51       		.byte	0x51
 5881 0da9 02       		.uleb128 0x2
 5882 0daa 77       		.byte	0x77
 5883 0dab 00       		.sleb128 0
 5884 0dac 18       		.uleb128 0x18
 5885 0dad 01       		.uleb128 0x1
 5886 0dae 52       		.byte	0x52
 5887 0daf 04       		.uleb128 0x4
 5888 0db0 91       		.byte	0x91
 5889 0db1 44       		.sleb128 -60
 5890 0db2 94       		.byte	0x94
 5891 0db3 02       		.byte	0x2
 5892 0db4 00       		.byte	0
 5893 0db5 17       		.uleb128 0x17
 5894 0db6 D8000000 		.4byte	.LVL227
 5895 0dba F2080000 		.4byte	0x8f2
 5896 0dbe D70D0000 		.4byte	0xdd7
 5897 0dc2 18       		.uleb128 0x18
 5898 0dc3 01       		.uleb128 0x1
 5899 0dc4 50       		.byte	0x50
ARM GAS  C:\Users\boise\AppData\Local\Temp\ccDu5XGS.s 			page 118


 5900 0dc5 02       		.uleb128 0x2
 5901 0dc6 74       		.byte	0x74
 5902 0dc7 00       		.sleb128 0
 5903 0dc8 18       		.uleb128 0x18
 5904 0dc9 01       		.uleb128 0x1
 5905 0dca 51       		.byte	0x51
 5906 0dcb 02       		.uleb128 0x2
 5907 0dcc 77       		.byte	0x77
 5908 0dcd 00       		.sleb128 0
 5909 0dce 18       		.uleb128 0x18
 5910 0dcf 01       		.uleb128 0x1
 5911 0dd0 52       		.byte	0x52
 5912 0dd1 04       		.uleb128 0x4
 5913 0dd2 91       		.byte	0x91
 5914 0dd3 44       		.sleb128 -60
 5915 0dd4 94       		.byte	0x94
 5916 0dd5 02       		.byte	0x2
 5917 0dd6 00       		.byte	0
 5918 0dd7 17       		.uleb128 0x17
 5919 0dd8 E8000000 		.4byte	.LVL228
 5920 0ddc F2080000 		.4byte	0x8f2
 5921 0de0 FB0D0000 		.4byte	0xdfb
 5922 0de4 18       		.uleb128 0x18
 5923 0de5 01       		.uleb128 0x1
 5924 0de6 50       		.byte	0x50
 5925 0de7 04       		.uleb128 0x4
 5926 0de8 91       		.byte	0x91
 5927 0de9 50       		.sleb128 -48
 5928 0dea 94       		.byte	0x94
 5929 0deb 02       		.byte	0x2
 5930 0dec 18       		.uleb128 0x18
 5931 0ded 01       		.uleb128 0x1
 5932 0dee 51       		.byte	0x51
 5933 0def 02       		.uleb128 0x2
 5934 0df0 77       		.byte	0x77
 5935 0df1 00       		.sleb128 0
 5936 0df2 18       		.uleb128 0x18
 5937 0df3 01       		.uleb128 0x1
 5938 0df4 52       		.byte	0x52
 5939 0df5 04       		.uleb128 0x4
 5940 0df6 91       		.byte	0x91
 5941 0df7 44       		.sleb128 -60
 5942 0df8 94       		.byte	0x94
 5943 0df9 02       		.byte	0x2
 5944 0dfa 00       		.byte	0
 5945 0dfb 17       		.uleb128 0x17
 5946 0dfc F2000000 		.4byte	.LVL229
 5947 0e00 F2080000 		.4byte	0x8f2
 5948 0e04 1D0E0000 		.4byte	0xe1d
 5949 0e08 18       		.uleb128 0x18
 5950 0e09 01       		.uleb128 0x1
 5951 0e0a 50       		.byte	0x50
 5952 0e0b 02       		.uleb128 0x2
 5953 0e0c 74       		.byte	0x74
 5954 0e0d 00       		.sleb128 0
 5955 0e0e 18       		.uleb128 0x18
 5956 0e0f 01       		.uleb128 0x1
ARM GAS  C:\Users\boise\AppData\Local\Temp\ccDu5XGS.s 			page 119


 5957 0e10 51       		.byte	0x51
 5958 0e11 02       		.uleb128 0x2
 5959 0e12 77       		.byte	0x77
 5960 0e13 00       		.sleb128 0
 5961 0e14 18       		.uleb128 0x18
 5962 0e15 01       		.uleb128 0x1
 5963 0e16 52       		.byte	0x52
 5964 0e17 04       		.uleb128 0x4
 5965 0e18 91       		.byte	0x91
 5966 0e19 44       		.sleb128 -60
 5967 0e1a 94       		.byte	0x94
 5968 0e1b 02       		.byte	0x2
 5969 0e1c 00       		.byte	0
 5970 0e1d 17       		.uleb128 0x17
 5971 0e1e 08010000 		.4byte	.LVL230
 5972 0e22 F2080000 		.4byte	0x8f2
 5973 0e26 3F0E0000 		.4byte	0xe3f
 5974 0e2a 18       		.uleb128 0x18
 5975 0e2b 01       		.uleb128 0x1
 5976 0e2c 50       		.byte	0x50
 5977 0e2d 02       		.uleb128 0x2
 5978 0e2e 77       		.byte	0x77
 5979 0e2f 00       		.sleb128 0
 5980 0e30 18       		.uleb128 0x18
 5981 0e31 01       		.uleb128 0x1
 5982 0e32 51       		.byte	0x51
 5983 0e33 02       		.uleb128 0x2
 5984 0e34 74       		.byte	0x74
 5985 0e35 00       		.sleb128 0
 5986 0e36 18       		.uleb128 0x18
 5987 0e37 01       		.uleb128 0x1
 5988 0e38 52       		.byte	0x52
 5989 0e39 04       		.uleb128 0x4
 5990 0e3a 91       		.byte	0x91
 5991 0e3b 44       		.sleb128 -60
 5992 0e3c 94       		.byte	0x94
 5993 0e3d 02       		.byte	0x2
 5994 0e3e 00       		.byte	0
 5995 0e3f 17       		.uleb128 0x17
 5996 0e40 18010000 		.4byte	.LVL231
 5997 0e44 F2080000 		.4byte	0x8f2
 5998 0e48 610E0000 		.4byte	0xe61
 5999 0e4c 18       		.uleb128 0x18
 6000 0e4d 01       		.uleb128 0x1
 6001 0e4e 50       		.byte	0x50
 6002 0e4f 02       		.uleb128 0x2
 6003 0e50 76       		.byte	0x76
 6004 0e51 00       		.sleb128 0
 6005 0e52 18       		.uleb128 0x18
 6006 0e53 01       		.uleb128 0x1
 6007 0e54 51       		.byte	0x51
 6008 0e55 02       		.uleb128 0x2
 6009 0e56 74       		.byte	0x74
 6010 0e57 00       		.sleb128 0
 6011 0e58 18       		.uleb128 0x18
 6012 0e59 01       		.uleb128 0x1
 6013 0e5a 52       		.byte	0x52
ARM GAS  C:\Users\boise\AppData\Local\Temp\ccDu5XGS.s 			page 120


 6014 0e5b 04       		.uleb128 0x4
 6015 0e5c 91       		.byte	0x91
 6016 0e5d 44       		.sleb128 -60
 6017 0e5e 94       		.byte	0x94
 6018 0e5f 02       		.byte	0x2
 6019 0e60 00       		.byte	0
 6020 0e61 17       		.uleb128 0x17
 6021 0e62 2A010000 		.4byte	.LVL232
 6022 0e66 F2080000 		.4byte	0x8f2
 6023 0e6a 810E0000 		.4byte	0xe81
 6024 0e6e 18       		.uleb128 0x18
 6025 0e6f 01       		.uleb128 0x1
 6026 0e70 50       		.byte	0x50
 6027 0e71 02       		.uleb128 0x2
 6028 0e72 77       		.byte	0x77
 6029 0e73 00       		.sleb128 0
 6030 0e74 18       		.uleb128 0x18
 6031 0e75 01       		.uleb128 0x1
 6032 0e76 51       		.byte	0x51
 6033 0e77 02       		.uleb128 0x2
 6034 0e78 75       		.byte	0x75
 6035 0e79 00       		.sleb128 0
 6036 0e7a 18       		.uleb128 0x18
 6037 0e7b 01       		.uleb128 0x1
 6038 0e7c 52       		.byte	0x52
 6039 0e7d 02       		.uleb128 0x2
 6040 0e7e 74       		.byte	0x74
 6041 0e7f 00       		.sleb128 0
 6042 0e80 00       		.byte	0
 6043 0e81 19       		.uleb128 0x19
 6044 0e82 34010000 		.4byte	.LVL233
 6045 0e86 F2080000 		.4byte	0x8f2
 6046 0e8a 18       		.uleb128 0x18
 6047 0e8b 01       		.uleb128 0x1
 6048 0e8c 50       		.byte	0x50
 6049 0e8d 02       		.uleb128 0x2
 6050 0e8e 76       		.byte	0x76
 6051 0e8f 00       		.sleb128 0
 6052 0e90 18       		.uleb128 0x18
 6053 0e91 01       		.uleb128 0x1
 6054 0e92 51       		.byte	0x51
 6055 0e93 02       		.uleb128 0x2
 6056 0e94 75       		.byte	0x75
 6057 0e95 00       		.sleb128 0
 6058 0e96 18       		.uleb128 0x18
 6059 0e97 01       		.uleb128 0x1
 6060 0e98 52       		.byte	0x52
 6061 0e99 02       		.uleb128 0x2
 6062 0e9a 74       		.byte	0x74
 6063 0e9b 00       		.sleb128 0
 6064 0e9c 00       		.byte	0
 6065 0e9d 00       		.byte	0
 6066 0e9e 20       		.uleb128 0x20
 6067 0e9f 47010000 		.4byte	.LASF93
 6068 0ea3 01       		.byte	0x1
 6069 0ea4 3F02     		.2byte	0x23f
 6070 0ea6 00000000 		.4byte	.LFB59
ARM GAS  C:\Users\boise\AppData\Local\Temp\ccDu5XGS.s 			page 121


 6071 0eaa 44000000 		.4byte	.LFE59-.LFB59
 6072 0eae 01       		.uleb128 0x1
 6073 0eaf 9C       		.byte	0x9c
 6074 0eb0 AE0F0000 		.4byte	0xfae
 6075 0eb4 15       		.uleb128 0x15
 6076 0eb5 783000   		.ascii	"x0\000"
 6077 0eb8 01       		.byte	0x1
 6078 0eb9 3F02     		.2byte	0x23f
 6079 0ebb AD000000 		.4byte	0xad
 6080 0ebf 710D0000 		.4byte	.LLST69
 6081 0ec3 15       		.uleb128 0x15
 6082 0ec4 793000   		.ascii	"y0\000"
 6083 0ec7 01       		.byte	0x1
 6084 0ec8 3F02     		.2byte	0x23f
 6085 0eca AD000000 		.4byte	0xad
 6086 0ece 920D0000 		.4byte	.LLST70
 6087 0ed2 15       		.uleb128 0x15
 6088 0ed3 783100   		.ascii	"x1\000"
 6089 0ed6 01       		.byte	0x1
 6090 0ed7 3F02     		.2byte	0x23f
 6091 0ed9 AD000000 		.4byte	0xad
 6092 0edd B30D0000 		.4byte	.LLST71
 6093 0ee1 15       		.uleb128 0x15
 6094 0ee2 793100   		.ascii	"y1\000"
 6095 0ee5 01       		.byte	0x1
 6096 0ee6 3F02     		.2byte	0x23f
 6097 0ee8 AD000000 		.4byte	0xad
 6098 0eec D40D0000 		.4byte	.LLST72
 6099 0ef0 15       		.uleb128 0x15
 6100 0ef1 783200   		.ascii	"x2\000"
 6101 0ef4 01       		.byte	0x1
 6102 0ef5 3F02     		.2byte	0x23f
 6103 0ef7 AD000000 		.4byte	0xad
 6104 0efb F50D0000 		.4byte	.LLST73
 6105 0eff 15       		.uleb128 0x15
 6106 0f00 793200   		.ascii	"y2\000"
 6107 0f03 01       		.byte	0x1
 6108 0f04 3F02     		.2byte	0x23f
 6109 0f06 AD000000 		.4byte	0xad
 6110 0f0a 210E0000 		.4byte	.LLST74
 6111 0f0e 16       		.uleb128 0x16
 6112 0f0f ED040000 		.4byte	.LASF46
 6113 0f13 01       		.byte	0x1
 6114 0f14 3F02     		.2byte	0x23f
 6115 0f16 B8000000 		.4byte	0xb8
 6116 0f1a 650E0000 		.4byte	.LLST75
 6117 0f1e 17       		.uleb128 0x17
 6118 0f1f 24000000 		.4byte	.LVL244
 6119 0f23 5F090000 		.4byte	0x95f
 6120 0f27 510F0000 		.4byte	0xf51
 6121 0f2b 18       		.uleb128 0x18
 6122 0f2c 01       		.uleb128 0x1
 6123 0f2d 50       		.byte	0x50
 6124 0f2e 04       		.uleb128 0x4
 6125 0f2f 91       		.byte	0x91
 6126 0f30 5C       		.sleb128 -36
 6127 0f31 94       		.byte	0x94
ARM GAS  C:\Users\boise\AppData\Local\Temp\ccDu5XGS.s 			page 122


 6128 0f32 02       		.byte	0x2
 6129 0f33 18       		.uleb128 0x18
 6130 0f34 01       		.uleb128 0x1
 6131 0f35 51       		.byte	0x51
 6132 0f36 04       		.uleb128 0x4
 6133 0f37 91       		.byte	0x91
 6134 0f38 60       		.sleb128 -32
 6135 0f39 94       		.byte	0x94
 6136 0f3a 02       		.byte	0x2
 6137 0f3b 18       		.uleb128 0x18
 6138 0f3c 01       		.uleb128 0x1
 6139 0f3d 52       		.byte	0x52
 6140 0f3e 04       		.uleb128 0x4
 6141 0f3f 91       		.byte	0x91
 6142 0f40 64       		.sleb128 -28
 6143 0f41 94       		.byte	0x94
 6144 0f42 02       		.byte	0x2
 6145 0f43 18       		.uleb128 0x18
 6146 0f44 01       		.uleb128 0x1
 6147 0f45 53       		.byte	0x53
 6148 0f46 02       		.uleb128 0x2
 6149 0f47 77       		.byte	0x77
 6150 0f48 00       		.sleb128 0
 6151 0f49 18       		.uleb128 0x18
 6152 0f4a 02       		.uleb128 0x2
 6153 0f4b 7D       		.byte	0x7d
 6154 0f4c 00       		.sleb128 0
 6155 0f4d 02       		.uleb128 0x2
 6156 0f4e 76       		.byte	0x76
 6157 0f4f 00       		.sleb128 0
 6158 0f50 00       		.byte	0
 6159 0f51 17       		.uleb128 0x17
 6160 0f52 32000000 		.4byte	.LVL245
 6161 0f56 5F090000 		.4byte	0x95f
 6162 0f5a 800F0000 		.4byte	0xf80
 6163 0f5e 18       		.uleb128 0x18
 6164 0f5f 01       		.uleb128 0x1
 6165 0f60 50       		.byte	0x50
 6166 0f61 04       		.uleb128 0x4
 6167 0f62 91       		.byte	0x91
 6168 0f63 64       		.sleb128 -28
 6169 0f64 94       		.byte	0x94
 6170 0f65 02       		.byte	0x2
 6171 0f66 18       		.uleb128 0x18
 6172 0f67 01       		.uleb128 0x1
 6173 0f68 51       		.byte	0x51
 6174 0f69 02       		.uleb128 0x2
 6175 0f6a 77       		.byte	0x77
 6176 0f6b 00       		.sleb128 0
 6177 0f6c 18       		.uleb128 0x18
 6178 0f6d 01       		.uleb128 0x1
 6179 0f6e 52       		.byte	0x52
 6180 0f6f 02       		.uleb128 0x2
 6181 0f70 74       		.byte	0x74
 6182 0f71 00       		.sleb128 0
 6183 0f72 18       		.uleb128 0x18
 6184 0f73 01       		.uleb128 0x1
ARM GAS  C:\Users\boise\AppData\Local\Temp\ccDu5XGS.s 			page 123


 6185 0f74 53       		.byte	0x53
 6186 0f75 02       		.uleb128 0x2
 6187 0f76 75       		.byte	0x75
 6188 0f77 00       		.sleb128 0
 6189 0f78 18       		.uleb128 0x18
 6190 0f79 02       		.uleb128 0x2
 6191 0f7a 7D       		.byte	0x7d
 6192 0f7b 00       		.sleb128 0
 6193 0f7c 02       		.uleb128 0x2
 6194 0f7d 76       		.byte	0x76
 6195 0f7e 00       		.sleb128 0
 6196 0f7f 00       		.byte	0
 6197 0f80 19       		.uleb128 0x19
 6198 0f81 40000000 		.4byte	.LVL246
 6199 0f85 5F090000 		.4byte	0x95f
 6200 0f89 18       		.uleb128 0x18
 6201 0f8a 01       		.uleb128 0x1
 6202 0f8b 50       		.byte	0x50
 6203 0f8c 02       		.uleb128 0x2
 6204 0f8d 74       		.byte	0x74
 6205 0f8e 00       		.sleb128 0
 6206 0f8f 18       		.uleb128 0x18
 6207 0f90 01       		.uleb128 0x1
 6208 0f91 51       		.byte	0x51
 6209 0f92 02       		.uleb128 0x2
 6210 0f93 75       		.byte	0x75
 6211 0f94 00       		.sleb128 0
 6212 0f95 18       		.uleb128 0x18
 6213 0f96 01       		.uleb128 0x1
 6214 0f97 52       		.byte	0x52
 6215 0f98 04       		.uleb128 0x4
 6216 0f99 91       		.byte	0x91
 6217 0f9a 5C       		.sleb128 -36
 6218 0f9b 94       		.byte	0x94
 6219 0f9c 02       		.byte	0x2
 6220 0f9d 18       		.uleb128 0x18
 6221 0f9e 01       		.uleb128 0x1
 6222 0f9f 53       		.byte	0x53
 6223 0fa0 04       		.uleb128 0x4
 6224 0fa1 91       		.byte	0x91
 6225 0fa2 60       		.sleb128 -32
 6226 0fa3 94       		.byte	0x94
 6227 0fa4 02       		.byte	0x2
 6228 0fa5 18       		.uleb128 0x18
 6229 0fa6 02       		.uleb128 0x2
 6230 0fa7 7D       		.byte	0x7d
 6231 0fa8 00       		.sleb128 0
 6232 0fa9 02       		.uleb128 0x2
 6233 0faa 76       		.byte	0x76
 6234 0fab 00       		.sleb128 0
 6235 0fac 00       		.byte	0
 6236 0fad 00       		.byte	0
 6237 0fae 20       		.uleb128 0x20
 6238 0faf E0050000 		.4byte	.LASF94
 6239 0fb3 01       		.byte	0x1
 6240 0fb4 4802     		.2byte	0x248
 6241 0fb6 00000000 		.4byte	.LFB60
ARM GAS  C:\Users\boise\AppData\Local\Temp\ccDu5XGS.s 			page 124


 6242 0fba 14010000 		.4byte	.LFE60-.LFB60
 6243 0fbe 01       		.uleb128 0x1
 6244 0fbf 9C       		.byte	0x9c
 6245 0fc0 1E110000 		.4byte	0x111e
 6246 0fc4 15       		.uleb128 0x15
 6247 0fc5 7800     		.ascii	"x\000"
 6248 0fc7 01       		.byte	0x1
 6249 0fc8 4802     		.2byte	0x248
 6250 0fca AD000000 		.4byte	0xad
 6251 0fce A90E0000 		.4byte	.LLST76
 6252 0fd2 15       		.uleb128 0x15
 6253 0fd3 7900     		.ascii	"y\000"
 6254 0fd5 01       		.byte	0x1
 6255 0fd6 4802     		.2byte	0x248
 6256 0fd8 AD000000 		.4byte	0xad
 6257 0fdc CA0E0000 		.4byte	.LLST77
 6258 0fe0 15       		.uleb128 0x15
 6259 0fe1 6300     		.ascii	"c\000"
 6260 0fe3 01       		.byte	0x1
 6261 0fe4 4802     		.2byte	0x248
 6262 0fe6 42000000 		.4byte	0x42
 6263 0fea EB0E0000 		.4byte	.LLST78
 6264 0fee 16       		.uleb128 0x16
 6265 0fef ED040000 		.4byte	.LASF46
 6266 0ff3 01       		.byte	0x1
 6267 0ff4 4802     		.2byte	0x248
 6268 0ff6 B8000000 		.4byte	0xb8
 6269 0ffa 0C0F0000 		.4byte	.LLST79
 6270 0ffe 15       		.uleb128 0x15
 6271 0fff 626700   		.ascii	"bg\000"
 6272 1002 01       		.byte	0x1
 6273 1003 4802     		.2byte	0x248
 6274 1005 B8000000 		.4byte	0xb8
 6275 1009 2D0F0000 		.4byte	.LLST80
 6276 100d 16       		.uleb128 0x16
 6277 100e 23010000 		.4byte	.LASF57
 6278 1012 01       		.byte	0x1
 6279 1013 4802     		.2byte	0x248
 6280 1015 A2000000 		.4byte	0xa2
 6281 1019 590F0000 		.4byte	.LLST81
 6282 101d 12       		.uleb128 0x12
 6283 101e 6900     		.ascii	"i\000"
 6284 1020 01       		.byte	0x1
 6285 1021 4F02     		.2byte	0x24f
 6286 1023 97000000 		.4byte	0x97
 6287 1027 9D0F0000 		.4byte	.LLST82
 6288 102b 10       		.uleb128 0x10
 6289 102c 4C000000 		.4byte	.LBB7
 6290 1030 A8000000 		.4byte	.LBE7-.LBB7
 6291 1034 11       		.uleb128 0x11
 6292 1035 8E050000 		.4byte	.LASF95
 6293 1039 01       		.byte	0x1
 6294 103a 5102     		.2byte	0x251
 6295 103c A2000000 		.4byte	0xa2
 6296 1040 BB0F0000 		.4byte	.LLST83
 6297 1044 12       		.uleb128 0x12
 6298 1045 6A00     		.ascii	"j\000"
ARM GAS  C:\Users\boise\AppData\Local\Temp\ccDu5XGS.s 			page 125


 6299 1047 01       		.byte	0x1
 6300 1048 5602     		.2byte	0x256
 6301 104a 97000000 		.4byte	0x97
 6302 104e D90F0000 		.4byte	.LLST84
 6303 1052 17       		.uleb128 0x17
 6304 1053 8A000000 		.4byte	.LVL258
 6305 1057 F2080000 		.4byte	0x8f2
 6306 105b 78100000 		.4byte	0x1078
 6307 105f 18       		.uleb128 0x18
 6308 1060 01       		.uleb128 0x1
 6309 1061 50       		.byte	0x50
 6310 1062 05       		.uleb128 0x5
 6311 1063 78       		.byte	0x78
 6312 1064 00       		.sleb128 0
 6313 1065 79       		.byte	0x79
 6314 1066 00       		.sleb128 0
 6315 1067 22       		.byte	0x22
 6316 1068 18       		.uleb128 0x18
 6317 1069 01       		.uleb128 0x1
 6318 106a 51       		.byte	0x51
 6319 106b 05       		.uleb128 0x5
 6320 106c 74       		.byte	0x74
 6321 106d 00       		.sleb128 0
 6322 106e 7A       		.byte	0x7a
 6323 106f 00       		.sleb128 0
 6324 1070 22       		.byte	0x22
 6325 1071 18       		.uleb128 0x18
 6326 1072 01       		.uleb128 0x1
 6327 1073 52       		.byte	0x52
 6328 1074 02       		.uleb128 0x2
 6329 1075 77       		.byte	0x77
 6330 1076 00       		.sleb128 0
 6331 1077 00       		.byte	0
 6332 1078 17       		.uleb128 0x17
 6333 1079 A8000000 		.4byte	.LVL259
 6334 107d 9A0B0000 		.4byte	0xb9a
 6335 1081 B9100000 		.4byte	0x10b9
 6336 1085 18       		.uleb128 0x18
 6337 1086 01       		.uleb128 0x1
 6338 1087 50       		.byte	0x50
 6339 1088 0C       		.uleb128 0xc
 6340 1089 76       		.byte	0x76
 6341 108a 00       		.sleb128 0
 6342 108b 0A       		.byte	0xa
 6343 108c FFFF     		.2byte	0xffff
 6344 108e 1A       		.byte	0x1a
 6345 108f 78       		.byte	0x78
 6346 1090 00       		.sleb128 0
 6347 1091 1E       		.byte	0x1e
 6348 1092 79       		.byte	0x79
 6349 1093 00       		.sleb128 0
 6350 1094 22       		.byte	0x22
 6351 1095 18       		.uleb128 0x18
 6352 1096 01       		.uleb128 0x1
 6353 1097 51       		.byte	0x51
 6354 1098 0C       		.uleb128 0xc
 6355 1099 76       		.byte	0x76
ARM GAS  C:\Users\boise\AppData\Local\Temp\ccDu5XGS.s 			page 126


 6356 109a 00       		.sleb128 0
 6357 109b 0A       		.byte	0xa
 6358 109c FFFF     		.2byte	0xffff
 6359 109e 1A       		.byte	0x1a
 6360 109f 74       		.byte	0x74
 6361 10a0 00       		.sleb128 0
 6362 10a1 1E       		.byte	0x1e
 6363 10a2 7A       		.byte	0x7a
 6364 10a3 00       		.sleb128 0
 6365 10a4 22       		.byte	0x22
 6366 10a5 18       		.uleb128 0x18
 6367 10a6 01       		.uleb128 0x1
 6368 10a7 52       		.byte	0x52
 6369 10a8 02       		.uleb128 0x2
 6370 10a9 76       		.byte	0x76
 6371 10aa 00       		.sleb128 0
 6372 10ab 18       		.uleb128 0x18
 6373 10ac 01       		.uleb128 0x1
 6374 10ad 53       		.byte	0x53
 6375 10ae 02       		.uleb128 0x2
 6376 10af 76       		.byte	0x76
 6377 10b0 00       		.sleb128 0
 6378 10b1 18       		.uleb128 0x18
 6379 10b2 02       		.uleb128 0x2
 6380 10b3 7D       		.byte	0x7d
 6381 10b4 00       		.sleb128 0
 6382 10b5 02       		.uleb128 0x2
 6383 10b6 77       		.byte	0x77
 6384 10b7 00       		.sleb128 0
 6385 10b8 00       		.byte	0
 6386 10b9 17       		.uleb128 0x17
 6387 10ba C4000000 		.4byte	.LVL260
 6388 10be F2080000 		.4byte	0x8f2
 6389 10c2 DF100000 		.4byte	0x10df
 6390 10c6 18       		.uleb128 0x18
 6391 10c7 01       		.uleb128 0x1
 6392 10c8 50       		.byte	0x50
 6393 10c9 05       		.uleb128 0x5
 6394 10ca 78       		.byte	0x78
 6395 10cb 00       		.sleb128 0
 6396 10cc 79       		.byte	0x79
 6397 10cd 00       		.sleb128 0
 6398 10ce 22       		.byte	0x22
 6399 10cf 18       		.uleb128 0x18
 6400 10d0 01       		.uleb128 0x1
 6401 10d1 51       		.byte	0x51
 6402 10d2 05       		.uleb128 0x5
 6403 10d3 74       		.byte	0x74
 6404 10d4 00       		.sleb128 0
 6405 10d5 7A       		.byte	0x7a
 6406 10d6 00       		.sleb128 0
 6407 10d7 22       		.byte	0x22
 6408 10d8 18       		.uleb128 0x18
 6409 10d9 01       		.uleb128 0x1
 6410 10da 52       		.byte	0x52
 6411 10db 02       		.uleb128 0x2
 6412 10dc 7B       		.byte	0x7b
ARM GAS  C:\Users\boise\AppData\Local\Temp\ccDu5XGS.s 			page 127


 6413 10dd 00       		.sleb128 0
 6414 10de 00       		.byte	0
 6415 10df 19       		.uleb128 0x19
 6416 10e0 E4000000 		.4byte	.LVL261
 6417 10e4 9A0B0000 		.4byte	0xb9a
 6418 10e8 18       		.uleb128 0x18
 6419 10e9 01       		.uleb128 0x1
 6420 10ea 50       		.byte	0x50
 6421 10eb 0C       		.uleb128 0xc
 6422 10ec 76       		.byte	0x76
 6423 10ed 00       		.sleb128 0
 6424 10ee 0A       		.byte	0xa
 6425 10ef FFFF     		.2byte	0xffff
 6426 10f1 1A       		.byte	0x1a
 6427 10f2 78       		.byte	0x78
 6428 10f3 00       		.sleb128 0
 6429 10f4 1E       		.byte	0x1e
 6430 10f5 79       		.byte	0x79
 6431 10f6 00       		.sleb128 0
 6432 10f7 22       		.byte	0x22
 6433 10f8 18       		.uleb128 0x18
 6434 10f9 01       		.uleb128 0x1
 6435 10fa 51       		.byte	0x51
 6436 10fb 0C       		.uleb128 0xc
 6437 10fc 76       		.byte	0x76
 6438 10fd 00       		.sleb128 0
 6439 10fe 0A       		.byte	0xa
 6440 10ff FFFF     		.2byte	0xffff
 6441 1101 1A       		.byte	0x1a
 6442 1102 74       		.byte	0x74
 6443 1103 00       		.sleb128 0
 6444 1104 1E       		.byte	0x1e
 6445 1105 7A       		.byte	0x7a
 6446 1106 00       		.sleb128 0
 6447 1107 22       		.byte	0x22
 6448 1108 18       		.uleb128 0x18
 6449 1109 01       		.uleb128 0x1
 6450 110a 52       		.byte	0x52
 6451 110b 02       		.uleb128 0x2
 6452 110c 76       		.byte	0x76
 6453 110d 00       		.sleb128 0
 6454 110e 18       		.uleb128 0x18
 6455 110f 01       		.uleb128 0x1
 6456 1110 53       		.byte	0x53
 6457 1111 02       		.uleb128 0x2
 6458 1112 76       		.byte	0x76
 6459 1113 00       		.sleb128 0
 6460 1114 18       		.uleb128 0x18
 6461 1115 02       		.uleb128 0x2
 6462 1116 7D       		.byte	0x7d
 6463 1117 00       		.sleb128 0
 6464 1118 02       		.uleb128 0x2
 6465 1119 7B       		.byte	0x7b
 6466 111a 00       		.sleb128 0
 6467 111b 00       		.byte	0
 6468 111c 00       		.byte	0
 6469 111d 00       		.byte	0
ARM GAS  C:\Users\boise\AppData\Local\Temp\ccDu5XGS.s 			page 128


 6470 111e 20       		.uleb128 0x20
 6471 111f D4040000 		.4byte	.LASF96
 6472 1123 01       		.byte	0x1
 6473 1124 6A02     		.2byte	0x26a
 6474 1126 00000000 		.4byte	.LFB61
 6475 112a 80000000 		.4byte	.LFE61-.LFB61
 6476 112e 01       		.uleb128 0x1
 6477 112f 9C       		.byte	0x9c
 6478 1130 54110000 		.4byte	0x1154
 6479 1134 15       		.uleb128 0x15
 6480 1135 636800   		.ascii	"ch\000"
 6481 1138 01       		.byte	0x1
 6482 1139 6A02     		.2byte	0x26a
 6483 113b A2000000 		.4byte	0xa2
 6484 113f F70F0000 		.4byte	.LLST85
 6485 1143 19       		.uleb128 0x19
 6486 1144 3A000000 		.4byte	.LVL269
 6487 1148 AE0F0000 		.4byte	0xfae
 6488 114c 18       		.uleb128 0x18
 6489 114d 01       		.uleb128 0x1
 6490 114e 50       		.byte	0x50
 6491 114f 02       		.uleb128 0x2
 6492 1150 75       		.byte	0x75
 6493 1151 00       		.sleb128 0
 6494 1152 00       		.byte	0
 6495 1153 00       		.byte	0
 6496 1154 20       		.uleb128 0x20
 6497 1155 18050000 		.4byte	.LASF97
 6498 1159 01       		.byte	0x1
 6499 115a 7A02     		.2byte	0x27a
 6500 115c 00000000 		.4byte	.LFB62
 6501 1160 1C000000 		.4byte	.LFE62-.LFB62
 6502 1164 01       		.uleb128 0x1
 6503 1165 9C       		.byte	0x9c
 6504 1166 B4110000 		.4byte	0x11b4
 6505 116a 15       		.uleb128 0x15
 6506 116b 7300     		.ascii	"s\000"
 6507 116d 01       		.byte	0x1
 6508 116e 7A02     		.2byte	0x27a
 6509 1170 0A010000 		.4byte	0x10a
 6510 1174 18100000 		.4byte	.LLST86
 6511 1178 12       		.uleb128 0x12
 6512 1179 6C656E00 		.ascii	"len\000"
 6513 117d 01       		.byte	0x1
 6514 117e 7C02     		.2byte	0x27c
 6515 1180 90000000 		.4byte	0x90
 6516 1184 44100000 		.4byte	.LLST87
 6517 1188 12       		.uleb128 0x12
 6518 1189 6900     		.ascii	"i\000"
 6519 118b 01       		.byte	0x1
 6520 118c 7D02     		.2byte	0x27d
 6521 118e 90000000 		.4byte	0x90
 6522 1192 62100000 		.4byte	.LLST88
 6523 1196 17       		.uleb128 0x17
 6524 1197 08000000 		.4byte	.LVL271
 6525 119b 8D130000 		.4byte	0x138d
 6526 119f AA110000 		.4byte	0x11aa
ARM GAS  C:\Users\boise\AppData\Local\Temp\ccDu5XGS.s 			page 129


 6527 11a3 18       		.uleb128 0x18
 6528 11a4 01       		.uleb128 0x1
 6529 11a5 50       		.byte	0x50
 6530 11a6 02       		.uleb128 0x2
 6531 11a7 76       		.byte	0x76
 6532 11a8 00       		.sleb128 0
 6533 11a9 00       		.byte	0
 6534 11aa 1B       		.uleb128 0x1b
 6535 11ab 14000000 		.4byte	.LVL274
 6536 11af 1E110000 		.4byte	0x111e
 6537 11b3 00       		.byte	0
 6538 11b4 20       		.uleb128 0x20
 6539 11b5 C8040000 		.4byte	.LASF98
 6540 11b9 01       		.byte	0x1
 6541 11ba 8302     		.2byte	0x283
 6542 11bc 00000000 		.4byte	.LFB63
 6543 11c0 0E000000 		.4byte	.LFE63-.LFB63
 6544 11c4 01       		.uleb128 0x1
 6545 11c5 9C       		.byte	0x9c
 6546 11c6 FD110000 		.4byte	0x11fd
 6547 11ca 15       		.uleb128 0x15
 6548 11cb 7300     		.ascii	"s\000"
 6549 11cd 01       		.byte	0x1
 6550 11ce 8302     		.2byte	0x283
 6551 11d0 0A010000 		.4byte	0x10a
 6552 11d4 81100000 		.4byte	.LLST89
 6553 11d8 17       		.uleb128 0x17
 6554 11d9 06000000 		.4byte	.LVL280
 6555 11dd 54110000 		.4byte	0x1154
 6556 11e1 ED110000 		.4byte	0x11ed
 6557 11e5 18       		.uleb128 0x18
 6558 11e6 01       		.uleb128 0x1
 6559 11e7 50       		.byte	0x50
 6560 11e8 03       		.uleb128 0x3
 6561 11e9 F3       		.byte	0xf3
 6562 11ea 01       		.uleb128 0x1
 6563 11eb 50       		.byte	0x50
 6564 11ec 00       		.byte	0
 6565 11ed 19       		.uleb128 0x19
 6566 11ee 0C000000 		.4byte	.LVL281
 6567 11f2 1E110000 		.4byte	0x111e
 6568 11f6 18       		.uleb128 0x18
 6569 11f7 01       		.uleb128 0x1
 6570 11f8 50       		.byte	0x50
 6571 11f9 01       		.uleb128 0x1
 6572 11fa 3A       		.byte	0x3a
 6573 11fb 00       		.byte	0
 6574 11fc 00       		.byte	0
 6575 11fd 1E       		.uleb128 0x1e
 6576 11fe 0E120000 		.4byte	0x120e
 6577 1202 0E120000 		.4byte	0x120e
 6578 1206 26       		.uleb128 0x26
 6579 1207 03010000 		.4byte	0x103
 6580 120b FA04     		.2byte	0x4fa
 6581 120d 00       		.byte	0
 6582 120e 07       		.uleb128 0x7
 6583 120f 42000000 		.4byte	0x42
ARM GAS  C:\Users\boise\AppData\Local\Temp\ccDu5XGS.s 			page 130


 6584 1213 1D       		.uleb128 0x1d
 6585 1214 28050000 		.4byte	.LASF99
 6586 1218 06       		.byte	0x6
 6587 1219 05       		.byte	0x5
 6588 121a 24120000 		.4byte	0x1224
 6589 121e 05       		.uleb128 0x5
 6590 121f 03       		.byte	0x3
 6591 1220 24000000 		.4byte	font
 6592 1224 07       		.uleb128 0x7
 6593 1225 FD110000 		.4byte	0x11fd
 6594 1229 1D       		.uleb128 0x1d
 6595 122a 25040000 		.4byte	.LASF100
 6596 122e 01       		.byte	0x1
 6597 122f 5B       		.byte	0x5b
 6598 1230 C3000000 		.4byte	0xc3
 6599 1234 05       		.uleb128 0x5
 6600 1235 03       		.byte	0x3
 6601 1236 00000000 		.4byte	_i2caddr
 6602 123a 1E       		.uleb128 0x1e
 6603 123b A2000000 		.4byte	0xa2
 6604 123f 4B120000 		.4byte	0x124b
 6605 1243 26       		.uleb128 0x26
 6606 1244 03010000 		.4byte	0x103
 6607 1248 0004     		.2byte	0x400
 6608 124a 00       		.byte	0
 6609 124b 1D       		.uleb128 0x1d
 6610 124c 21030000 		.4byte	.LASF101
 6611 1250 01       		.byte	0x1
 6612 1251 5E       		.byte	0x5e
 6613 1252 3A120000 		.4byte	0x123a
 6614 1256 05       		.uleb128 0x5
 6615 1257 03       		.byte	0x3
 6616 1258 00000000 		.4byte	SSD1306_buffer
 6617 125c 1D       		.uleb128 0x1d
 6618 125d FC050000 		.4byte	.LASF102
 6619 1261 01       		.byte	0x1
 6620 1262 60       		.byte	0x60
 6621 1263 6E120000 		.4byte	0x126e
 6622 1267 06       		.uleb128 0x6
 6623 1268 03       		.byte	0x3
 6624 1269 01000000 		.4byte	SSD1306_buffer+1
 6625 126d 9F       		.byte	0x9f
 6626 126e 07       		.uleb128 0x7
 6627 126f 2E030000 		.4byte	0x32e
 6628 1273 27       		.uleb128 0x27
 6629 1274 E0030000 		.4byte	.LASF103
 6630 1278 01       		.byte	0x1
 6631 1279 61       		.byte	0x61
 6632 127a 80120000 		.4byte	0x1280
 6633 127e 0004     		.2byte	0x400
 6634 1280 07       		.uleb128 0x7
 6635 1281 B8000000 		.4byte	0xb8
 6636 1285 21       		.uleb128 0x21
 6637 1286 7B030000 		.4byte	.LASF104
 6638 128a 01       		.byte	0x1
 6639 128b 5201     		.2byte	0x152
 6640 128d AD000000 		.4byte	0xad
ARM GAS  C:\Users\boise\AppData\Local\Temp\ccDu5XGS.s 			page 131


 6641 1291 05       		.uleb128 0x5
 6642 1292 03       		.byte	0x3
 6643 1293 02000000 		.4byte	_width
 6644 1297 21       		.uleb128 0x21
 6645 1298 CC030000 		.4byte	.LASF105
 6646 129c 01       		.byte	0x1
 6647 129d 5201     		.2byte	0x152
 6648 129f AD000000 		.4byte	0xad
 6649 12a3 05       		.uleb128 0x5
 6650 12a4 03       		.byte	0x3
 6651 12a5 04000000 		.4byte	_height
 6652 12a9 21       		.uleb128 0x21
 6653 12aa 35010000 		.4byte	.LASF106
 6654 12ae 01       		.byte	0x1
 6655 12af 5301     		.2byte	0x153
 6656 12b1 AD000000 		.4byte	0xad
 6657 12b5 05       		.uleb128 0x5
 6658 12b6 03       		.byte	0x3
 6659 12b7 06000000 		.4byte	cursor_x
 6660 12bb 21       		.uleb128 0x21
 6661 12bc 3E010000 		.4byte	.LASF107
 6662 12c0 01       		.byte	0x1
 6663 12c1 5301     		.2byte	0x153
 6664 12c3 AD000000 		.4byte	0xad
 6665 12c7 05       		.uleb128 0x5
 6666 12c8 03       		.byte	0x3
 6667 12c9 08000000 		.4byte	cursor_y
 6668 12cd 21       		.uleb128 0x21
 6669 12ce 6B060000 		.4byte	.LASF108
 6670 12d2 01       		.byte	0x1
 6671 12d3 5401     		.2byte	0x154
 6672 12d5 B8000000 		.4byte	0xb8
 6673 12d9 05       		.uleb128 0x5
 6674 12da 03       		.byte	0x3
 6675 12db 0E000000 		.4byte	textcolor
 6676 12df 21       		.uleb128 0x21
 6677 12e0 75060000 		.4byte	.LASF109
 6678 12e4 01       		.byte	0x1
 6679 12e5 5401     		.2byte	0x154
 6680 12e7 B8000000 		.4byte	0xb8
 6681 12eb 05       		.uleb128 0x5
 6682 12ec 03       		.byte	0x3
 6683 12ed 0C000000 		.4byte	textbgcolor
 6684 12f1 21       		.uleb128 0x21
 6685 12f2 58010000 		.4byte	.LASF110
 6686 12f6 01       		.byte	0x1
 6687 12f7 5501     		.2byte	0x155
 6688 12f9 A2000000 		.4byte	0xa2
 6689 12fd 05       		.uleb128 0x5
 6690 12fe 03       		.byte	0x3
 6691 12ff 0A000000 		.4byte	textsize
 6692 1303 28       		.uleb128 0x28
 6693 1304 46020000 		.4byte	.LASF111
 6694 1308 01       		.byte	0x1
 6695 1309 5101     		.2byte	0x151
 6696 130b AD000000 		.4byte	0xad
 6697 130f 05       		.uleb128 0x5
ARM GAS  C:\Users\boise\AppData\Local\Temp\ccDu5XGS.s 			page 132


 6698 1310 03       		.byte	0x3
 6699 1311 00000000 		.4byte	WIDTH
 6700 1315 28       		.uleb128 0x28
 6701 1316 15010000 		.4byte	.LASF112
 6702 131a 01       		.byte	0x1
 6703 131b 5101     		.2byte	0x151
 6704 131d AD000000 		.4byte	0xad
 6705 1321 05       		.uleb128 0x5
 6706 1322 03       		.byte	0x3
 6707 1323 00000000 		.4byte	HEIGHT
 6708 1327 28       		.uleb128 0x28
 6709 1328 81000000 		.4byte	.LASF113
 6710 132c 01       		.byte	0x1
 6711 132d 5601     		.2byte	0x156
 6712 132f A2000000 		.4byte	0xa2
 6713 1333 05       		.uleb128 0x5
 6714 1334 03       		.byte	0x3
 6715 1335 00000000 		.4byte	rotation
 6716 1339 28       		.uleb128 0x28
 6717 133a 69050000 		.4byte	.LASF114
 6718 133e 01       		.byte	0x1
 6719 133f 5701     		.2byte	0x157
 6720 1341 A2000000 		.4byte	0xa2
 6721 1345 05       		.uleb128 0x5
 6722 1346 03       		.byte	0x3
 6723 1347 00000000 		.4byte	wrap
 6724 134b 29       		.uleb128 0x29
 6725 134c 0A040000 		.4byte	.LASF115
 6726 1350 0A040000 		.4byte	.LASF115
 6727 1354 07       		.byte	0x7
 6728 1355 1301     		.2byte	0x113
 6729 1357 29       		.uleb128 0x29
 6730 1358 4F040000 		.4byte	.LASF116
 6731 135c 4F040000 		.4byte	.LASF116
 6732 1360 07       		.byte	0x7
 6733 1361 0F01     		.2byte	0x10f
 6734 1363 29       		.uleb128 0x29
 6735 1364 83040000 		.4byte	.LASF117
 6736 1368 83040000 		.4byte	.LASF117
 6737 136c 07       		.byte	0x7
 6738 136d 1601     		.2byte	0x116
 6739 136f 29       		.uleb128 0x29
 6740 1370 80010000 		.4byte	.LASF118
 6741 1374 80010000 		.4byte	.LASF118
 6742 1378 07       		.byte	0x7
 6743 1379 1001     		.2byte	0x110
 6744 137b 2A       		.uleb128 0x2a
 6745 137c D4030000 		.4byte	.LASF119
 6746 1380 D4030000 		.4byte	.LASF119
 6747 1384 2A       		.uleb128 0x2a
 6748 1385 44060000 		.4byte	.LASF120
 6749 1389 44060000 		.4byte	.LASF120
 6750 138d 2B       		.uleb128 0x2b
 6751 138e 0E000000 		.4byte	.LASF121
 6752 1392 0E000000 		.4byte	.LASF121
 6753 1396 08       		.byte	0x8
 6754 1397 21       		.byte	0x21
ARM GAS  C:\Users\boise\AppData\Local\Temp\ccDu5XGS.s 			page 133


 6755 1398 00       		.byte	0
 6756              		.section	.debug_abbrev,"",%progbits
 6757              	.Ldebug_abbrev0:
 6758 0000 01       		.uleb128 0x1
 6759 0001 11       		.uleb128 0x11
 6760 0002 01       		.byte	0x1
 6761 0003 25       		.uleb128 0x25
 6762 0004 0E       		.uleb128 0xe
 6763 0005 13       		.uleb128 0x13
 6764 0006 0B       		.uleb128 0xb
 6765 0007 03       		.uleb128 0x3
 6766 0008 0E       		.uleb128 0xe
 6767 0009 1B       		.uleb128 0x1b
 6768 000a 0E       		.uleb128 0xe
 6769 000b 55       		.uleb128 0x55
 6770 000c 17       		.uleb128 0x17
 6771 000d 11       		.uleb128 0x11
 6772 000e 01       		.uleb128 0x1
 6773 000f 10       		.uleb128 0x10
 6774 0010 17       		.uleb128 0x17
 6775 0011 00       		.byte	0
 6776 0012 00       		.byte	0
 6777 0013 02       		.uleb128 0x2
 6778 0014 16       		.uleb128 0x16
 6779 0015 00       		.byte	0
 6780 0016 03       		.uleb128 0x3
 6781 0017 0E       		.uleb128 0xe
 6782 0018 3A       		.uleb128 0x3a
 6783 0019 0B       		.uleb128 0xb
 6784 001a 3B       		.uleb128 0x3b
 6785 001b 0B       		.uleb128 0xb
 6786 001c 49       		.uleb128 0x49
 6787 001d 13       		.uleb128 0x13
 6788 001e 00       		.byte	0
 6789 001f 00       		.byte	0
 6790 0020 03       		.uleb128 0x3
 6791 0021 24       		.uleb128 0x24
 6792 0022 00       		.byte	0
 6793 0023 0B       		.uleb128 0xb
 6794 0024 0B       		.uleb128 0xb
 6795 0025 3E       		.uleb128 0x3e
 6796 0026 0B       		.uleb128 0xb
 6797 0027 03       		.uleb128 0x3
 6798 0028 0E       		.uleb128 0xe
 6799 0029 00       		.byte	0
 6800 002a 00       		.byte	0
 6801 002b 04       		.uleb128 0x4
 6802 002c 24       		.uleb128 0x24
 6803 002d 00       		.byte	0
 6804 002e 0B       		.uleb128 0xb
 6805 002f 0B       		.uleb128 0xb
 6806 0030 3E       		.uleb128 0x3e
 6807 0031 0B       		.uleb128 0xb
 6808 0032 03       		.uleb128 0x3
 6809 0033 08       		.uleb128 0x8
 6810 0034 00       		.byte	0
 6811 0035 00       		.byte	0
ARM GAS  C:\Users\boise\AppData\Local\Temp\ccDu5XGS.s 			page 134


 6812 0036 05       		.uleb128 0x5
 6813 0037 16       		.uleb128 0x16
 6814 0038 00       		.byte	0
 6815 0039 03       		.uleb128 0x3
 6816 003a 0E       		.uleb128 0xe
 6817 003b 3A       		.uleb128 0x3a
 6818 003c 0B       		.uleb128 0xb
 6819 003d 3B       		.uleb128 0x3b
 6820 003e 05       		.uleb128 0x5
 6821 003f 49       		.uleb128 0x49
 6822 0040 13       		.uleb128 0x13
 6823 0041 00       		.byte	0
 6824 0042 00       		.byte	0
 6825 0043 06       		.uleb128 0x6
 6826 0044 0F       		.uleb128 0xf
 6827 0045 00       		.byte	0
 6828 0046 0B       		.uleb128 0xb
 6829 0047 0B       		.uleb128 0xb
 6830 0048 49       		.uleb128 0x49
 6831 0049 13       		.uleb128 0x13
 6832 004a 00       		.byte	0
 6833 004b 00       		.byte	0
 6834 004c 07       		.uleb128 0x7
 6835 004d 26       		.uleb128 0x26
 6836 004e 00       		.byte	0
 6837 004f 49       		.uleb128 0x49
 6838 0050 13       		.uleb128 0x13
 6839 0051 00       		.byte	0
 6840 0052 00       		.byte	0
 6841 0053 08       		.uleb128 0x8
 6842 0054 04       		.uleb128 0x4
 6843 0055 01       		.byte	0x1
 6844 0056 0B       		.uleb128 0xb
 6845 0057 0B       		.uleb128 0xb
 6846 0058 49       		.uleb128 0x49
 6847 0059 13       		.uleb128 0x13
 6848 005a 3A       		.uleb128 0x3a
 6849 005b 0B       		.uleb128 0xb
 6850 005c 3B       		.uleb128 0x3b
 6851 005d 0B       		.uleb128 0xb
 6852 005e 01       		.uleb128 0x1
 6853 005f 13       		.uleb128 0x13
 6854 0060 00       		.byte	0
 6855 0061 00       		.byte	0
 6856 0062 09       		.uleb128 0x9
 6857 0063 28       		.uleb128 0x28
 6858 0064 00       		.byte	0
 6859 0065 03       		.uleb128 0x3
 6860 0066 0E       		.uleb128 0xe
 6861 0067 1C       		.uleb128 0x1c
 6862 0068 0B       		.uleb128 0xb
 6863 0069 00       		.byte	0
 6864 006a 00       		.byte	0
 6865 006b 0A       		.uleb128 0xa
 6866 006c 2E       		.uleb128 0x2e
 6867 006d 01       		.byte	0x1
 6868 006e 03       		.uleb128 0x3
ARM GAS  C:\Users\boise\AppData\Local\Temp\ccDu5XGS.s 			page 135


 6869 006f 0E       		.uleb128 0xe
 6870 0070 3A       		.uleb128 0x3a
 6871 0071 0B       		.uleb128 0xb
 6872 0072 3B       		.uleb128 0x3b
 6873 0073 0B       		.uleb128 0xb
 6874 0074 27       		.uleb128 0x27
 6875 0075 19       		.uleb128 0x19
 6876 0076 11       		.uleb128 0x11
 6877 0077 01       		.uleb128 0x1
 6878 0078 12       		.uleb128 0x12
 6879 0079 06       		.uleb128 0x6
 6880 007a 40       		.uleb128 0x40
 6881 007b 18       		.uleb128 0x18
 6882 007c 9742     		.uleb128 0x2117
 6883 007e 19       		.uleb128 0x19
 6884 007f 01       		.uleb128 0x1
 6885 0080 13       		.uleb128 0x13
 6886 0081 00       		.byte	0
 6887 0082 00       		.byte	0
 6888 0083 0B       		.uleb128 0xb
 6889 0084 05       		.uleb128 0x5
 6890 0085 00       		.byte	0
 6891 0086 03       		.uleb128 0x3
 6892 0087 08       		.uleb128 0x8
 6893 0088 3A       		.uleb128 0x3a
 6894 0089 0B       		.uleb128 0xb
 6895 008a 3B       		.uleb128 0x3b
 6896 008b 0B       		.uleb128 0xb
 6897 008c 49       		.uleb128 0x49
 6898 008d 13       		.uleb128 0x13
 6899 008e 02       		.uleb128 0x2
 6900 008f 17       		.uleb128 0x17
 6901 0090 00       		.byte	0
 6902 0091 00       		.byte	0
 6903 0092 0C       		.uleb128 0xc
 6904 0093 05       		.uleb128 0x5
 6905 0094 00       		.byte	0
 6906 0095 03       		.uleb128 0x3
 6907 0096 0E       		.uleb128 0xe
 6908 0097 3A       		.uleb128 0x3a
 6909 0098 0B       		.uleb128 0xb
 6910 0099 3B       		.uleb128 0x3b
 6911 009a 0B       		.uleb128 0xb
 6912 009b 49       		.uleb128 0x49
 6913 009c 13       		.uleb128 0x13
 6914 009d 02       		.uleb128 0x2
 6915 009e 17       		.uleb128 0x17
 6916 009f 00       		.byte	0
 6917 00a0 00       		.byte	0
 6918 00a1 0D       		.uleb128 0xd
 6919 00a2 0B       		.uleb128 0xb
 6920 00a3 01       		.byte	0x1
 6921 00a4 11       		.uleb128 0x11
 6922 00a5 01       		.uleb128 0x1
 6923 00a6 12       		.uleb128 0x12
 6924 00a7 06       		.uleb128 0x6
 6925 00a8 01       		.uleb128 0x1
ARM GAS  C:\Users\boise\AppData\Local\Temp\ccDu5XGS.s 			page 136


 6926 00a9 13       		.uleb128 0x13
 6927 00aa 00       		.byte	0
 6928 00ab 00       		.byte	0
 6929 00ac 0E       		.uleb128 0xe
 6930 00ad 34       		.uleb128 0x34
 6931 00ae 00       		.byte	0
 6932 00af 03       		.uleb128 0x3
 6933 00b0 0E       		.uleb128 0xe
 6934 00b1 3A       		.uleb128 0x3a
 6935 00b2 0B       		.uleb128 0xb
 6936 00b3 3B       		.uleb128 0x3b
 6937 00b4 0B       		.uleb128 0xb
 6938 00b5 49       		.uleb128 0x49
 6939 00b6 13       		.uleb128 0x13
 6940 00b7 02       		.uleb128 0x2
 6941 00b8 17       		.uleb128 0x17
 6942 00b9 00       		.byte	0
 6943 00ba 00       		.byte	0
 6944 00bb 0F       		.uleb128 0xf
 6945 00bc 34       		.uleb128 0x34
 6946 00bd 00       		.byte	0
 6947 00be 03       		.uleb128 0x3
 6948 00bf 08       		.uleb128 0x8
 6949 00c0 3A       		.uleb128 0x3a
 6950 00c1 0B       		.uleb128 0xb
 6951 00c2 3B       		.uleb128 0x3b
 6952 00c3 0B       		.uleb128 0xb
 6953 00c4 49       		.uleb128 0x49
 6954 00c5 13       		.uleb128 0x13
 6955 00c6 02       		.uleb128 0x2
 6956 00c7 17       		.uleb128 0x17
 6957 00c8 00       		.byte	0
 6958 00c9 00       		.byte	0
 6959 00ca 10       		.uleb128 0x10
 6960 00cb 0B       		.uleb128 0xb
 6961 00cc 01       		.byte	0x1
 6962 00cd 11       		.uleb128 0x11
 6963 00ce 01       		.uleb128 0x1
 6964 00cf 12       		.uleb128 0x12
 6965 00d0 06       		.uleb128 0x6
 6966 00d1 00       		.byte	0
 6967 00d2 00       		.byte	0
 6968 00d3 11       		.uleb128 0x11
 6969 00d4 34       		.uleb128 0x34
 6970 00d5 00       		.byte	0
 6971 00d6 03       		.uleb128 0x3
 6972 00d7 0E       		.uleb128 0xe
 6973 00d8 3A       		.uleb128 0x3a
 6974 00d9 0B       		.uleb128 0xb
 6975 00da 3B       		.uleb128 0x3b
 6976 00db 05       		.uleb128 0x5
 6977 00dc 49       		.uleb128 0x49
 6978 00dd 13       		.uleb128 0x13
 6979 00de 02       		.uleb128 0x2
 6980 00df 17       		.uleb128 0x17
 6981 00e0 00       		.byte	0
 6982 00e1 00       		.byte	0
ARM GAS  C:\Users\boise\AppData\Local\Temp\ccDu5XGS.s 			page 137


 6983 00e2 12       		.uleb128 0x12
 6984 00e3 34       		.uleb128 0x34
 6985 00e4 00       		.byte	0
 6986 00e5 03       		.uleb128 0x3
 6987 00e6 08       		.uleb128 0x8
 6988 00e7 3A       		.uleb128 0x3a
 6989 00e8 0B       		.uleb128 0xb
 6990 00e9 3B       		.uleb128 0x3b
 6991 00ea 05       		.uleb128 0x5
 6992 00eb 49       		.uleb128 0x49
 6993 00ec 13       		.uleb128 0x13
 6994 00ed 02       		.uleb128 0x2
 6995 00ee 17       		.uleb128 0x17
 6996 00ef 00       		.byte	0
 6997 00f0 00       		.byte	0
 6998 00f1 13       		.uleb128 0x13
 6999 00f2 2E       		.uleb128 0x2e
 7000 00f3 01       		.byte	0x1
 7001 00f4 03       		.uleb128 0x3
 7002 00f5 0E       		.uleb128 0xe
 7003 00f6 3A       		.uleb128 0x3a
 7004 00f7 0B       		.uleb128 0xb
 7005 00f8 3B       		.uleb128 0x3b
 7006 00f9 05       		.uleb128 0x5
 7007 00fa 27       		.uleb128 0x27
 7008 00fb 19       		.uleb128 0x19
 7009 00fc 11       		.uleb128 0x11
 7010 00fd 01       		.uleb128 0x1
 7011 00fe 12       		.uleb128 0x12
 7012 00ff 06       		.uleb128 0x6
 7013 0100 40       		.uleb128 0x40
 7014 0101 18       		.uleb128 0x18
 7015 0102 9742     		.uleb128 0x2117
 7016 0104 19       		.uleb128 0x19
 7017 0105 01       		.uleb128 0x1
 7018 0106 13       		.uleb128 0x13
 7019 0107 00       		.byte	0
 7020 0108 00       		.byte	0
 7021 0109 14       		.uleb128 0x14
 7022 010a 05       		.uleb128 0x5
 7023 010b 00       		.byte	0
 7024 010c 03       		.uleb128 0x3
 7025 010d 08       		.uleb128 0x8
 7026 010e 3A       		.uleb128 0x3a
 7027 010f 0B       		.uleb128 0xb
 7028 0110 3B       		.uleb128 0x3b
 7029 0111 05       		.uleb128 0x5
 7030 0112 49       		.uleb128 0x49
 7031 0113 13       		.uleb128 0x13
 7032 0114 02       		.uleb128 0x2
 7033 0115 18       		.uleb128 0x18
 7034 0116 00       		.byte	0
 7035 0117 00       		.byte	0
 7036 0118 15       		.uleb128 0x15
 7037 0119 05       		.uleb128 0x5
 7038 011a 00       		.byte	0
 7039 011b 03       		.uleb128 0x3
ARM GAS  C:\Users\boise\AppData\Local\Temp\ccDu5XGS.s 			page 138


 7040 011c 08       		.uleb128 0x8
 7041 011d 3A       		.uleb128 0x3a
 7042 011e 0B       		.uleb128 0xb
 7043 011f 3B       		.uleb128 0x3b
 7044 0120 05       		.uleb128 0x5
 7045 0121 49       		.uleb128 0x49
 7046 0122 13       		.uleb128 0x13
 7047 0123 02       		.uleb128 0x2
 7048 0124 17       		.uleb128 0x17
 7049 0125 00       		.byte	0
 7050 0126 00       		.byte	0
 7051 0127 16       		.uleb128 0x16
 7052 0128 05       		.uleb128 0x5
 7053 0129 00       		.byte	0
 7054 012a 03       		.uleb128 0x3
 7055 012b 0E       		.uleb128 0xe
 7056 012c 3A       		.uleb128 0x3a
 7057 012d 0B       		.uleb128 0xb
 7058 012e 3B       		.uleb128 0x3b
 7059 012f 05       		.uleb128 0x5
 7060 0130 49       		.uleb128 0x49
 7061 0131 13       		.uleb128 0x13
 7062 0132 02       		.uleb128 0x2
 7063 0133 17       		.uleb128 0x17
 7064 0134 00       		.byte	0
 7065 0135 00       		.byte	0
 7066 0136 17       		.uleb128 0x17
 7067 0137 898201   		.uleb128 0x4109
 7068 013a 01       		.byte	0x1
 7069 013b 11       		.uleb128 0x11
 7070 013c 01       		.uleb128 0x1
 7071 013d 31       		.uleb128 0x31
 7072 013e 13       		.uleb128 0x13
 7073 013f 01       		.uleb128 0x1
 7074 0140 13       		.uleb128 0x13
 7075 0141 00       		.byte	0
 7076 0142 00       		.byte	0
 7077 0143 18       		.uleb128 0x18
 7078 0144 8A8201   		.uleb128 0x410a
 7079 0147 00       		.byte	0
 7080 0148 02       		.uleb128 0x2
 7081 0149 18       		.uleb128 0x18
 7082 014a 9142     		.uleb128 0x2111
 7083 014c 18       		.uleb128 0x18
 7084 014d 00       		.byte	0
 7085 014e 00       		.byte	0
 7086 014f 19       		.uleb128 0x19
 7087 0150 898201   		.uleb128 0x4109
 7088 0153 01       		.byte	0x1
 7089 0154 11       		.uleb128 0x11
 7090 0155 01       		.uleb128 0x1
 7091 0156 31       		.uleb128 0x31
 7092 0157 13       		.uleb128 0x13
 7093 0158 00       		.byte	0
 7094 0159 00       		.byte	0
 7095 015a 1A       		.uleb128 0x1a
 7096 015b 2E       		.uleb128 0x2e
ARM GAS  C:\Users\boise\AppData\Local\Temp\ccDu5XGS.s 			page 139


 7097 015c 01       		.byte	0x1
 7098 015d 03       		.uleb128 0x3
 7099 015e 0E       		.uleb128 0xe
 7100 015f 3A       		.uleb128 0x3a
 7101 0160 0B       		.uleb128 0xb
 7102 0161 3B       		.uleb128 0x3b
 7103 0162 0B       		.uleb128 0xb
 7104 0163 27       		.uleb128 0x27
 7105 0164 19       		.uleb128 0x19
 7106 0165 49       		.uleb128 0x49
 7107 0166 13       		.uleb128 0x13
 7108 0167 11       		.uleb128 0x11
 7109 0168 01       		.uleb128 0x1
 7110 0169 12       		.uleb128 0x12
 7111 016a 06       		.uleb128 0x6
 7112 016b 40       		.uleb128 0x40
 7113 016c 18       		.uleb128 0x18
 7114 016d 9742     		.uleb128 0x2117
 7115 016f 19       		.uleb128 0x19
 7116 0170 01       		.uleb128 0x1
 7117 0171 13       		.uleb128 0x13
 7118 0172 00       		.byte	0
 7119 0173 00       		.byte	0
 7120 0174 1B       		.uleb128 0x1b
 7121 0175 898201   		.uleb128 0x4109
 7122 0178 00       		.byte	0
 7123 0179 11       		.uleb128 0x11
 7124 017a 01       		.uleb128 0x1
 7125 017b 31       		.uleb128 0x31
 7126 017c 13       		.uleb128 0x13
 7127 017d 00       		.byte	0
 7128 017e 00       		.byte	0
 7129 017f 1C       		.uleb128 0x1c
 7130 0180 2E       		.uleb128 0x2e
 7131 0181 01       		.byte	0x1
 7132 0182 3F       		.uleb128 0x3f
 7133 0183 19       		.uleb128 0x19
 7134 0184 03       		.uleb128 0x3
 7135 0185 0E       		.uleb128 0xe
 7136 0186 3A       		.uleb128 0x3a
 7137 0187 0B       		.uleb128 0xb
 7138 0188 3B       		.uleb128 0x3b
 7139 0189 0B       		.uleb128 0xb
 7140 018a 27       		.uleb128 0x27
 7141 018b 19       		.uleb128 0x19
 7142 018c 11       		.uleb128 0x11
 7143 018d 01       		.uleb128 0x1
 7144 018e 12       		.uleb128 0x12
 7145 018f 06       		.uleb128 0x6
 7146 0190 40       		.uleb128 0x40
 7147 0191 18       		.uleb128 0x18
 7148 0192 9742     		.uleb128 0x2117
 7149 0194 19       		.uleb128 0x19
 7150 0195 01       		.uleb128 0x1
 7151 0196 13       		.uleb128 0x13
 7152 0197 00       		.byte	0
 7153 0198 00       		.byte	0
ARM GAS  C:\Users\boise\AppData\Local\Temp\ccDu5XGS.s 			page 140


 7154 0199 1D       		.uleb128 0x1d
 7155 019a 34       		.uleb128 0x34
 7156 019b 00       		.byte	0
 7157 019c 03       		.uleb128 0x3
 7158 019d 0E       		.uleb128 0xe
 7159 019e 3A       		.uleb128 0x3a
 7160 019f 0B       		.uleb128 0xb
 7161 01a0 3B       		.uleb128 0x3b
 7162 01a1 0B       		.uleb128 0xb
 7163 01a2 49       		.uleb128 0x49
 7164 01a3 13       		.uleb128 0x13
 7165 01a4 02       		.uleb128 0x2
 7166 01a5 18       		.uleb128 0x18
 7167 01a6 00       		.byte	0
 7168 01a7 00       		.byte	0
 7169 01a8 1E       		.uleb128 0x1e
 7170 01a9 01       		.uleb128 0x1
 7171 01aa 01       		.byte	0x1
 7172 01ab 49       		.uleb128 0x49
 7173 01ac 13       		.uleb128 0x13
 7174 01ad 01       		.uleb128 0x1
 7175 01ae 13       		.uleb128 0x13
 7176 01af 00       		.byte	0
 7177 01b0 00       		.byte	0
 7178 01b1 1F       		.uleb128 0x1f
 7179 01b2 21       		.uleb128 0x21
 7180 01b3 00       		.byte	0
 7181 01b4 49       		.uleb128 0x49
 7182 01b5 13       		.uleb128 0x13
 7183 01b6 2F       		.uleb128 0x2f
 7184 01b7 0B       		.uleb128 0xb
 7185 01b8 00       		.byte	0
 7186 01b9 00       		.byte	0
 7187 01ba 20       		.uleb128 0x20
 7188 01bb 2E       		.uleb128 0x2e
 7189 01bc 01       		.byte	0x1
 7190 01bd 3F       		.uleb128 0x3f
 7191 01be 19       		.uleb128 0x19
 7192 01bf 03       		.uleb128 0x3
 7193 01c0 0E       		.uleb128 0xe
 7194 01c1 3A       		.uleb128 0x3a
 7195 01c2 0B       		.uleb128 0xb
 7196 01c3 3B       		.uleb128 0x3b
 7197 01c4 05       		.uleb128 0x5
 7198 01c5 27       		.uleb128 0x27
 7199 01c6 19       		.uleb128 0x19
 7200 01c7 11       		.uleb128 0x11
 7201 01c8 01       		.uleb128 0x1
 7202 01c9 12       		.uleb128 0x12
 7203 01ca 06       		.uleb128 0x6
 7204 01cb 40       		.uleb128 0x40
 7205 01cc 18       		.uleb128 0x18
 7206 01cd 9742     		.uleb128 0x2117
 7207 01cf 19       		.uleb128 0x19
 7208 01d0 01       		.uleb128 0x1
 7209 01d1 13       		.uleb128 0x13
 7210 01d2 00       		.byte	0
ARM GAS  C:\Users\boise\AppData\Local\Temp\ccDu5XGS.s 			page 141


 7211 01d3 00       		.byte	0
 7212 01d4 21       		.uleb128 0x21
 7213 01d5 34       		.uleb128 0x34
 7214 01d6 00       		.byte	0
 7215 01d7 03       		.uleb128 0x3
 7216 01d8 0E       		.uleb128 0xe
 7217 01d9 3A       		.uleb128 0x3a
 7218 01da 0B       		.uleb128 0xb
 7219 01db 3B       		.uleb128 0x3b
 7220 01dc 05       		.uleb128 0x5
 7221 01dd 49       		.uleb128 0x49
 7222 01de 13       		.uleb128 0x13
 7223 01df 02       		.uleb128 0x2
 7224 01e0 18       		.uleb128 0x18
 7225 01e1 00       		.byte	0
 7226 01e2 00       		.byte	0
 7227 01e3 22       		.uleb128 0x22
 7228 01e4 05       		.uleb128 0x5
 7229 01e5 00       		.byte	0
 7230 01e6 03       		.uleb128 0x3
 7231 01e7 0E       		.uleb128 0xe
 7232 01e8 3A       		.uleb128 0x3a
 7233 01e9 0B       		.uleb128 0xb
 7234 01ea 3B       		.uleb128 0x3b
 7235 01eb 05       		.uleb128 0x5
 7236 01ec 49       		.uleb128 0x49
 7237 01ed 13       		.uleb128 0x13
 7238 01ee 02       		.uleb128 0x2
 7239 01ef 18       		.uleb128 0x18
 7240 01f0 00       		.byte	0
 7241 01f1 00       		.byte	0
 7242 01f2 23       		.uleb128 0x23
 7243 01f3 2E       		.uleb128 0x2e
 7244 01f4 00       		.byte	0
 7245 01f5 3F       		.uleb128 0x3f
 7246 01f6 19       		.uleb128 0x19
 7247 01f7 03       		.uleb128 0x3
 7248 01f8 0E       		.uleb128 0xe
 7249 01f9 3A       		.uleb128 0x3a
 7250 01fa 0B       		.uleb128 0xb
 7251 01fb 3B       		.uleb128 0x3b
 7252 01fc 05       		.uleb128 0x5
 7253 01fd 27       		.uleb128 0x27
 7254 01fe 19       		.uleb128 0x19
 7255 01ff 49       		.uleb128 0x49
 7256 0200 13       		.uleb128 0x13
 7257 0201 11       		.uleb128 0x11
 7258 0202 01       		.uleb128 0x1
 7259 0203 12       		.uleb128 0x12
 7260 0204 06       		.uleb128 0x6
 7261 0205 40       		.uleb128 0x40
 7262 0206 18       		.uleb128 0x18
 7263 0207 9742     		.uleb128 0x2117
 7264 0209 19       		.uleb128 0x19
 7265 020a 00       		.byte	0
 7266 020b 00       		.byte	0
 7267 020c 24       		.uleb128 0x24
ARM GAS  C:\Users\boise\AppData\Local\Temp\ccDu5XGS.s 			page 142


 7268 020d 34       		.uleb128 0x34
 7269 020e 00       		.byte	0
 7270 020f 03       		.uleb128 0x3
 7271 0210 08       		.uleb128 0x8
 7272 0211 3A       		.uleb128 0x3a
 7273 0212 0B       		.uleb128 0xb
 7274 0213 3B       		.uleb128 0x3b
 7275 0214 05       		.uleb128 0x5
 7276 0215 49       		.uleb128 0x49
 7277 0216 13       		.uleb128 0x13
 7278 0217 00       		.byte	0
 7279 0218 00       		.byte	0
 7280 0219 25       		.uleb128 0x25
 7281 021a 34       		.uleb128 0x34
 7282 021b 00       		.byte	0
 7283 021c 03       		.uleb128 0x3
 7284 021d 08       		.uleb128 0x8
 7285 021e 3A       		.uleb128 0x3a
 7286 021f 0B       		.uleb128 0xb
 7287 0220 3B       		.uleb128 0x3b
 7288 0221 05       		.uleb128 0x5
 7289 0222 49       		.uleb128 0x49
 7290 0223 13       		.uleb128 0x13
 7291 0224 02       		.uleb128 0x2
 7292 0225 18       		.uleb128 0x18
 7293 0226 00       		.byte	0
 7294 0227 00       		.byte	0
 7295 0228 26       		.uleb128 0x26
 7296 0229 21       		.uleb128 0x21
 7297 022a 00       		.byte	0
 7298 022b 49       		.uleb128 0x49
 7299 022c 13       		.uleb128 0x13
 7300 022d 2F       		.uleb128 0x2f
 7301 022e 05       		.uleb128 0x5
 7302 022f 00       		.byte	0
 7303 0230 00       		.byte	0
 7304 0231 27       		.uleb128 0x27
 7305 0232 34       		.uleb128 0x34
 7306 0233 00       		.byte	0
 7307 0234 03       		.uleb128 0x3
 7308 0235 0E       		.uleb128 0xe
 7309 0236 3A       		.uleb128 0x3a
 7310 0237 0B       		.uleb128 0xb
 7311 0238 3B       		.uleb128 0x3b
 7312 0239 0B       		.uleb128 0xb
 7313 023a 49       		.uleb128 0x49
 7314 023b 13       		.uleb128 0x13
 7315 023c 1C       		.uleb128 0x1c
 7316 023d 05       		.uleb128 0x5
 7317 023e 00       		.byte	0
 7318 023f 00       		.byte	0
 7319 0240 28       		.uleb128 0x28
 7320 0241 34       		.uleb128 0x34
 7321 0242 00       		.byte	0
 7322 0243 03       		.uleb128 0x3
 7323 0244 0E       		.uleb128 0xe
 7324 0245 3A       		.uleb128 0x3a
ARM GAS  C:\Users\boise\AppData\Local\Temp\ccDu5XGS.s 			page 143


 7325 0246 0B       		.uleb128 0xb
 7326 0247 3B       		.uleb128 0x3b
 7327 0248 05       		.uleb128 0x5
 7328 0249 49       		.uleb128 0x49
 7329 024a 13       		.uleb128 0x13
 7330 024b 3F       		.uleb128 0x3f
 7331 024c 19       		.uleb128 0x19
 7332 024d 02       		.uleb128 0x2
 7333 024e 18       		.uleb128 0x18
 7334 024f 00       		.byte	0
 7335 0250 00       		.byte	0
 7336 0251 29       		.uleb128 0x29
 7337 0252 2E       		.uleb128 0x2e
 7338 0253 00       		.byte	0
 7339 0254 3F       		.uleb128 0x3f
 7340 0255 19       		.uleb128 0x19
 7341 0256 3C       		.uleb128 0x3c
 7342 0257 19       		.uleb128 0x19
 7343 0258 6E       		.uleb128 0x6e
 7344 0259 0E       		.uleb128 0xe
 7345 025a 03       		.uleb128 0x3
 7346 025b 0E       		.uleb128 0xe
 7347 025c 3A       		.uleb128 0x3a
 7348 025d 0B       		.uleb128 0xb
 7349 025e 3B       		.uleb128 0x3b
 7350 025f 05       		.uleb128 0x5
 7351 0260 00       		.byte	0
 7352 0261 00       		.byte	0
 7353 0262 2A       		.uleb128 0x2a
 7354 0263 2E       		.uleb128 0x2e
 7355 0264 00       		.byte	0
 7356 0265 3F       		.uleb128 0x3f
 7357 0266 19       		.uleb128 0x19
 7358 0267 3C       		.uleb128 0x3c
 7359 0268 19       		.uleb128 0x19
 7360 0269 6E       		.uleb128 0x6e
 7361 026a 0E       		.uleb128 0xe
 7362 026b 03       		.uleb128 0x3
 7363 026c 0E       		.uleb128 0xe
 7364 026d 00       		.byte	0
 7365 026e 00       		.byte	0
 7366 026f 2B       		.uleb128 0x2b
 7367 0270 2E       		.uleb128 0x2e
 7368 0271 00       		.byte	0
 7369 0272 3F       		.uleb128 0x3f
 7370 0273 19       		.uleb128 0x19
 7371 0274 3C       		.uleb128 0x3c
 7372 0275 19       		.uleb128 0x19
 7373 0276 6E       		.uleb128 0x6e
 7374 0277 0E       		.uleb128 0xe
 7375 0278 03       		.uleb128 0x3
 7376 0279 0E       		.uleb128 0xe
 7377 027a 3A       		.uleb128 0x3a
 7378 027b 0B       		.uleb128 0xb
 7379 027c 3B       		.uleb128 0x3b
 7380 027d 0B       		.uleb128 0xb
 7381 027e 00       		.byte	0
ARM GAS  C:\Users\boise\AppData\Local\Temp\ccDu5XGS.s 			page 144


 7382 027f 00       		.byte	0
 7383 0280 00       		.byte	0
 7384              		.section	.debug_loc,"",%progbits
 7385              	.Ldebug_loc0:
 7386              	.LLST0:
 7387 0000 00000000 		.4byte	.LVL0
 7388 0004 2A000000 		.4byte	.LVL2
 7389 0008 0100     		.2byte	0x1
 7390 000a 50       		.byte	0x50
 7391 000b 2A000000 		.4byte	.LVL2
 7392 000f 40000000 		.4byte	.LVL4
 7393 0013 0400     		.2byte	0x4
 7394 0015 F3       		.byte	0xf3
 7395 0016 01       		.uleb128 0x1
 7396 0017 50       		.byte	0x50
 7397 0018 9F       		.byte	0x9f
 7398 0019 40000000 		.4byte	.LVL4
 7399 001d 4E000000 		.4byte	.LVL6
 7400 0021 0100     		.2byte	0x1
 7401 0023 50       		.byte	0x50
 7402 0024 4E000000 		.4byte	.LVL6
 7403 0028 64000000 		.4byte	.LVL8
 7404 002c 0400     		.2byte	0x4
 7405 002e F3       		.byte	0xf3
 7406 002f 01       		.uleb128 0x1
 7407 0030 50       		.byte	0x50
 7408 0031 9F       		.byte	0x9f
 7409 0032 64000000 		.4byte	.LVL8
 7410 0036 72000000 		.4byte	.LVL10
 7411 003a 0100     		.2byte	0x1
 7412 003c 50       		.byte	0x50
 7413 003d 72000000 		.4byte	.LVL10
 7414 0041 8C000000 		.4byte	.LFE34
 7415 0045 0400     		.2byte	0x4
 7416 0047 F3       		.byte	0xf3
 7417 0048 01       		.uleb128 0x1
 7418 0049 50       		.byte	0x50
 7419 004a 9F       		.byte	0x9f
 7420 004b 00000000 		.4byte	0
 7421 004f 00000000 		.4byte	0
 7422              	.LLST1:
 7423 0053 00000000 		.4byte	.LVL0
 7424 0057 34000000 		.4byte	.LVL3
 7425 005b 0100     		.2byte	0x1
 7426 005d 51       		.byte	0x51
 7427 005e 34000000 		.4byte	.LVL3
 7428 0062 40000000 		.4byte	.LVL4
 7429 0066 0400     		.2byte	0x4
 7430 0068 F3       		.byte	0xf3
 7431 0069 01       		.uleb128 0x1
 7432 006a 51       		.byte	0x51
 7433 006b 9F       		.byte	0x9f
 7434 006c 40000000 		.4byte	.LVL4
 7435 0070 58000000 		.4byte	.LVL7
 7436 0074 0100     		.2byte	0x1
 7437 0076 51       		.byte	0x51
 7438 0077 58000000 		.4byte	.LVL7
ARM GAS  C:\Users\boise\AppData\Local\Temp\ccDu5XGS.s 			page 145


 7439 007b 64000000 		.4byte	.LVL8
 7440 007f 0400     		.2byte	0x4
 7441 0081 F3       		.byte	0xf3
 7442 0082 01       		.uleb128 0x1
 7443 0083 51       		.byte	0x51
 7444 0084 9F       		.byte	0x9f
 7445 0085 64000000 		.4byte	.LVL8
 7446 0089 7C000000 		.4byte	.LVL11
 7447 008d 0100     		.2byte	0x1
 7448 008f 51       		.byte	0x51
 7449 0090 7C000000 		.4byte	.LVL11
 7450 0094 8C000000 		.4byte	.LFE34
 7451 0098 0400     		.2byte	0x4
 7452 009a F3       		.byte	0xf3
 7453 009b 01       		.uleb128 0x1
 7454 009c 51       		.byte	0x51
 7455 009d 9F       		.byte	0x9f
 7456 009e 00000000 		.4byte	0
 7457 00a2 00000000 		.4byte	0
 7458              	.LLST2:
 7459 00a6 00000000 		.4byte	.LVL0
 7460 00aa 20000000 		.4byte	.LVL1
 7461 00ae 0100     		.2byte	0x1
 7462 00b0 52       		.byte	0x52
 7463 00b1 20000000 		.4byte	.LVL1
 7464 00b5 40000000 		.4byte	.LVL4
 7465 00b9 0400     		.2byte	0x4
 7466 00bb F3       		.byte	0xf3
 7467 00bc 01       		.uleb128 0x1
 7468 00bd 52       		.byte	0x52
 7469 00be 9F       		.byte	0x9f
 7470 00bf 40000000 		.4byte	.LVL4
 7471 00c3 44000000 		.4byte	.LVL5
 7472 00c7 0100     		.2byte	0x1
 7473 00c9 52       		.byte	0x52
 7474 00ca 44000000 		.4byte	.LVL5
 7475 00ce 64000000 		.4byte	.LVL8
 7476 00d2 0400     		.2byte	0x4
 7477 00d4 F3       		.byte	0xf3
 7478 00d5 01       		.uleb128 0x1
 7479 00d6 52       		.byte	0x52
 7480 00d7 9F       		.byte	0x9f
 7481 00d8 64000000 		.4byte	.LVL8
 7482 00dc 68000000 		.4byte	.LVL9
 7483 00e0 0100     		.2byte	0x1
 7484 00e2 52       		.byte	0x52
 7485 00e3 68000000 		.4byte	.LVL9
 7486 00e7 8C000000 		.4byte	.LFE34
 7487 00eb 0400     		.2byte	0x4
 7488 00ed F3       		.byte	0xf3
 7489 00ee 01       		.uleb128 0x1
 7490 00ef 52       		.byte	0x52
 7491 00f0 9F       		.byte	0x9f
 7492 00f1 00000000 		.4byte	0
 7493 00f5 00000000 		.4byte	0
 7494              	.LLST3:
 7495 00f9 00000000 		.4byte	.LVL12
ARM GAS  C:\Users\boise\AppData\Local\Temp\ccDu5XGS.s 			page 146


 7496 00fd 1C000000 		.4byte	.LVL14
 7497 0101 0100     		.2byte	0x1
 7498 0103 50       		.byte	0x50
 7499 0104 1C000000 		.4byte	.LVL14
 7500 0108 EE000000 		.4byte	.LVL29
 7501 010c 0400     		.2byte	0x4
 7502 010e F3       		.byte	0xf3
 7503 010f 01       		.uleb128 0x1
 7504 0110 50       		.byte	0x50
 7505 0111 9F       		.byte	0x9f
 7506 0112 EE000000 		.4byte	.LVL29
 7507 0116 08010000 		.4byte	.LVL35
 7508 011a 0100     		.2byte	0x1
 7509 011c 50       		.byte	0x50
 7510 011d 08010000 		.4byte	.LVL35
 7511 0121 4C010000 		.4byte	.LFE39
 7512 0125 0400     		.2byte	0x4
 7513 0127 F3       		.byte	0xf3
 7514 0128 01       		.uleb128 0x1
 7515 0129 50       		.byte	0x50
 7516 012a 9F       		.byte	0x9f
 7517 012b 00000000 		.4byte	0
 7518 012f 00000000 		.4byte	0
 7519              	.LLST4:
 7520 0133 00000000 		.4byte	.LVL12
 7521 0137 0A010000 		.4byte	.LVL36
 7522 013b 0100     		.2byte	0x1
 7523 013d 51       		.byte	0x51
 7524 013e 0A010000 		.4byte	.LVL36
 7525 0142 4C010000 		.4byte	.LFE39
 7526 0146 0400     		.2byte	0x4
 7527 0148 F3       		.byte	0xf3
 7528 0149 01       		.uleb128 0x1
 7529 014a 51       		.byte	0x51
 7530 014b 9F       		.byte	0x9f
 7531 014c 00000000 		.4byte	0
 7532 0150 00000000 		.4byte	0
 7533              	.LLST5:
 7534 0154 00000000 		.4byte	.LVL12
 7535 0158 2E000000 		.4byte	.LVL17
 7536 015c 0100     		.2byte	0x1
 7537 015e 52       		.byte	0x52
 7538 015f 2E000000 		.4byte	.LVL17
 7539 0163 EE000000 		.4byte	.LVL29
 7540 0167 0400     		.2byte	0x4
 7541 0169 F3       		.byte	0xf3
 7542 016a 01       		.uleb128 0x1
 7543 016b 52       		.byte	0x52
 7544 016c 9F       		.byte	0x9f
 7545 016d EE000000 		.4byte	.LVL29
 7546 0171 04010000 		.4byte	.LVL33
 7547 0175 0100     		.2byte	0x1
 7548 0177 52       		.byte	0x52
 7549 0178 04010000 		.4byte	.LVL33
 7550 017c 4C010000 		.4byte	.LFE39
 7551 0180 0400     		.2byte	0x4
 7552 0182 F3       		.byte	0xf3
ARM GAS  C:\Users\boise\AppData\Local\Temp\ccDu5XGS.s 			page 147


 7553 0183 01       		.uleb128 0x1
 7554 0184 52       		.byte	0x52
 7555 0185 9F       		.byte	0x9f
 7556 0186 00000000 		.4byte	0
 7557 018a 00000000 		.4byte	0
 7558              	.LLST6:
 7559 018e 00000000 		.4byte	.LVL12
 7560 0192 F0000000 		.4byte	.LVL30
 7561 0196 0100     		.2byte	0x1
 7562 0198 53       		.byte	0x53
 7563 0199 F0000000 		.4byte	.LVL30
 7564 019d 4C010000 		.4byte	.LFE39
 7565 01a1 0400     		.2byte	0x4
 7566 01a3 F3       		.byte	0xf3
 7567 01a4 01       		.uleb128 0x1
 7568 01a5 53       		.byte	0x53
 7569 01a6 9F       		.byte	0x9f
 7570 01a7 00000000 		.4byte	0
 7571 01ab 00000000 		.4byte	0
 7572              	.LLST7:
 7573 01af 00000000 		.4byte	.LVL12
 7574 01b3 08000000 		.4byte	.LVL13
 7575 01b7 0200     		.2byte	0x2
 7576 01b9 91       		.byte	0x91
 7577 01ba 00       		.sleb128 0
 7578 01bb 08000000 		.4byte	.LVL13
 7579 01bf 24000000 		.4byte	.LVL16
 7580 01c3 0200     		.2byte	0x2
 7581 01c5 74       		.byte	0x74
 7582 01c6 00       		.sleb128 0
 7583 01c7 24000000 		.4byte	.LVL16
 7584 01cb EE000000 		.4byte	.LVL29
 7585 01cf 0200     		.2byte	0x2
 7586 01d1 91       		.byte	0x91
 7587 01d2 00       		.sleb128 0
 7588 01d3 EE000000 		.4byte	.LVL29
 7589 01d7 F2000000 		.4byte	.LVL31
 7590 01db 0200     		.2byte	0x2
 7591 01dd 74       		.byte	0x74
 7592 01de 00       		.sleb128 0
 7593 01df F2000000 		.4byte	.LVL31
 7594 01e3 4C010000 		.4byte	.LFE39
 7595 01e7 0200     		.2byte	0x2
 7596 01e9 91       		.byte	0x91
 7597 01ea 00       		.sleb128 0
 7598 01eb 00000000 		.4byte	0
 7599 01ef 00000000 		.4byte	0
 7600              	.LLST8:
 7601 01f3 22000000 		.4byte	.LVL15
 7602 01f7 EE000000 		.4byte	.LVL29
 7603 01fb 0100     		.2byte	0x1
 7604 01fd 50       		.byte	0x50
 7605 01fe 00000000 		.4byte	0
 7606 0202 00000000 		.4byte	0
 7607              	.LLST9:
 7608 0206 30000000 		.4byte	.LVL18
 7609 020a EE000000 		.4byte	.LVL29
ARM GAS  C:\Users\boise\AppData\Local\Temp\ccDu5XGS.s 			page 148


 7610 020e 0100     		.2byte	0x1
 7611 0210 52       		.byte	0x52
 7612 0211 00000000 		.4byte	0
 7613 0215 00000000 		.4byte	0
 7614              	.LLST10:
 7615 0219 30000000 		.4byte	.LVL18
 7616 021d 34000000 		.4byte	.LVL19
 7617 0221 0100     		.2byte	0x1
 7618 0223 50       		.byte	0x50
 7619 0224 34000000 		.4byte	.LVL19
 7620 0228 EE000000 		.4byte	.LVL29
 7621 022c 0100     		.2byte	0x1
 7622 022e 54       		.byte	0x54
 7623 022f 00000000 		.4byte	0
 7624 0233 00000000 		.4byte	0
 7625              	.LLST11:
 7626 0237 34000000 		.4byte	.LVL19
 7627 023b EE000000 		.4byte	.LVL29
 7628 023f 0100     		.2byte	0x1
 7629 0241 5C       		.byte	0x5c
 7630 0242 00000000 		.4byte	0
 7631 0246 00000000 		.4byte	0
 7632              	.LLST12:
 7633 024a 4C000000 		.4byte	.LVL20
 7634 024e 4E000000 		.4byte	.LVL21
 7635 0252 0100     		.2byte	0x1
 7636 0254 56       		.byte	0x56
 7637 0255 4E000000 		.4byte	.LVL21
 7638 0259 70000000 		.4byte	.LVL26
 7639 025d 0100     		.2byte	0x1
 7640 025f 58       		.byte	0x58
 7641 0260 00000000 		.4byte	0
 7642 0264 00000000 		.4byte	0
 7643              	.LLST13:
 7644 0268 52000000 		.4byte	.LVL22
 7645 026c 5C000000 		.4byte	.LVL24
 7646 0270 0100     		.2byte	0x1
 7647 0272 56       		.byte	0x56
 7648 0273 00000000 		.4byte	0
 7649 0277 00000000 		.4byte	0
 7650              	.LLST14:
 7651 027b 02010000 		.4byte	.LVL32
 7652 027f 12010000 		.4byte	.LVL38
 7653 0283 0100     		.2byte	0x1
 7654 0285 53       		.byte	0x53
 7655 0286 00000000 		.4byte	0
 7656 028a 00000000 		.4byte	0
 7657              	.LLST15:
 7658 028e 06010000 		.4byte	.LVL34
 7659 0292 3C010000 		.4byte	.LVL40
 7660 0296 0100     		.2byte	0x1
 7661 0298 52       		.byte	0x52
 7662 0299 00000000 		.4byte	0
 7663 029d 00000000 		.4byte	0
 7664              	.LLST16:
 7665 02a1 10010000 		.4byte	.LVL37
 7666 02a5 3C010000 		.4byte	.LVL40
ARM GAS  C:\Users\boise\AppData\Local\Temp\ccDu5XGS.s 			page 149


 7667 02a9 0100     		.2byte	0x1
 7668 02ab 54       		.byte	0x54
 7669 02ac 00000000 		.4byte	0
 7670 02b0 00000000 		.4byte	0
 7671              	.LLST17:
 7672 02b4 10010000 		.4byte	.LVL37
 7673 02b8 3C010000 		.4byte	.LVL40
 7674 02bc 0100     		.2byte	0x1
 7675 02be 53       		.byte	0x53
 7676 02bf 00000000 		.4byte	0
 7677 02c3 00000000 		.4byte	0
 7678              	.LLST18:
 7679 02c7 06000000 		.4byte	.LVL42
 7680 02cb 22000000 		.4byte	.LVL43
 7681 02cf 0100     		.2byte	0x1
 7682 02d1 52       		.byte	0x52
 7683 02d2 28000000 		.4byte	.LVL44
 7684 02d6 2C000000 		.4byte	.LVL45
 7685 02da 0100     		.2byte	0x1
 7686 02dc 52       		.byte	0x52
 7687 02dd 2C000000 		.4byte	.LVL45
 7688 02e1 36000000 		.4byte	.LVL46
 7689 02e5 0200     		.2byte	0x2
 7690 02e7 71       		.byte	0x71
 7691 02e8 00       		.sleb128 0
 7692 02e9 46000000 		.4byte	.LVL47
 7693 02ed 56000000 		.4byte	.LVL48
 7694 02f1 0100     		.2byte	0x1
 7695 02f3 52       		.byte	0x52
 7696 02f4 00000000 		.4byte	0
 7697 02f8 00000000 		.4byte	0
 7698              	.LLST19:
 7699 02fc 00000000 		.4byte	.LVL49
 7700 0300 B8000000 		.4byte	.LVL68
 7701 0304 0100     		.2byte	0x1
 7702 0306 50       		.byte	0x50
 7703 0307 B8000000 		.4byte	.LVL68
 7704 030b FA000000 		.4byte	.LVL83
 7705 030f 0200     		.2byte	0x2
 7706 0311 91       		.byte	0x91
 7707 0312 6E       		.sleb128 -18
 7708 0313 FA000000 		.4byte	.LVL83
 7709 0317 FC000000 		.4byte	.LVL84
 7710 031b 0800     		.2byte	0x8
 7711 031d 71       		.byte	0x71
 7712 031e 00       		.sleb128 0
 7713 031f 91       		.byte	0x91
 7714 0320 00       		.sleb128 0
 7715 0321 22       		.byte	0x22
 7716 0322 08       		.byte	0x8
 7717 0323 20       		.byte	0x20
 7718 0324 1C       		.byte	0x1c
 7719 0325 FC000000 		.4byte	.LVL84
 7720 0329 28010000 		.4byte	.LVL97
 7721 032d 0200     		.2byte	0x2
 7722 032f 91       		.byte	0x91
 7723 0330 6E       		.sleb128 -18
ARM GAS  C:\Users\boise\AppData\Local\Temp\ccDu5XGS.s 			page 150


 7724 0331 28010000 		.4byte	.LVL97
 7725 0335 2A010000 		.4byte	.LVL98
 7726 0339 0800     		.2byte	0x8
 7727 033b 70       		.byte	0x70
 7728 033c 00       		.sleb128 0
 7729 033d 91       		.byte	0x91
 7730 033e 00       		.sleb128 0
 7731 033f 22       		.byte	0x22
 7732 0340 08       		.byte	0x8
 7733 0341 20       		.byte	0x20
 7734 0342 1C       		.byte	0x1c
 7735 0343 2A010000 		.4byte	.LVL98
 7736 0347 44010000 		.4byte	.LFE54
 7737 034b 0200     		.2byte	0x2
 7738 034d 91       		.byte	0x91
 7739 034e 6E       		.sleb128 -18
 7740 034f 00000000 		.4byte	0
 7741 0353 00000000 		.4byte	0
 7742              	.LLST20:
 7743 0357 00000000 		.4byte	.LVL49
 7744 035b 14000000 		.4byte	.LVL52
 7745 035f 0100     		.2byte	0x1
 7746 0361 51       		.byte	0x51
 7747 0362 14000000 		.4byte	.LVL52
 7748 0366 2C000000 		.4byte	.LVL56
 7749 036a 0200     		.2byte	0x2
 7750 036c 75       		.byte	0x75
 7751 036d 00       		.sleb128 0
 7752 036e 2C000000 		.4byte	.LVL56
 7753 0372 56000000 		.4byte	.LVL57
 7754 0376 0200     		.2byte	0x2
 7755 0378 91       		.byte	0x91
 7756 0379 6C       		.sleb128 -20
 7757 037a 56000000 		.4byte	.LVL57
 7758 037e 5A000000 		.4byte	.LVL58
 7759 0382 0200     		.2byte	0x2
 7760 0384 73       		.byte	0x73
 7761 0385 00       		.sleb128 0
 7762 0386 5A000000 		.4byte	.LVL58
 7763 038a 7A000000 		.4byte	.LVL62
 7764 038e 0200     		.2byte	0x2
 7765 0390 91       		.byte	0x91
 7766 0391 6C       		.sleb128 -20
 7767 0392 7A000000 		.4byte	.LVL62
 7768 0396 7E000000 		.4byte	.LVL63
 7769 039a 0200     		.2byte	0x2
 7770 039c 73       		.byte	0x73
 7771 039d 00       		.sleb128 0
 7772 039e 7E000000 		.4byte	.LVL63
 7773 03a2 B6000000 		.4byte	.LVL67
 7774 03a6 0200     		.2byte	0x2
 7775 03a8 91       		.byte	0x91
 7776 03a9 6C       		.sleb128 -20
 7777 03aa B6000000 		.4byte	.LVL67
 7778 03ae BB000000 		.4byte	.LVL69-1
 7779 03b2 0200     		.2byte	0x2
 7780 03b4 71       		.byte	0x71
ARM GAS  C:\Users\boise\AppData\Local\Temp\ccDu5XGS.s 			page 151


 7781 03b5 00       		.sleb128 0
 7782 03b6 BB000000 		.4byte	.LVL69-1
 7783 03ba DC000000 		.4byte	.LVL76
 7784 03be 0200     		.2byte	0x2
 7785 03c0 91       		.byte	0x91
 7786 03c1 6C       		.sleb128 -20
 7787 03c2 DC000000 		.4byte	.LVL76
 7788 03c6 E0000000 		.4byte	.LVL77
 7789 03ca 0200     		.2byte	0x2
 7790 03cc 71       		.byte	0x71
 7791 03cd 00       		.sleb128 0
 7792 03ce E0000000 		.4byte	.LVL77
 7793 03d2 E6000000 		.4byte	.LVL78
 7794 03d6 0200     		.2byte	0x2
 7795 03d8 91       		.byte	0x91
 7796 03d9 6C       		.sleb128 -20
 7797 03da E6000000 		.4byte	.LVL78
 7798 03de EA000000 		.4byte	.LVL79
 7799 03e2 0200     		.2byte	0x2
 7800 03e4 71       		.byte	0x71
 7801 03e5 00       		.sleb128 0
 7802 03e6 EA000000 		.4byte	.LVL79
 7803 03ea 06010000 		.4byte	.LVL87
 7804 03ee 0200     		.2byte	0x2
 7805 03f0 91       		.byte	0x91
 7806 03f1 6C       		.sleb128 -20
 7807 03f2 06010000 		.4byte	.LVL87
 7808 03f6 12010000 		.4byte	.LVL90
 7809 03fa 0200     		.2byte	0x2
 7810 03fc 72       		.byte	0x72
 7811 03fd 00       		.sleb128 0
 7812 03fe 12010000 		.4byte	.LVL90
 7813 0402 22010000 		.4byte	.LVL95
 7814 0406 0200     		.2byte	0x2
 7815 0408 91       		.byte	0x91
 7816 0409 6C       		.sleb128 -20
 7817 040a 22010000 		.4byte	.LVL95
 7818 040e 26010000 		.4byte	.LVL96
 7819 0412 0200     		.2byte	0x2
 7820 0414 71       		.byte	0x71
 7821 0415 00       		.sleb128 0
 7822 0416 26010000 		.4byte	.LVL96
 7823 041a 44010000 		.4byte	.LFE54
 7824 041e 0200     		.2byte	0x2
 7825 0420 91       		.byte	0x91
 7826 0421 6C       		.sleb128 -20
 7827 0422 00000000 		.4byte	0
 7828 0426 00000000 		.4byte	0
 7829              	.LLST21:
 7830 042a 00000000 		.4byte	.LVL49
 7831 042e 5A000000 		.4byte	.LVL58
 7832 0432 0100     		.2byte	0x1
 7833 0434 52       		.byte	0x52
 7834 0435 5A000000 		.4byte	.LVL58
 7835 0439 78000000 		.4byte	.LVL61
 7836 043d 0200     		.2byte	0x2
 7837 043f 91       		.byte	0x91
ARM GAS  C:\Users\boise\AppData\Local\Temp\ccDu5XGS.s 			page 152


 7838 0440 6A       		.sleb128 -22
 7839 0441 78000000 		.4byte	.LVL61
 7840 0445 B0000000 		.4byte	.LVL66
 7841 0449 0100     		.2byte	0x1
 7842 044b 52       		.byte	0x52
 7843 044c B0000000 		.4byte	.LVL66
 7844 0450 BE000000 		.4byte	.LVL70
 7845 0454 0200     		.2byte	0x2
 7846 0456 91       		.byte	0x91
 7847 0457 6A       		.sleb128 -22
 7848 0458 BE000000 		.4byte	.LVL70
 7849 045c C0000000 		.4byte	.LVL71
 7850 0460 0800     		.2byte	0x8
 7851 0462 75       		.byte	0x75
 7852 0463 00       		.sleb128 0
 7853 0464 91       		.byte	0x91
 7854 0465 00       		.sleb128 0
 7855 0466 22       		.byte	0x22
 7856 0467 08       		.byte	0x8
 7857 0468 20       		.byte	0x20
 7858 0469 1C       		.byte	0x1c
 7859 046a C0000000 		.4byte	.LVL71
 7860 046e 00010000 		.4byte	.LVL85
 7861 0472 0200     		.2byte	0x2
 7862 0474 91       		.byte	0x91
 7863 0475 6A       		.sleb128 -22
 7864 0476 00010000 		.4byte	.LVL85
 7865 047a 02010000 		.4byte	.LVL86
 7866 047e 0800     		.2byte	0x8
 7867 0480 72       		.byte	0x72
 7868 0481 00       		.sleb128 0
 7869 0482 91       		.byte	0x91
 7870 0483 00       		.sleb128 0
 7871 0484 22       		.byte	0x22
 7872 0485 08       		.byte	0x8
 7873 0486 20       		.byte	0x20
 7874 0487 1C       		.byte	0x1c
 7875 0488 02010000 		.4byte	.LVL86
 7876 048c 1A010000 		.4byte	.LVL93
 7877 0490 0200     		.2byte	0x2
 7878 0492 91       		.byte	0x91
 7879 0493 6A       		.sleb128 -22
 7880 0494 1A010000 		.4byte	.LVL93
 7881 0498 1C010000 		.4byte	.LVL94
 7882 049c 0800     		.2byte	0x8
 7883 049e 72       		.byte	0x72
 7884 049f 00       		.sleb128 0
 7885 04a0 91       		.byte	0x91
 7886 04a1 00       		.sleb128 0
 7887 04a2 22       		.byte	0x22
 7888 04a3 08       		.byte	0x8
 7889 04a4 20       		.byte	0x20
 7890 04a5 1C       		.byte	0x1c
 7891 04a6 1C010000 		.4byte	.LVL94
 7892 04aa 44010000 		.4byte	.LFE54
 7893 04ae 0200     		.2byte	0x2
 7894 04b0 91       		.byte	0x91
ARM GAS  C:\Users\boise\AppData\Local\Temp\ccDu5XGS.s 			page 153


 7895 04b1 6A       		.sleb128 -22
 7896 04b2 00000000 		.4byte	0
 7897 04b6 00000000 		.4byte	0
 7898              	.LLST22:
 7899 04ba 00000000 		.4byte	.LVL49
 7900 04be 22000000 		.4byte	.LVL53
 7901 04c2 0100     		.2byte	0x1
 7902 04c4 53       		.byte	0x53
 7903 04c5 22000000 		.4byte	.LVL53
 7904 04c9 26000000 		.4byte	.LVL54
 7905 04cd 0200     		.2byte	0x2
 7906 04cf 71       		.byte	0x71
 7907 04d0 00       		.sleb128 0
 7908 04d1 26000000 		.4byte	.LVL54
 7909 04d5 28000000 		.4byte	.LVL55
 7910 04d9 0200     		.2byte	0x2
 7911 04db 91       		.byte	0x91
 7912 04dc 68       		.sleb128 -24
 7913 04dd 28000000 		.4byte	.LVL55
 7914 04e1 2C000000 		.4byte	.LVL56
 7915 04e5 0200     		.2byte	0x2
 7916 04e7 73       		.byte	0x73
 7917 04e8 00       		.sleb128 0
 7918 04e9 2C000000 		.4byte	.LVL56
 7919 04ed 6A000000 		.4byte	.LVL59
 7920 04f1 0200     		.2byte	0x2
 7921 04f3 91       		.byte	0x91
 7922 04f4 68       		.sleb128 -24
 7923 04f5 6A000000 		.4byte	.LVL59
 7924 04f9 6E000000 		.4byte	.LVL60
 7925 04fd 0200     		.2byte	0x2
 7926 04ff 73       		.byte	0x73
 7927 0500 00       		.sleb128 0
 7928 0501 6E000000 		.4byte	.LVL60
 7929 0505 8E000000 		.4byte	.LVL64
 7930 0509 0200     		.2byte	0x2
 7931 050b 91       		.byte	0x91
 7932 050c 68       		.sleb128 -24
 7933 050d 8E000000 		.4byte	.LVL64
 7934 0511 92000000 		.4byte	.LVL65
 7935 0515 0200     		.2byte	0x2
 7936 0517 73       		.byte	0x73
 7937 0518 00       		.sleb128 0
 7938 0519 92000000 		.4byte	.LVL65
 7939 051d C2000000 		.4byte	.LVL72
 7940 0521 0200     		.2byte	0x2
 7941 0523 91       		.byte	0x91
 7942 0524 68       		.sleb128 -24
 7943 0525 C2000000 		.4byte	.LVL72
 7944 0529 C7000000 		.4byte	.LVL73-1
 7945 052d 0200     		.2byte	0x2
 7946 052f 71       		.byte	0x71
 7947 0530 00       		.sleb128 0
 7948 0531 C7000000 		.4byte	.LVL73-1
 7949 0535 D6000000 		.4byte	.LVL74
 7950 0539 0200     		.2byte	0x2
 7951 053b 91       		.byte	0x91
ARM GAS  C:\Users\boise\AppData\Local\Temp\ccDu5XGS.s 			page 154


 7952 053c 68       		.sleb128 -24
 7953 053d D6000000 		.4byte	.LVL74
 7954 0541 DA000000 		.4byte	.LVL75
 7955 0545 0200     		.2byte	0x2
 7956 0547 71       		.byte	0x71
 7957 0548 00       		.sleb128 0
 7958 0549 DA000000 		.4byte	.LVL75
 7959 054d EC000000 		.4byte	.LVL80
 7960 0551 0200     		.2byte	0x2
 7961 0553 91       		.byte	0x91
 7962 0554 68       		.sleb128 -24
 7963 0555 EC000000 		.4byte	.LVL80
 7964 0559 F0000000 		.4byte	.LVL81
 7965 055d 0200     		.2byte	0x2
 7966 055f 71       		.byte	0x71
 7967 0560 00       		.sleb128 0
 7968 0561 F0000000 		.4byte	.LVL81
 7969 0565 0C010000 		.4byte	.LVL89
 7970 0569 0200     		.2byte	0x2
 7971 056b 91       		.byte	0x91
 7972 056c 68       		.sleb128 -24
 7973 056d 0C010000 		.4byte	.LVL89
 7974 0571 12010000 		.4byte	.LVL90
 7975 0575 0200     		.2byte	0x2
 7976 0577 73       		.byte	0x73
 7977 0578 00       		.sleb128 0
 7978 0579 12010000 		.4byte	.LVL90
 7979 057d 14010000 		.4byte	.LVL91
 7980 0581 0200     		.2byte	0x2
 7981 0583 91       		.byte	0x91
 7982 0584 68       		.sleb128 -24
 7983 0585 14010000 		.4byte	.LVL91
 7984 0589 18010000 		.4byte	.LVL92
 7985 058d 0200     		.2byte	0x2
 7986 058f 73       		.byte	0x73
 7987 0590 00       		.sleb128 0
 7988 0591 18010000 		.4byte	.LVL92
 7989 0595 44010000 		.4byte	.LFE54
 7990 0599 0200     		.2byte	0x2
 7991 059b 91       		.byte	0x91
 7992 059c 68       		.sleb128 -24
 7993 059d 00000000 		.4byte	0
 7994 05a1 00000000 		.4byte	0
 7995              	.LLST23:
 7996 05a5 00000000 		.4byte	.LVL49
 7997 05a9 06000000 		.4byte	.LVL50
 7998 05ad 0200     		.2byte	0x2
 7999 05af 91       		.byte	0x91
 8000 05b0 00       		.sleb128 0
 8001 05b1 06000000 		.4byte	.LVL50
 8002 05b5 08000000 		.4byte	.LVL51
 8003 05b9 0200     		.2byte	0x2
 8004 05bb 74       		.byte	0x74
 8005 05bc 00       		.sleb128 0
 8006 05bd 08000000 		.4byte	.LVL51
 8007 05c1 44010000 		.4byte	.LFE54
 8008 05c5 0200     		.2byte	0x2
ARM GAS  C:\Users\boise\AppData\Local\Temp\ccDu5XGS.s 			page 155


 8009 05c7 91       		.byte	0x91
 8010 05c8 00       		.sleb128 0
 8011 05c9 00000000 		.4byte	0
 8012 05cd 00000000 		.4byte	0
 8013              	.LLST24:
 8014 05d1 F8000000 		.4byte	.LVL82
 8015 05d5 0A010000 		.4byte	.LVL88
 8016 05d9 0100     		.2byte	0x1
 8017 05db 53       		.byte	0x53
 8018 05dc 0A010000 		.4byte	.LVL88
 8019 05e0 12010000 		.4byte	.LVL90
 8020 05e4 0100     		.2byte	0x1
 8021 05e6 51       		.byte	0x51
 8022 05e7 00000000 		.4byte	0
 8023 05eb 00000000 		.4byte	0
 8024              	.LLST25:
 8025 05ef 00000000 		.4byte	.LVL100
 8026 05f3 0A000000 		.4byte	.LVL102
 8027 05f7 0100     		.2byte	0x1
 8028 05f9 50       		.byte	0x50
 8029 05fa 0A000000 		.4byte	.LVL102
 8030 05fe 3C000000 		.4byte	.LVL111
 8031 0602 0100     		.2byte	0x1
 8032 0604 55       		.byte	0x55
 8033 0605 3C000000 		.4byte	.LVL111
 8034 0609 44000000 		.4byte	.LFE33
 8035 060d 0400     		.2byte	0x4
 8036 060f F3       		.byte	0xf3
 8037 0610 01       		.uleb128 0x1
 8038 0611 50       		.byte	0x50
 8039 0612 9F       		.byte	0x9f
 8040 0613 00000000 		.4byte	0
 8041 0617 00000000 		.4byte	0
 8042              	.LLST26:
 8043 061b 00000000 		.4byte	.LVL100
 8044 061f 10000000 		.4byte	.LVL103
 8045 0623 0100     		.2byte	0x1
 8046 0625 51       		.byte	0x51
 8047 0626 10000000 		.4byte	.LVL103
 8048 062a 44000000 		.4byte	.LFE33
 8049 062e 0400     		.2byte	0x4
 8050 0630 F3       		.byte	0xf3
 8051 0631 01       		.uleb128 0x1
 8052 0632 51       		.byte	0x51
 8053 0633 9F       		.byte	0x9f
 8054 0634 00000000 		.4byte	0
 8055 0638 00000000 		.4byte	0
 8056              	.LLST27:
 8057 063c 06000000 		.4byte	.LVL101
 8058 0640 36000000 		.4byte	.LVL108
 8059 0644 0300     		.2byte	0x3
 8060 0646 08       		.byte	0x8
 8061 0647 FF       		.byte	0xff
 8062 0648 9F       		.byte	0x9f
 8063 0649 36000000 		.4byte	.LVL108
 8064 064d 3C000000 		.4byte	.LVL110
 8065 0651 0100     		.2byte	0x1
ARM GAS  C:\Users\boise\AppData\Local\Temp\ccDu5XGS.s 			page 156


 8066 0653 54       		.byte	0x54
 8067 0654 3C000000 		.4byte	.LVL110
 8068 0658 44000000 		.4byte	.LFE33
 8069 065c 0100     		.2byte	0x1
 8070 065e 50       		.byte	0x50
 8071 065f 00000000 		.4byte	0
 8072 0663 00000000 		.4byte	0
 8073              	.LLST28:
 8074 0667 00000000 		.4byte	.LVL113
 8075 066b 14000000 		.4byte	.LVL114
 8076 066f 0100     		.2byte	0x1
 8077 0671 50       		.byte	0x50
 8078 0672 14000000 		.4byte	.LVL114
 8079 0676 17000000 		.4byte	.LVL115-1
 8080 067a 0200     		.2byte	0x2
 8081 067c 70       		.byte	0x70
 8082 067d 02       		.sleb128 2
 8083 067e 17000000 		.4byte	.LVL115-1
 8084 0682 1C000000 		.4byte	.LFE36
 8085 0686 0400     		.2byte	0x4
 8086 0688 F3       		.byte	0xf3
 8087 0689 01       		.uleb128 0x1
 8088 068a 50       		.byte	0x50
 8089 068b 9F       		.byte	0x9f
 8090 068c 00000000 		.4byte	0
 8091 0690 00000000 		.4byte	0
 8092              	.LLST29:
 8093 0694 00000000 		.4byte	.LVL116
 8094 0698 16000000 		.4byte	.LVL117
 8095 069c 0100     		.2byte	0x1
 8096 069e 50       		.byte	0x50
 8097 069f 16000000 		.4byte	.LVL117
 8098 06a3 22000000 		.4byte	.LFE37
 8099 06a7 0400     		.2byte	0x4
 8100 06a9 F3       		.byte	0xf3
 8101 06aa 01       		.uleb128 0x1
 8102 06ab 50       		.byte	0x50
 8103 06ac 9F       		.byte	0x9f
 8104 06ad 00000000 		.4byte	0
 8105 06b1 00000000 		.4byte	0
 8106              	.LLST30:
 8107 06b5 00000000 		.4byte	.LVL123
 8108 06b9 22000000 		.4byte	.LVL126
 8109 06bd 0100     		.2byte	0x1
 8110 06bf 50       		.byte	0x50
 8111 06c0 22000000 		.4byte	.LVL126
 8112 06c4 25000000 		.4byte	.LVL127-1
 8113 06c8 0200     		.2byte	0x2
 8114 06ca 74       		.byte	0x74
 8115 06cb 03       		.sleb128 3
 8116 06cc 25000000 		.4byte	.LVL127-1
 8117 06d0 2A000000 		.4byte	.LFE41
 8118 06d4 0400     		.2byte	0x4
 8119 06d6 F3       		.byte	0xf3
 8120 06d7 01       		.uleb128 0x1
 8121 06d8 50       		.byte	0x50
 8122 06d9 9F       		.byte	0x9f
ARM GAS  C:\Users\boise\AppData\Local\Temp\ccDu5XGS.s 			page 157


 8123 06da 00000000 		.4byte	0
 8124 06de 00000000 		.4byte	0
 8125              	.LLST31:
 8126 06e2 00000000 		.4byte	.LVL123
 8127 06e6 20000000 		.4byte	.LVL125
 8128 06ea 0100     		.2byte	0x1
 8129 06ec 51       		.byte	0x51
 8130 06ed 20000000 		.4byte	.LVL125
 8131 06f1 25000000 		.4byte	.LVL127-1
 8132 06f5 0200     		.2byte	0x2
 8133 06f7 74       		.byte	0x74
 8134 06f8 05       		.sleb128 5
 8135 06f9 25000000 		.4byte	.LVL127-1
 8136 06fd 2A000000 		.4byte	.LFE41
 8137 0701 0400     		.2byte	0x4
 8138 0703 F3       		.byte	0xf3
 8139 0704 01       		.uleb128 0x1
 8140 0705 51       		.byte	0x51
 8141 0706 9F       		.byte	0x9f
 8142 0707 00000000 		.4byte	0
 8143 070b 00000000 		.4byte	0
 8144              	.LLST32:
 8145 070f 00000000 		.4byte	.LVL123
 8146 0713 25000000 		.4byte	.LVL127-1
 8147 0717 0100     		.2byte	0x1
 8148 0719 52       		.byte	0x52
 8149 071a 25000000 		.4byte	.LVL127-1
 8150 071e 2A000000 		.4byte	.LFE41
 8151 0722 0400     		.2byte	0x4
 8152 0724 F3       		.byte	0xf3
 8153 0725 01       		.uleb128 0x1
 8154 0726 52       		.byte	0x52
 8155 0727 9F       		.byte	0x9f
 8156 0728 00000000 		.4byte	0
 8157 072c 00000000 		.4byte	0
 8158              	.LLST33:
 8159 0730 00000000 		.4byte	.LVL123
 8160 0734 18000000 		.4byte	.LVL124
 8161 0738 0100     		.2byte	0x1
 8162 073a 53       		.byte	0x53
 8163 073b 18000000 		.4byte	.LVL124
 8164 073f 25000000 		.4byte	.LVL127-1
 8165 0743 0200     		.2byte	0x2
 8166 0745 74       		.byte	0x74
 8167 0746 04       		.sleb128 4
 8168 0747 25000000 		.4byte	.LVL127-1
 8169 074b 2A000000 		.4byte	.LFE41
 8170 074f 0400     		.2byte	0x4
 8171 0751 F3       		.byte	0xf3
 8172 0752 01       		.uleb128 0x1
 8173 0753 53       		.byte	0x53
 8174 0754 9F       		.byte	0x9f
 8175 0755 00000000 		.4byte	0
 8176 0759 00000000 		.4byte	0
 8177              	.LLST34:
 8178 075d 00000000 		.4byte	.LVL128
 8179 0761 12000000 		.4byte	.LVL129
ARM GAS  C:\Users\boise\AppData\Local\Temp\ccDu5XGS.s 			page 158


 8180 0765 0100     		.2byte	0x1
 8181 0767 51       		.byte	0x51
 8182 0768 12000000 		.4byte	.LVL129
 8183 076c 40000000 		.4byte	.LFE42
 8184 0770 0500     		.2byte	0x5
 8185 0772 03       		.byte	0x3
 8186 0773 00000000 		.4byte	HEIGHT
 8187 0777 00000000 		.4byte	0
 8188 077b 00000000 		.4byte	0
 8189              	.LLST35:
 8190 077f 00000000 		.4byte	.LVL130
 8191 0783 0C000000 		.4byte	.LVL131
 8192 0787 0100     		.2byte	0x1
 8193 0789 50       		.byte	0x50
 8194 078a 0C000000 		.4byte	.LVL131
 8195 078e 0F000000 		.4byte	.LVL132-1
 8196 0792 0500     		.2byte	0x5
 8197 0794 03       		.byte	0x3
 8198 0795 00000000 		.4byte	_i2caddr
 8199 0799 0F000000 		.4byte	.LVL132-1
 8200 079d 30000000 		.4byte	.LFE32
 8201 07a1 0400     		.2byte	0x4
 8202 07a3 F3       		.byte	0xf3
 8203 07a4 01       		.uleb128 0x1
 8204 07a5 50       		.byte	0x50
 8205 07a6 9F       		.byte	0x9f
 8206 07a7 00000000 		.4byte	0
 8207 07ab 00000000 		.4byte	0
 8208              	.LLST36:
 8209 07af 00000000 		.4byte	.LVL136
 8210 07b3 06000000 		.4byte	.LVL137
 8211 07b7 0100     		.2byte	0x1
 8212 07b9 50       		.byte	0x50
 8213 07ba 06000000 		.4byte	.LVL137
 8214 07be 10000000 		.4byte	.LFE47
 8215 07c2 0400     		.2byte	0x4
 8216 07c4 F3       		.byte	0xf3
 8217 07c5 01       		.uleb128 0x1
 8218 07c6 50       		.byte	0x50
 8219 07c7 9F       		.byte	0x9f
 8220 07c8 00000000 		.4byte	0
 8221 07cc 00000000 		.4byte	0
 8222              	.LLST37:
 8223 07d0 00000000 		.4byte	.LVL141
 8224 07d4 04000000 		.4byte	.LVL142
 8225 07d8 0100     		.2byte	0x1
 8226 07da 50       		.byte	0x50
 8227 07db 04000000 		.4byte	.LVL142
 8228 07df 4C000000 		.4byte	.LFE51
 8229 07e3 0400     		.2byte	0x4
 8230 07e5 F3       		.byte	0xf3
 8231 07e6 01       		.uleb128 0x1
 8232 07e7 50       		.byte	0x50
 8233 07e8 9F       		.byte	0x9f
 8234 07e9 00000000 		.4byte	0
 8235 07ed 00000000 		.4byte	0
 8236              	.LLST38:
ARM GAS  C:\Users\boise\AppData\Local\Temp\ccDu5XGS.s 			page 159


 8237 07f1 00000000 		.4byte	.LVL143
 8238 07f5 36000000 		.4byte	.LVL147
 8239 07f9 0100     		.2byte	0x1
 8240 07fb 50       		.byte	0x50
 8241 07fc 36000000 		.4byte	.LVL147
 8242 0800 39000000 		.4byte	.LVL148-1
 8243 0804 0200     		.2byte	0x2
 8244 0806 70       		.byte	0x70
 8245 0807 00       		.sleb128 0
 8246 0808 39000000 		.4byte	.LVL148-1
 8247 080c 48000000 		.4byte	.LVL149
 8248 0810 0200     		.2byte	0x2
 8249 0812 75       		.byte	0x75
 8250 0813 00       		.sleb128 0
 8251 0814 48000000 		.4byte	.LVL149
 8252 0818 4A000000 		.4byte	.LVL150
 8253 081c 0200     		.2byte	0x2
 8254 081e 7D       		.byte	0x7d
 8255 081f 06       		.sleb128 6
 8256 0820 4A000000 		.4byte	.LVL150
 8257 0824 50000000 		.4byte	.LFE53
 8258 0828 0200     		.2byte	0x2
 8259 082a 91       		.byte	0x91
 8260 082b 6E       		.sleb128 -18
 8261 082c 00000000 		.4byte	0
 8262 0830 00000000 		.4byte	0
 8263              	.LLST39:
 8264 0834 00000000 		.4byte	.LVL143
 8265 0838 28000000 		.4byte	.LVL145
 8266 083c 0100     		.2byte	0x1
 8267 083e 51       		.byte	0x51
 8268 083f 28000000 		.4byte	.LVL145
 8269 0843 2E000000 		.4byte	.LVL146
 8270 0847 0200     		.2byte	0x2
 8271 0849 91       		.byte	0x91
 8272 084a 6C       		.sleb128 -20
 8273 084b 2E000000 		.4byte	.LVL146
 8274 084f 48000000 		.4byte	.LVL149
 8275 0853 0200     		.2byte	0x2
 8276 0855 76       		.byte	0x76
 8277 0856 00       		.sleb128 0
 8278 0857 48000000 		.4byte	.LVL149
 8279 085b 50000000 		.4byte	.LFE53
 8280 085f 0200     		.2byte	0x2
 8281 0861 91       		.byte	0x91
 8282 0862 6C       		.sleb128 -20
 8283 0863 00000000 		.4byte	0
 8284 0867 00000000 		.4byte	0
 8285              	.LLST40:
 8286 086b 00000000 		.4byte	.LVL143
 8287 086f 18000000 		.4byte	.LVL144
 8288 0873 0100     		.2byte	0x1
 8289 0875 52       		.byte	0x52
 8290 0876 18000000 		.4byte	.LVL144
 8291 087a 50000000 		.4byte	.LFE53
 8292 087e 0400     		.2byte	0x4
 8293 0880 F3       		.byte	0xf3
ARM GAS  C:\Users\boise\AppData\Local\Temp\ccDu5XGS.s 			page 160


 8294 0881 01       		.uleb128 0x1
 8295 0882 52       		.byte	0x52
 8296 0883 9F       		.byte	0x9f
 8297 0884 00000000 		.4byte	0
 8298 0888 00000000 		.4byte	0
 8299              	.LLST41:
 8300 088c 00000000 		.4byte	.LVL151
 8301 0890 2C000000 		.4byte	.LVL155
 8302 0894 0100     		.2byte	0x1
 8303 0896 50       		.byte	0x50
 8304 0897 2C000000 		.4byte	.LVL155
 8305 089b 32000000 		.4byte	.LVL157
 8306 089f 0400     		.2byte	0x4
 8307 08a1 F3       		.byte	0xf3
 8308 08a2 01       		.uleb128 0x1
 8309 08a3 50       		.byte	0x50
 8310 08a4 9F       		.byte	0x9f
 8311 08a5 32000000 		.4byte	.LVL157
 8312 08a9 54000000 		.4byte	.LVL162
 8313 08ad 0100     		.2byte	0x1
 8314 08af 50       		.byte	0x50
 8315 08b0 54000000 		.4byte	.LVL162
 8316 08b4 62000000 		.4byte	.LVL165
 8317 08b8 0100     		.2byte	0x1
 8318 08ba 55       		.byte	0x55
 8319 08bb 64000000 		.4byte	.LVL166
 8320 08bf C2000000 		.4byte	.LVL182
 8321 08c3 0100     		.2byte	0x1
 8322 08c5 55       		.byte	0x55
 8323 08c6 C4000000 		.4byte	.LVL183
 8324 08ca C8000000 		.4byte	.LVL184
 8325 08ce 0100     		.2byte	0x1
 8326 08d0 55       		.byte	0x55
 8327 08d1 00000000 		.4byte	0
 8328 08d5 00000000 		.4byte	0
 8329              	.LLST42:
 8330 08d9 00000000 		.4byte	.LVL151
 8331 08dd 2A000000 		.4byte	.LVL154
 8332 08e1 0100     		.2byte	0x1
 8333 08e3 51       		.byte	0x51
 8334 08e4 2A000000 		.4byte	.LVL154
 8335 08e8 32000000 		.4byte	.LVL157
 8336 08ec 0400     		.2byte	0x4
 8337 08ee F3       		.byte	0xf3
 8338 08ef 01       		.uleb128 0x1
 8339 08f0 51       		.byte	0x51
 8340 08f1 9F       		.byte	0x9f
 8341 08f2 32000000 		.4byte	.LVL157
 8342 08f6 36000000 		.4byte	.LVL158
 8343 08fa 0100     		.2byte	0x1
 8344 08fc 51       		.byte	0x51
 8345 08fd 36000000 		.4byte	.LVL158
 8346 0901 54000000 		.4byte	.LVL162
 8347 0905 0400     		.2byte	0x4
 8348 0907 F3       		.byte	0xf3
 8349 0908 01       		.uleb128 0x1
 8350 0909 51       		.byte	0x51
ARM GAS  C:\Users\boise\AppData\Local\Temp\ccDu5XGS.s 			page 161


 8351 090a 9F       		.byte	0x9f
 8352 090b 54000000 		.4byte	.LVL162
 8353 090f 5C000000 		.4byte	.LVL163
 8354 0913 0100     		.2byte	0x1
 8355 0915 56       		.byte	0x56
 8356 0916 64000000 		.4byte	.LVL166
 8357 091a BA000000 		.4byte	.LVL179
 8358 091e 0100     		.2byte	0x1
 8359 0920 56       		.byte	0x56
 8360 0921 BC000000 		.4byte	.LVL180
 8361 0925 C8000000 		.4byte	.LVL184
 8362 0929 0100     		.2byte	0x1
 8363 092b 56       		.byte	0x56
 8364 092c 00000000 		.4byte	0
 8365 0930 00000000 		.4byte	0
 8366              	.LLST43:
 8367 0934 00000000 		.4byte	.LVL151
 8368 0938 16000000 		.4byte	.LVL152
 8369 093c 0100     		.2byte	0x1
 8370 093e 52       		.byte	0x52
 8371 093f 16000000 		.4byte	.LVL152
 8372 0943 54000000 		.4byte	.LVL162
 8373 0947 0400     		.2byte	0x4
 8374 0949 F3       		.byte	0xf3
 8375 094a 01       		.uleb128 0x1
 8376 094b 52       		.byte	0x52
 8377 094c 9F       		.byte	0x9f
 8378 094d 54000000 		.4byte	.LVL162
 8379 0951 C8000000 		.4byte	.LVL184
 8380 0955 0100     		.2byte	0x1
 8381 0957 57       		.byte	0x57
 8382 0958 00000000 		.4byte	0
 8383 095c 00000000 		.4byte	0
 8384              	.LLST44:
 8385 0960 00000000 		.4byte	.LVL151
 8386 0964 2F000000 		.4byte	.LVL156-1
 8387 0968 0100     		.2byte	0x1
 8388 096a 53       		.byte	0x53
 8389 096b 2F000000 		.4byte	.LVL156-1
 8390 096f 32000000 		.4byte	.LVL157
 8391 0973 0400     		.2byte	0x4
 8392 0975 F3       		.byte	0xf3
 8393 0976 01       		.uleb128 0x1
 8394 0977 53       		.byte	0x53
 8395 0978 9F       		.byte	0x9f
 8396 0979 32000000 		.4byte	.LVL157
 8397 097d 50000000 		.4byte	.LVL161
 8398 0981 0100     		.2byte	0x1
 8399 0983 53       		.byte	0x53
 8400 0984 50000000 		.4byte	.LVL161
 8401 0988 54000000 		.4byte	.LVL162
 8402 098c 0400     		.2byte	0x4
 8403 098e F3       		.byte	0xf3
 8404 098f 01       		.uleb128 0x1
 8405 0990 53       		.byte	0x53
 8406 0991 9F       		.byte	0x9f
 8407 0992 54000000 		.4byte	.LVL162
ARM GAS  C:\Users\boise\AppData\Local\Temp\ccDu5XGS.s 			page 162


 8408 0996 5E000000 		.4byte	.LVL164
 8409 099a 0100     		.2byte	0x1
 8410 099c 53       		.byte	0x53
 8411 099d 64000000 		.4byte	.LVL166
 8412 09a1 82000000 		.4byte	.LVL171
 8413 09a5 0100     		.2byte	0x1
 8414 09a7 53       		.byte	0x53
 8415 09a8 86000000 		.4byte	.LVL172
 8416 09ac 88000000 		.4byte	.LVL173
 8417 09b0 0100     		.2byte	0x1
 8418 09b2 53       		.byte	0x53
 8419 09b3 00000000 		.4byte	0
 8420 09b7 00000000 		.4byte	0
 8421              	.LLST45:
 8422 09bb 00000000 		.4byte	.LVL151
 8423 09bf 16000000 		.4byte	.LVL152
 8424 09c3 0200     		.2byte	0x2
 8425 09c5 91       		.byte	0x91
 8426 09c6 00       		.sleb128 0
 8427 09c7 16000000 		.4byte	.LVL152
 8428 09cb 18000000 		.4byte	.LVL153
 8429 09cf 0200     		.2byte	0x2
 8430 09d1 72       		.byte	0x72
 8431 09d2 00       		.sleb128 0
 8432 09d3 18000000 		.4byte	.LVL153
 8433 09d7 D6000000 		.4byte	.LFE55
 8434 09db 0200     		.2byte	0x2
 8435 09dd 91       		.byte	0x91
 8436 09de 00       		.sleb128 0
 8437 09df 00000000 		.4byte	0
 8438 09e3 00000000 		.4byte	0
 8439              	.LLST46:
 8440 09e7 46000000 		.4byte	.LVL159
 8441 09eb 4C000000 		.4byte	.LVL160
 8442 09ef 0900     		.2byte	0x9
 8443 09f1 78       		.byte	0x78
 8444 09f2 00       		.sleb128 0
 8445 09f3 72       		.byte	0x72
 8446 09f4 00       		.sleb128 0
 8447 09f5 2B       		.byte	0x2b
 8448 09f6 08       		.byte	0x8
 8449 09f7 FF       		.byte	0xff
 8450 09f8 1A       		.byte	0x1a
 8451 09f9 9F       		.byte	0x9f
 8452 09fa 4C000000 		.4byte	.LVL160
 8453 09fe C8000000 		.4byte	.LVL184
 8454 0a02 0900     		.2byte	0x9
 8455 0a04 78       		.byte	0x78
 8456 0a05 00       		.sleb128 0
 8457 0a06 79       		.byte	0x79
 8458 0a07 00       		.sleb128 0
 8459 0a08 2B       		.byte	0x2b
 8460 0a09 08       		.byte	0x8
 8461 0a0a FF       		.byte	0xff
 8462 0a0b 1A       		.byte	0x1a
 8463 0a0c 9F       		.byte	0x9f
 8464 0a0d 00000000 		.4byte	0
ARM GAS  C:\Users\boise\AppData\Local\Temp\ccDu5XGS.s 			page 163


 8465 0a11 00000000 		.4byte	0
 8466              	.LLST47:
 8467 0a15 6C000000 		.4byte	.LVL167
 8468 0a19 7A000000 		.4byte	.LVL169
 8469 0a1d 0100     		.2byte	0x1
 8470 0a1f 54       		.byte	0x54
 8471 0a20 7A000000 		.4byte	.LVL169
 8472 0a24 C8000000 		.4byte	.LVL184
 8473 0a28 0100     		.2byte	0x1
 8474 0a2a 5B       		.byte	0x5b
 8475 0a2b 00000000 		.4byte	0
 8476 0a2f 00000000 		.4byte	0
 8477              	.LLST48:
 8478 0a33 76000000 		.4byte	.LVL168
 8479 0a37 C8000000 		.4byte	.LVL184
 8480 0a3b 0100     		.2byte	0x1
 8481 0a3d 5A       		.byte	0x5a
 8482 0a3e 00000000 		.4byte	0
 8483 0a42 00000000 		.4byte	0
 8484              	.LLST49:
 8485 0a46 7C000000 		.4byte	.LVL170
 8486 0a4a AC000000 		.4byte	.LVL177
 8487 0a4e 0100     		.2byte	0x1
 8488 0a50 54       		.byte	0x54
 8489 0a51 B0000000 		.4byte	.LVL178
 8490 0a55 C8000000 		.4byte	.LVL184
 8491 0a59 0100     		.2byte	0x1
 8492 0a5b 54       		.byte	0x54
 8493 0a5c 00000000 		.4byte	0
 8494 0a60 00000000 		.4byte	0
 8495              	.LLST50:
 8496 0a64 8E000000 		.4byte	.LVL174
 8497 0a68 C8000000 		.4byte	.LVL184
 8498 0a6c 0200     		.2byte	0x2
 8499 0a6e 91       		.byte	0x91
 8500 0a6f 54       		.sleb128 -44
 8501 0a70 00000000 		.4byte	0
 8502 0a74 00000000 		.4byte	0
 8503              	.LLST51:
 8504 0a78 00000000 		.4byte	.LVL185
 8505 0a7c 16000000 		.4byte	.LVL189
 8506 0a80 0100     		.2byte	0x1
 8507 0a82 50       		.byte	0x50
 8508 0a83 16000000 		.4byte	.LVL189
 8509 0a87 58000000 		.4byte	.LFE56
 8510 0a8b 0400     		.2byte	0x4
 8511 0a8d F3       		.byte	0xf3
 8512 0a8e 01       		.uleb128 0x1
 8513 0a8f 50       		.byte	0x50
 8514 0a90 9F       		.byte	0x9f
 8515 0a91 00000000 		.4byte	0
 8516 0a95 00000000 		.4byte	0
 8517              	.LLST52:
 8518 0a99 00000000 		.4byte	.LVL185
 8519 0a9d 23000000 		.4byte	.LVL190-1
 8520 0aa1 0100     		.2byte	0x1
 8521 0aa3 51       		.byte	0x51
ARM GAS  C:\Users\boise\AppData\Local\Temp\ccDu5XGS.s 			page 164


 8522 0aa4 23000000 		.4byte	.LVL190-1
 8523 0aa8 58000000 		.4byte	.LFE56
 8524 0aac 0400     		.2byte	0x4
 8525 0aae F3       		.byte	0xf3
 8526 0aaf 01       		.uleb128 0x1
 8527 0ab0 51       		.byte	0x51
 8528 0ab1 9F       		.byte	0x9f
 8529 0ab2 00000000 		.4byte	0
 8530 0ab6 00000000 		.4byte	0
 8531              	.LLST53:
 8532 0aba 00000000 		.4byte	.LVL185
 8533 0abe 10000000 		.4byte	.LVL187
 8534 0ac2 0100     		.2byte	0x1
 8535 0ac4 52       		.byte	0x52
 8536 0ac5 10000000 		.4byte	.LVL187
 8537 0ac9 58000000 		.4byte	.LFE56
 8538 0acd 0400     		.2byte	0x4
 8539 0acf F3       		.byte	0xf3
 8540 0ad0 01       		.uleb128 0x1
 8541 0ad1 52       		.byte	0x52
 8542 0ad2 9F       		.byte	0x9f
 8543 0ad3 00000000 		.4byte	0
 8544 0ad7 00000000 		.4byte	0
 8545              	.LLST54:
 8546 0adb 00000000 		.4byte	.LVL185
 8547 0adf 0C000000 		.4byte	.LVL186
 8548 0ae3 0100     		.2byte	0x1
 8549 0ae5 53       		.byte	0x53
 8550 0ae6 0C000000 		.4byte	.LVL186
 8551 0aea 58000000 		.4byte	.LFE56
 8552 0aee 0400     		.2byte	0x4
 8553 0af0 F3       		.byte	0xf3
 8554 0af1 01       		.uleb128 0x1
 8555 0af2 53       		.byte	0x53
 8556 0af3 9F       		.byte	0x9f
 8557 0af4 00000000 		.4byte	0
 8558 0af8 00000000 		.4byte	0
 8559              	.LLST55:
 8560 0afc 00000000 		.4byte	.LVL185
 8561 0b00 0C000000 		.4byte	.LVL186
 8562 0b04 0200     		.2byte	0x2
 8563 0b06 91       		.byte	0x91
 8564 0b07 00       		.sleb128 0
 8565 0b08 0C000000 		.4byte	.LVL186
 8566 0b0c 14000000 		.4byte	.LVL188
 8567 0b10 0200     		.2byte	0x2
 8568 0b12 73       		.byte	0x73
 8569 0b13 00       		.sleb128 0
 8570 0b14 14000000 		.4byte	.LVL188
 8571 0b18 58000000 		.4byte	.LFE56
 8572 0b1c 0200     		.2byte	0x2
 8573 0b1e 91       		.byte	0x91
 8574 0b1f 00       		.sleb128 0
 8575 0b20 00000000 		.4byte	0
 8576 0b24 00000000 		.4byte	0
 8577              	.LLST56:
 8578 0b28 00000000 		.4byte	.LVL194
ARM GAS  C:\Users\boise\AppData\Local\Temp\ccDu5XGS.s 			page 165


 8579 0b2c 20000000 		.4byte	.LVL198
 8580 0b30 0100     		.2byte	0x1
 8581 0b32 50       		.byte	0x50
 8582 0b33 20000000 		.4byte	.LVL198
 8583 0b37 3C000000 		.4byte	.LVL202
 8584 0b3b 0400     		.2byte	0x4
 8585 0b3d F3       		.byte	0xf3
 8586 0b3e 01       		.uleb128 0x1
 8587 0b3f 50       		.byte	0x50
 8588 0b40 9F       		.byte	0x9f
 8589 0b41 3C000000 		.4byte	.LVL202
 8590 0b45 3E000000 		.4byte	.LVL203
 8591 0b49 0100     		.2byte	0x1
 8592 0b4b 50       		.byte	0x50
 8593 0b4c 3E000000 		.4byte	.LVL203
 8594 0b50 70000000 		.4byte	.LFE57
 8595 0b54 0400     		.2byte	0x4
 8596 0b56 F3       		.byte	0xf3
 8597 0b57 01       		.uleb128 0x1
 8598 0b58 50       		.byte	0x50
 8599 0b59 9F       		.byte	0x9f
 8600 0b5a 00000000 		.4byte	0
 8601 0b5e 00000000 		.4byte	0
 8602              	.LLST57:
 8603 0b62 00000000 		.4byte	.LVL194
 8604 0b66 20000000 		.4byte	.LVL198
 8605 0b6a 0100     		.2byte	0x1
 8606 0b6c 51       		.byte	0x51
 8607 0b6d 20000000 		.4byte	.LVL198
 8608 0b71 3C000000 		.4byte	.LVL202
 8609 0b75 0400     		.2byte	0x4
 8610 0b77 F3       		.byte	0xf3
 8611 0b78 01       		.uleb128 0x1
 8612 0b79 51       		.byte	0x51
 8613 0b7a 9F       		.byte	0x9f
 8614 0b7b 3C000000 		.4byte	.LVL202
 8615 0b7f 3E000000 		.4byte	.LVL203
 8616 0b83 0100     		.2byte	0x1
 8617 0b85 51       		.byte	0x51
 8618 0b86 3E000000 		.4byte	.LVL203
 8619 0b8a 70000000 		.4byte	.LFE57
 8620 0b8e 0400     		.2byte	0x4
 8621 0b90 F3       		.byte	0xf3
 8622 0b91 01       		.uleb128 0x1
 8623 0b92 51       		.byte	0x51
 8624 0b93 9F       		.byte	0x9f
 8625 0b94 00000000 		.4byte	0
 8626 0b98 00000000 		.4byte	0
 8627              	.LLST58:
 8628 0b9c 00000000 		.4byte	.LVL194
 8629 0ba0 20000000 		.4byte	.LVL198
 8630 0ba4 0100     		.2byte	0x1
 8631 0ba6 52       		.byte	0x52
 8632 0ba7 20000000 		.4byte	.LVL198
 8633 0bab 3C000000 		.4byte	.LVL202
 8634 0baf 0400     		.2byte	0x4
 8635 0bb1 F3       		.byte	0xf3
ARM GAS  C:\Users\boise\AppData\Local\Temp\ccDu5XGS.s 			page 166


 8636 0bb2 01       		.uleb128 0x1
 8637 0bb3 52       		.byte	0x52
 8638 0bb4 9F       		.byte	0x9f
 8639 0bb5 3C000000 		.4byte	.LVL202
 8640 0bb9 3E000000 		.4byte	.LVL203
 8641 0bbd 0100     		.2byte	0x1
 8642 0bbf 52       		.byte	0x52
 8643 0bc0 3E000000 		.4byte	.LVL203
 8644 0bc4 70000000 		.4byte	.LFE57
 8645 0bc8 0400     		.2byte	0x4
 8646 0bca F3       		.byte	0xf3
 8647 0bcb 01       		.uleb128 0x1
 8648 0bcc 52       		.byte	0x52
 8649 0bcd 9F       		.byte	0x9f
 8650 0bce 00000000 		.4byte	0
 8651 0bd2 00000000 		.4byte	0
 8652              	.LLST59:
 8653 0bd6 00000000 		.4byte	.LVL194
 8654 0bda 14000000 		.4byte	.LVL195
 8655 0bde 0100     		.2byte	0x1
 8656 0be0 53       		.byte	0x53
 8657 0be1 14000000 		.4byte	.LVL195
 8658 0be5 70000000 		.4byte	.LFE57
 8659 0be9 0400     		.2byte	0x4
 8660 0beb F3       		.byte	0xf3
 8661 0bec 01       		.uleb128 0x1
 8662 0bed 53       		.byte	0x53
 8663 0bee 9F       		.byte	0x9f
 8664 0bef 00000000 		.4byte	0
 8665 0bf3 00000000 		.4byte	0
 8666              	.LLST60:
 8667 0bf7 00000000 		.4byte	.LVL194
 8668 0bfb 14000000 		.4byte	.LVL195
 8669 0bff 0200     		.2byte	0x2
 8670 0c01 91       		.byte	0x91
 8671 0c02 00       		.sleb128 0
 8672 0c03 14000000 		.4byte	.LVL195
 8673 0c07 16000000 		.4byte	.LVL196
 8674 0c0b 0200     		.2byte	0x2
 8675 0c0d 73       		.byte	0x73
 8676 0c0e 00       		.sleb128 0
 8677 0c0f 16000000 		.4byte	.LVL196
 8678 0c13 70000000 		.4byte	.LFE57
 8679 0c17 0200     		.2byte	0x2
 8680 0c19 91       		.byte	0x91
 8681 0c1a 00       		.sleb128 0
 8682 0c1b 00000000 		.4byte	0
 8683 0c1f 00000000 		.4byte	0
 8684              	.LLST61:
 8685 0c23 18000000 		.4byte	.LVL197
 8686 0c27 20000000 		.4byte	.LVL198
 8687 0c2b 0200     		.2byte	0x2
 8688 0c2d 30       		.byte	0x30
 8689 0c2e 9F       		.byte	0x9f
 8690 0c2f 20000000 		.4byte	.LVL198
 8691 0c33 38000000 		.4byte	.LVL200
 8692 0c37 0100     		.2byte	0x1
ARM GAS  C:\Users\boise\AppData\Local\Temp\ccDu5XGS.s 			page 167


 8693 0c39 54       		.byte	0x54
 8694 0c3a 3A000000 		.4byte	.LVL201
 8695 0c3e 3C000000 		.4byte	.LVL202
 8696 0c42 0100     		.2byte	0x1
 8697 0c44 54       		.byte	0x54
 8698 0c45 3C000000 		.4byte	.LVL202
 8699 0c49 3E000000 		.4byte	.LVL203
 8700 0c4d 0200     		.2byte	0x2
 8701 0c4f 30       		.byte	0x30
 8702 0c50 9F       		.byte	0x9f
 8703 0c51 3E000000 		.4byte	.LVL203
 8704 0c55 5C000000 		.4byte	.LVL205
 8705 0c59 0100     		.2byte	0x1
 8706 0c5b 54       		.byte	0x54
 8707 0c5c 5E000000 		.4byte	.LVL206
 8708 0c60 68000000 		.4byte	.LVL207
 8709 0c64 0100     		.2byte	0x1
 8710 0c66 54       		.byte	0x54
 8711 0c67 00000000 		.4byte	0
 8712 0c6b 00000000 		.4byte	0
 8713              	.LLST62:
 8714 0c6f 00000000 		.4byte	.LVL208
 8715 0c73 16000000 		.4byte	.LVL209
 8716 0c77 0100     		.2byte	0x1
 8717 0c79 50       		.byte	0x50
 8718 0c7a 16000000 		.4byte	.LVL209
 8719 0c7e 48010000 		.4byte	.LFE58
 8720 0c82 0400     		.2byte	0x4
 8721 0c84 F3       		.byte	0xf3
 8722 0c85 01       		.uleb128 0x1
 8723 0c86 50       		.byte	0x50
 8724 0c87 9F       		.byte	0x9f
 8725 0c88 00000000 		.4byte	0
 8726 0c8c 00000000 		.4byte	0
 8727              	.LLST63:
 8728 0c90 00000000 		.4byte	.LVL208
 8729 0c94 2E000000 		.4byte	.LVL214
 8730 0c98 0100     		.2byte	0x1
 8731 0c9a 51       		.byte	0x51
 8732 0c9b 2E000000 		.4byte	.LVL214
 8733 0c9f 39000000 		.4byte	.LVL215-1
 8734 0ca3 0100     		.2byte	0x1
 8735 0ca5 53       		.byte	0x53
 8736 0ca6 39000000 		.4byte	.LVL215-1
 8737 0caa 3C010000 		.4byte	.LVL236
 8738 0cae 0100     		.2byte	0x1
 8739 0cb0 5A       		.byte	0x5a
 8740 0cb1 3C010000 		.4byte	.LVL236
 8741 0cb5 48010000 		.4byte	.LFE58
 8742 0cb9 0400     		.2byte	0x4
 8743 0cbb F3       		.byte	0xf3
 8744 0cbc 01       		.uleb128 0x1
 8745 0cbd 51       		.byte	0x51
 8746 0cbe 9F       		.byte	0x9f
 8747 0cbf 00000000 		.4byte	0
 8748 0cc3 00000000 		.4byte	0
 8749              	.LLST64:
ARM GAS  C:\Users\boise\AppData\Local\Temp\ccDu5XGS.s 			page 168


 8750 0cc7 00000000 		.4byte	.LVL208
 8751 0ccb 24000000 		.4byte	.LVL212
 8752 0ccf 0100     		.2byte	0x1
 8753 0cd1 52       		.byte	0x52
 8754 0cd2 24000000 		.4byte	.LVL212
 8755 0cd6 74000000 		.4byte	.LVL219
 8756 0cda 0100     		.2byte	0x1
 8757 0cdc 57       		.byte	0x57
 8758 0cdd 74000000 		.4byte	.LVL219
 8759 0ce1 48010000 		.4byte	.LFE58
 8760 0ce5 0400     		.2byte	0x4
 8761 0ce7 F3       		.byte	0xf3
 8762 0ce8 01       		.uleb128 0x1
 8763 0ce9 52       		.byte	0x52
 8764 0cea 9F       		.byte	0x9f
 8765 0ceb 00000000 		.4byte	0
 8766 0cef 00000000 		.4byte	0
 8767              	.LLST65:
 8768 0cf3 00000000 		.4byte	.LVL208
 8769 0cf7 20000000 		.4byte	.LVL211
 8770 0cfb 0100     		.2byte	0x1
 8771 0cfd 53       		.byte	0x53
 8772 0cfe 20000000 		.4byte	.LVL211
 8773 0d02 48010000 		.4byte	.LFE58
 8774 0d06 0400     		.2byte	0x4
 8775 0d08 F3       		.byte	0xf3
 8776 0d09 01       		.uleb128 0x1
 8777 0d0a 53       		.byte	0x53
 8778 0d0b 9F       		.byte	0x9f
 8779 0d0c 00000000 		.4byte	0
 8780 0d10 00000000 		.4byte	0
 8781              	.LLST66:
 8782 0d14 1E000000 		.4byte	.LVL210
 8783 0d18 74000000 		.4byte	.LVL219
 8784 0d1c 0100     		.2byte	0x1
 8785 0d1e 54       		.byte	0x54
 8786 0d1f 74000000 		.4byte	.LVL219
 8787 0d23 3C010000 		.4byte	.LVL234
 8788 0d27 0100     		.2byte	0x1
 8789 0d29 58       		.byte	0x58
 8790 0d2a 00000000 		.4byte	0
 8791 0d2e 00000000 		.4byte	0
 8792              	.LLST67:
 8793 0d32 1E000000 		.4byte	.LVL210
 8794 0d36 74000000 		.4byte	.LVL219
 8795 0d3a 0200     		.2byte	0x2
 8796 0d3c 31       		.byte	0x31
 8797 0d3d 9F       		.byte	0x9f
 8798 0d3e 74000000 		.4byte	.LVL219
 8799 0d42 48010000 		.4byte	.LFE58
 8800 0d46 0200     		.2byte	0x2
 8801 0d48 91       		.byte	0x91
 8802 0d49 4C       		.sleb128 -52
 8803 0d4a 00000000 		.4byte	0
 8804 0d4e 00000000 		.4byte	0
 8805              	.LLST68:
 8806 0d52 28000000 		.4byte	.LVL213
ARM GAS  C:\Users\boise\AppData\Local\Temp\ccDu5XGS.s 			page 169


 8807 0d56 74000000 		.4byte	.LVL219
 8808 0d5a 0200     		.2byte	0x2
 8809 0d5c 30       		.byte	0x30
 8810 0d5d 9F       		.byte	0x9f
 8811 0d5e 74000000 		.4byte	.LVL219
 8812 0d62 3C010000 		.4byte	.LVL235
 8813 0d66 0100     		.2byte	0x1
 8814 0d68 59       		.byte	0x59
 8815 0d69 00000000 		.4byte	0
 8816 0d6d 00000000 		.4byte	0
 8817              	.LLST69:
 8818 0d71 00000000 		.4byte	.LVL237
 8819 0d75 23000000 		.4byte	.LVL244-1
 8820 0d79 0100     		.2byte	0x1
 8821 0d7b 50       		.byte	0x50
 8822 0d7c 23000000 		.4byte	.LVL244-1
 8823 0d80 44000000 		.4byte	.LFE59
 8824 0d84 0400     		.2byte	0x4
 8825 0d86 F3       		.byte	0xf3
 8826 0d87 01       		.uleb128 0x1
 8827 0d88 50       		.byte	0x50
 8828 0d89 9F       		.byte	0x9f
 8829 0d8a 00000000 		.4byte	0
 8830 0d8e 00000000 		.4byte	0
 8831              	.LLST70:
 8832 0d92 00000000 		.4byte	.LVL237
 8833 0d96 23000000 		.4byte	.LVL244-1
 8834 0d9a 0100     		.2byte	0x1
 8835 0d9c 51       		.byte	0x51
 8836 0d9d 23000000 		.4byte	.LVL244-1
 8837 0da1 44000000 		.4byte	.LFE59
 8838 0da5 0400     		.2byte	0x4
 8839 0da7 F3       		.byte	0xf3
 8840 0da8 01       		.uleb128 0x1
 8841 0da9 51       		.byte	0x51
 8842 0daa 9F       		.byte	0x9f
 8843 0dab 00000000 		.4byte	0
 8844 0daf 00000000 		.4byte	0
 8845              	.LLST71:
 8846 0db3 00000000 		.4byte	.LVL237
 8847 0db7 23000000 		.4byte	.LVL244-1
 8848 0dbb 0100     		.2byte	0x1
 8849 0dbd 52       		.byte	0x52
 8850 0dbe 23000000 		.4byte	.LVL244-1
 8851 0dc2 44000000 		.4byte	.LFE59
 8852 0dc6 0400     		.2byte	0x4
 8853 0dc8 F3       		.byte	0xf3
 8854 0dc9 01       		.uleb128 0x1
 8855 0dca 52       		.byte	0x52
 8856 0dcb 9F       		.byte	0x9f
 8857 0dcc 00000000 		.4byte	0
 8858 0dd0 00000000 		.4byte	0
 8859              	.LLST72:
 8860 0dd4 00000000 		.4byte	.LVL237
 8861 0dd8 08000000 		.4byte	.LVL238
 8862 0ddc 0100     		.2byte	0x1
 8863 0dde 53       		.byte	0x53
ARM GAS  C:\Users\boise\AppData\Local\Temp\ccDu5XGS.s 			page 170


 8864 0ddf 08000000 		.4byte	.LVL238
 8865 0de3 44000000 		.4byte	.LFE59
 8866 0de7 0400     		.2byte	0x4
 8867 0de9 F3       		.byte	0xf3
 8868 0dea 01       		.uleb128 0x1
 8869 0deb 53       		.byte	0x53
 8870 0dec 9F       		.byte	0x9f
 8871 0ded 00000000 		.4byte	0
 8872 0df1 00000000 		.4byte	0
 8873              	.LLST73:
 8874 0df5 00000000 		.4byte	.LVL237
 8875 0df9 08000000 		.4byte	.LVL238
 8876 0dfd 0200     		.2byte	0x2
 8877 0dff 91       		.byte	0x91
 8878 0e00 00       		.sleb128 0
 8879 0e01 08000000 		.4byte	.LVL238
 8880 0e05 0C000000 		.4byte	.LVL239
 8881 0e09 0200     		.2byte	0x2
 8882 0e0b 73       		.byte	0x73
 8883 0e0c 00       		.sleb128 0
 8884 0e0d 0C000000 		.4byte	.LVL239
 8885 0e11 44000000 		.4byte	.LFE59
 8886 0e15 0200     		.2byte	0x2
 8887 0e17 91       		.byte	0x91
 8888 0e18 00       		.sleb128 0
 8889 0e19 00000000 		.4byte	0
 8890 0e1d 00000000 		.4byte	0
 8891              	.LLST74:
 8892 0e21 00000000 		.4byte	.LVL237
 8893 0e25 08000000 		.4byte	.LVL238
 8894 0e29 0200     		.2byte	0x2
 8895 0e2b 91       		.byte	0x91
 8896 0e2c 04       		.sleb128 4
 8897 0e2d 08000000 		.4byte	.LVL238
 8898 0e31 0C000000 		.4byte	.LVL239
 8899 0e35 0200     		.2byte	0x2
 8900 0e37 73       		.byte	0x73
 8901 0e38 04       		.sleb128 4
 8902 0e39 0C000000 		.4byte	.LVL239
 8903 0e3d 0E000000 		.4byte	.LVL240
 8904 0e41 0200     		.2byte	0x2
 8905 0e43 91       		.byte	0x91
 8906 0e44 04       		.sleb128 4
 8907 0e45 0E000000 		.4byte	.LVL240
 8908 0e49 12000000 		.4byte	.LVL241
 8909 0e4d 0200     		.2byte	0x2
 8910 0e4f 73       		.byte	0x73
 8911 0e50 00       		.sleb128 0
 8912 0e51 12000000 		.4byte	.LVL241
 8913 0e55 44000000 		.4byte	.LFE59
 8914 0e59 0200     		.2byte	0x2
 8915 0e5b 91       		.byte	0x91
 8916 0e5c 04       		.sleb128 4
 8917 0e5d 00000000 		.4byte	0
 8918 0e61 00000000 		.4byte	0
 8919              	.LLST75:
 8920 0e65 00000000 		.4byte	.LVL237
ARM GAS  C:\Users\boise\AppData\Local\Temp\ccDu5XGS.s 			page 171


 8921 0e69 08000000 		.4byte	.LVL238
 8922 0e6d 0200     		.2byte	0x2
 8923 0e6f 91       		.byte	0x91
 8924 0e70 08       		.sleb128 8
 8925 0e71 08000000 		.4byte	.LVL238
 8926 0e75 0C000000 		.4byte	.LVL239
 8927 0e79 0200     		.2byte	0x2
 8928 0e7b 73       		.byte	0x73
 8929 0e7c 08       		.sleb128 8
 8930 0e7d 0C000000 		.4byte	.LVL239
 8931 0e81 14000000 		.4byte	.LVL242
 8932 0e85 0200     		.2byte	0x2
 8933 0e87 91       		.byte	0x91
 8934 0e88 08       		.sleb128 8
 8935 0e89 14000000 		.4byte	.LVL242
 8936 0e8d 1A000000 		.4byte	.LVL243
 8937 0e91 0200     		.2byte	0x2
 8938 0e93 73       		.byte	0x73
 8939 0e94 00       		.sleb128 0
 8940 0e95 1A000000 		.4byte	.LVL243
 8941 0e99 44000000 		.4byte	.LFE59
 8942 0e9d 0200     		.2byte	0x2
 8943 0e9f 91       		.byte	0x91
 8944 0ea0 08       		.sleb128 8
 8945 0ea1 00000000 		.4byte	0
 8946 0ea5 00000000 		.4byte	0
 8947              	.LLST76:
 8948 0ea9 00000000 		.4byte	.LVL247
 8949 0ead 4C000000 		.4byte	.LVL253
 8950 0eb1 0100     		.2byte	0x1
 8951 0eb3 50       		.byte	0x50
 8952 0eb4 4C000000 		.4byte	.LVL253
 8953 0eb8 14010000 		.4byte	.LFE60
 8954 0ebc 0400     		.2byte	0x4
 8955 0ebe F3       		.byte	0xf3
 8956 0ebf 01       		.uleb128 0x1
 8957 0ec0 50       		.byte	0x50
 8958 0ec1 9F       		.byte	0x9f
 8959 0ec2 00000000 		.4byte	0
 8960 0ec6 00000000 		.4byte	0
 8961              	.LLST77:
 8962 0eca 00000000 		.4byte	.LVL247
 8963 0ece 4C000000 		.4byte	.LVL253
 8964 0ed2 0100     		.2byte	0x1
 8965 0ed4 51       		.byte	0x51
 8966 0ed5 4C000000 		.4byte	.LVL253
 8967 0ed9 14010000 		.4byte	.LFE60
 8968 0edd 0400     		.2byte	0x4
 8969 0edf F3       		.byte	0xf3
 8970 0ee0 01       		.uleb128 0x1
 8971 0ee1 51       		.byte	0x51
 8972 0ee2 9F       		.byte	0x9f
 8973 0ee3 00000000 		.4byte	0
 8974 0ee7 00000000 		.4byte	0
 8975              	.LLST78:
 8976 0eeb 00000000 		.4byte	.LVL247
 8977 0eef 26000000 		.4byte	.LVL252
ARM GAS  C:\Users\boise\AppData\Local\Temp\ccDu5XGS.s 			page 172


 8978 0ef3 0100     		.2byte	0x1
 8979 0ef5 52       		.byte	0x52
 8980 0ef6 26000000 		.4byte	.LVL252
 8981 0efa 14010000 		.4byte	.LFE60
 8982 0efe 0400     		.2byte	0x4
 8983 0f00 F3       		.byte	0xf3
 8984 0f01 01       		.uleb128 0x1
 8985 0f02 52       		.byte	0x52
 8986 0f03 9F       		.byte	0x9f
 8987 0f04 00000000 		.4byte	0
 8988 0f08 00000000 		.4byte	0
 8989              	.LLST79:
 8990 0f0c 00000000 		.4byte	.LVL247
 8991 0f10 18000000 		.4byte	.LVL248
 8992 0f14 0100     		.2byte	0x1
 8993 0f16 53       		.byte	0x53
 8994 0f17 18000000 		.4byte	.LVL248
 8995 0f1b 14010000 		.4byte	.LFE60
 8996 0f1f 0400     		.2byte	0x4
 8997 0f21 F3       		.byte	0xf3
 8998 0f22 01       		.uleb128 0x1
 8999 0f23 53       		.byte	0x53
 9000 0f24 9F       		.byte	0x9f
 9001 0f25 00000000 		.4byte	0
 9002 0f29 00000000 		.4byte	0
 9003              	.LLST80:
 9004 0f2d 00000000 		.4byte	.LVL247
 9005 0f31 18000000 		.4byte	.LVL248
 9006 0f35 0200     		.2byte	0x2
 9007 0f37 91       		.byte	0x91
 9008 0f38 00       		.sleb128 0
 9009 0f39 18000000 		.4byte	.LVL248
 9010 0f3d 1A000000 		.4byte	.LVL249
 9011 0f41 0200     		.2byte	0x2
 9012 0f43 73       		.byte	0x73
 9013 0f44 00       		.sleb128 0
 9014 0f45 1A000000 		.4byte	.LVL249
 9015 0f49 14010000 		.4byte	.LFE60
 9016 0f4d 0200     		.2byte	0x2
 9017 0f4f 91       		.byte	0x91
 9018 0f50 00       		.sleb128 0
 9019 0f51 00000000 		.4byte	0
 9020 0f55 00000000 		.4byte	0
 9021              	.LLST81:
 9022 0f59 00000000 		.4byte	.LVL247
 9023 0f5d 18000000 		.4byte	.LVL248
 9024 0f61 0200     		.2byte	0x2
 9025 0f63 91       		.byte	0x91
 9026 0f64 04       		.sleb128 4
 9027 0f65 18000000 		.4byte	.LVL248
 9028 0f69 1A000000 		.4byte	.LVL249
 9029 0f6d 0200     		.2byte	0x2
 9030 0f6f 73       		.byte	0x73
 9031 0f70 04       		.sleb128 4
 9032 0f71 1A000000 		.4byte	.LVL249
 9033 0f75 1E000000 		.4byte	.LVL250
 9034 0f79 0200     		.2byte	0x2
ARM GAS  C:\Users\boise\AppData\Local\Temp\ccDu5XGS.s 			page 173


 9035 0f7b 91       		.byte	0x91
 9036 0f7c 04       		.sleb128 4
 9037 0f7d 1E000000 		.4byte	.LVL250
 9038 0f81 22000000 		.4byte	.LVL251
 9039 0f85 0200     		.2byte	0x2
 9040 0f87 73       		.byte	0x73
 9041 0f88 00       		.sleb128 0
 9042 0f89 22000000 		.4byte	.LVL251
 9043 0f8d 14010000 		.4byte	.LFE60
 9044 0f91 0200     		.2byte	0x2
 9045 0f93 91       		.byte	0x91
 9046 0f94 04       		.sleb128 4
 9047 0f95 00000000 		.4byte	0
 9048 0f99 00000000 		.4byte	0
 9049              	.LLST82:
 9050 0f9d 4C000000 		.4byte	.LVL253
 9051 0fa1 6E000000 		.4byte	.LVL256
 9052 0fa5 0100     		.2byte	0x1
 9053 0fa7 57       		.byte	0x57
 9054 0fa8 F8000000 		.4byte	.LVL265
 9055 0fac FC000000 		.4byte	.LVL266
 9056 0fb0 0100     		.2byte	0x1
 9057 0fb2 57       		.byte	0x57
 9058 0fb3 00000000 		.4byte	0
 9059 0fb7 00000000 		.4byte	0
 9060              	.LLST83:
 9061 0fbb 62000000 		.4byte	.LVL254
 9062 0fbf 64000000 		.4byte	.LVL255
 9063 0fc3 0100     		.2byte	0x1
 9064 0fc5 55       		.byte	0x55
 9065 0fc6 70000000 		.4byte	.LVL257
 9066 0fca F8000000 		.4byte	.LVL265
 9067 0fce 0100     		.2byte	0x1
 9068 0fd0 55       		.byte	0x55
 9069 0fd1 00000000 		.4byte	0
 9070 0fd5 00000000 		.4byte	0
 9071              	.LLST84:
 9072 0fd9 70000000 		.4byte	.LVL257
 9073 0fdd E8000000 		.4byte	.LVL263
 9074 0fe1 0100     		.2byte	0x1
 9075 0fe3 54       		.byte	0x54
 9076 0fe4 EA000000 		.4byte	.LVL264
 9077 0fe8 F8000000 		.4byte	.LVL265
 9078 0fec 0100     		.2byte	0x1
 9079 0fee 54       		.byte	0x54
 9080 0fef 00000000 		.4byte	0
 9081 0ff3 00000000 		.4byte	0
 9082              	.LLST85:
 9083 0ff7 00000000 		.4byte	.LVL267
 9084 0ffb 36000000 		.4byte	.LVL268
 9085 0fff 0100     		.2byte	0x1
 9086 1001 50       		.byte	0x50
 9087 1002 36000000 		.4byte	.LVL268
 9088 1006 80000000 		.4byte	.LFE61
 9089 100a 0400     		.2byte	0x4
 9090 100c F3       		.byte	0xf3
 9091 100d 01       		.uleb128 0x1
ARM GAS  C:\Users\boise\AppData\Local\Temp\ccDu5XGS.s 			page 174


 9092 100e 50       		.byte	0x50
 9093 100f 9F       		.byte	0x9f
 9094 1010 00000000 		.4byte	0
 9095 1014 00000000 		.4byte	0
 9096              	.LLST86:
 9097 1018 00000000 		.4byte	.LVL270
 9098 101c 07000000 		.4byte	.LVL271-1
 9099 1020 0100     		.2byte	0x1
 9100 1022 50       		.byte	0x50
 9101 1023 07000000 		.4byte	.LVL271-1
 9102 1027 1A000000 		.4byte	.LVL278
 9103 102b 0100     		.2byte	0x1
 9104 102d 56       		.byte	0x56
 9105 102e 1A000000 		.4byte	.LVL278
 9106 1032 1C000000 		.4byte	.LFE62
 9107 1036 0400     		.2byte	0x4
 9108 1038 F3       		.byte	0xf3
 9109 1039 01       		.uleb128 0x1
 9110 103a 50       		.byte	0x50
 9111 103b 9F       		.byte	0x9f
 9112 103c 00000000 		.4byte	0
 9113 1040 00000000 		.4byte	0
 9114              	.LLST87:
 9115 1044 0A000000 		.4byte	.LVL272
 9116 1048 0E000000 		.4byte	.LVL273
 9117 104c 0100     		.2byte	0x1
 9118 104e 50       		.byte	0x50
 9119 104f 0E000000 		.4byte	.LVL273
 9120 1053 1A000000 		.4byte	.LVL277
 9121 1057 0100     		.2byte	0x1
 9122 1059 55       		.byte	0x55
 9123 105a 00000000 		.4byte	0
 9124 105e 00000000 		.4byte	0
 9125              	.LLST88:
 9126 1062 0A000000 		.4byte	.LVL272
 9127 1066 0E000000 		.4byte	.LVL273
 9128 106a 0200     		.2byte	0x2
 9129 106c 30       		.byte	0x30
 9130 106d 9F       		.byte	0x9f
 9131 106e 0E000000 		.4byte	.LVL273
 9132 1072 1A000000 		.4byte	.LVL276
 9133 1076 0100     		.2byte	0x1
 9134 1078 54       		.byte	0x54
 9135 1079 00000000 		.4byte	0
 9136 107d 00000000 		.4byte	0
 9137              	.LLST89:
 9138 1081 00000000 		.4byte	.LVL279
 9139 1085 05000000 		.4byte	.LVL280-1
 9140 1089 0100     		.2byte	0x1
 9141 108b 50       		.byte	0x50
 9142 108c 05000000 		.4byte	.LVL280-1
 9143 1090 0E000000 		.4byte	.LFE63
 9144 1094 0400     		.2byte	0x4
 9145 1096 F3       		.byte	0xf3
 9146 1097 01       		.uleb128 0x1
 9147 1098 50       		.byte	0x50
 9148 1099 9F       		.byte	0x9f
ARM GAS  C:\Users\boise\AppData\Local\Temp\ccDu5XGS.s 			page 175


 9149 109a 00000000 		.4byte	0
 9150 109e 00000000 		.4byte	0
 9151              		.section	.debug_aranges,"",%progbits
 9152 0000 14010000 		.4byte	0x114
 9153 0004 0200     		.2byte	0x2
 9154 0006 00000000 		.4byte	.Ldebug_info0
 9155 000a 04       		.byte	0x4
 9156 000b 00       		.byte	0
 9157 000c 0000     		.2byte	0
 9158 000e 0000     		.2byte	0
 9159 0010 00000000 		.4byte	.LFB34
 9160 0014 8C000000 		.4byte	.LFE34-.LFB34
 9161 0018 00000000 		.4byte	.LFB39
 9162 001c 4C010000 		.4byte	.LFE39-.LFB39
 9163 0020 00000000 		.4byte	.LFB52
 9164 0024 64000000 		.4byte	.LFE52-.LFB52
 9165 0028 00000000 		.4byte	.LFB54
 9166 002c 44010000 		.4byte	.LFE54-.LFB54
 9167 0030 00000000 		.4byte	.LFB33
 9168 0034 44000000 		.4byte	.LFE33-.LFB33
 9169 0038 00000000 		.4byte	.LFB35
 9170 003c 1C000000 		.4byte	.LFE35-.LFB35
 9171 0040 00000000 		.4byte	.LFB36
 9172 0044 1C000000 		.4byte	.LFE36-.LFB36
 9173 0048 00000000 		.4byte	.LFB37
 9174 004c 22000000 		.4byte	.LFE37-.LFB37
 9175 0050 00000000 		.4byte	.LFB38
 9176 0054 30000000 		.4byte	.LFE38-.LFB38
 9177 0058 00000000 		.4byte	.LFB40
 9178 005c 18000000 		.4byte	.LFE40-.LFB40
 9179 0060 00000000 		.4byte	.LFB41
 9180 0064 2A000000 		.4byte	.LFE41-.LFB41
 9181 0068 00000000 		.4byte	.LFB42
 9182 006c 40000000 		.4byte	.LFE42-.LFB42
 9183 0070 00000000 		.4byte	.LFB32
 9184 0074 30000000 		.4byte	.LFE32-.LFB32
 9185 0078 00000000 		.4byte	.LFB43
 9186 007c 0C000000 		.4byte	.LFE43-.LFB43
 9187 0080 00000000 		.4byte	.LFB44
 9188 0084 0C000000 		.4byte	.LFE44-.LFB44
 9189 0088 00000000 		.4byte	.LFB45
 9190 008c 0C000000 		.4byte	.LFE45-.LFB45
 9191 0090 00000000 		.4byte	.LFB46
 9192 0094 0C000000 		.4byte	.LFE46-.LFB46
 9193 0098 00000000 		.4byte	.LFB47
 9194 009c 10000000 		.4byte	.LFE47-.LFB47
 9195 00a0 00000000 		.4byte	.LFB48
 9196 00a4 0C000000 		.4byte	.LFE48-.LFB48
 9197 00a8 00000000 		.4byte	.LFB49
 9198 00ac 0C000000 		.4byte	.LFE49-.LFB49
 9199 00b0 00000000 		.4byte	.LFB50
 9200 00b4 0C000000 		.4byte	.LFE50-.LFB50
 9201 00b8 00000000 		.4byte	.LFB51
 9202 00bc 4C000000 		.4byte	.LFE51-.LFB51
 9203 00c0 00000000 		.4byte	.LFB53
 9204 00c4 50000000 		.4byte	.LFE53-.LFB53
 9205 00c8 00000000 		.4byte	.LFB55
ARM GAS  C:\Users\boise\AppData\Local\Temp\ccDu5XGS.s 			page 176


 9206 00cc D6000000 		.4byte	.LFE55-.LFB55
 9207 00d0 00000000 		.4byte	.LFB56
 9208 00d4 58000000 		.4byte	.LFE56-.LFB56
 9209 00d8 00000000 		.4byte	.LFB57
 9210 00dc 70000000 		.4byte	.LFE57-.LFB57
 9211 00e0 00000000 		.4byte	.LFB58
 9212 00e4 48010000 		.4byte	.LFE58-.LFB58
 9213 00e8 00000000 		.4byte	.LFB59
 9214 00ec 44000000 		.4byte	.LFE59-.LFB59
 9215 00f0 00000000 		.4byte	.LFB60
 9216 00f4 14010000 		.4byte	.LFE60-.LFB60
 9217 00f8 00000000 		.4byte	.LFB61
 9218 00fc 80000000 		.4byte	.LFE61-.LFB61
 9219 0100 00000000 		.4byte	.LFB62
 9220 0104 1C000000 		.4byte	.LFE62-.LFB62
 9221 0108 00000000 		.4byte	.LFB63
 9222 010c 0E000000 		.4byte	.LFE63-.LFB63
 9223 0110 00000000 		.4byte	0
 9224 0114 00000000 		.4byte	0
 9225              		.section	.debug_ranges,"",%progbits
 9226              	.Ldebug_ranges0:
 9227 0000 00000000 		.4byte	.LFB34
 9228 0004 8C000000 		.4byte	.LFE34
 9229 0008 00000000 		.4byte	.LFB39
 9230 000c 4C010000 		.4byte	.LFE39
 9231 0010 00000000 		.4byte	.LFB52
 9232 0014 64000000 		.4byte	.LFE52
 9233 0018 00000000 		.4byte	.LFB54
 9234 001c 44010000 		.4byte	.LFE54
 9235 0020 00000000 		.4byte	.LFB33
 9236 0024 44000000 		.4byte	.LFE33
 9237 0028 00000000 		.4byte	.LFB35
 9238 002c 1C000000 		.4byte	.LFE35
 9239 0030 00000000 		.4byte	.LFB36
 9240 0034 1C000000 		.4byte	.LFE36
 9241 0038 00000000 		.4byte	.LFB37
 9242 003c 22000000 		.4byte	.LFE37
 9243 0040 00000000 		.4byte	.LFB38
 9244 0044 30000000 		.4byte	.LFE38
 9245 0048 00000000 		.4byte	.LFB40
 9246 004c 18000000 		.4byte	.LFE40
 9247 0050 00000000 		.4byte	.LFB41
 9248 0054 2A000000 		.4byte	.LFE41
 9249 0058 00000000 		.4byte	.LFB42
 9250 005c 40000000 		.4byte	.LFE42
 9251 0060 00000000 		.4byte	.LFB32
 9252 0064 30000000 		.4byte	.LFE32
 9253 0068 00000000 		.4byte	.LFB43
 9254 006c 0C000000 		.4byte	.LFE43
 9255 0070 00000000 		.4byte	.LFB44
 9256 0074 0C000000 		.4byte	.LFE44
 9257 0078 00000000 		.4byte	.LFB45
 9258 007c 0C000000 		.4byte	.LFE45
 9259 0080 00000000 		.4byte	.LFB46
 9260 0084 0C000000 		.4byte	.LFE46
 9261 0088 00000000 		.4byte	.LFB47
 9262 008c 10000000 		.4byte	.LFE47
ARM GAS  C:\Users\boise\AppData\Local\Temp\ccDu5XGS.s 			page 177


 9263 0090 00000000 		.4byte	.LFB48
 9264 0094 0C000000 		.4byte	.LFE48
 9265 0098 00000000 		.4byte	.LFB49
 9266 009c 0C000000 		.4byte	.LFE49
 9267 00a0 00000000 		.4byte	.LFB50
 9268 00a4 0C000000 		.4byte	.LFE50
 9269 00a8 00000000 		.4byte	.LFB51
 9270 00ac 4C000000 		.4byte	.LFE51
 9271 00b0 00000000 		.4byte	.LFB53
 9272 00b4 50000000 		.4byte	.LFE53
 9273 00b8 00000000 		.4byte	.LFB55
 9274 00bc D6000000 		.4byte	.LFE55
 9275 00c0 00000000 		.4byte	.LFB56
 9276 00c4 58000000 		.4byte	.LFE56
 9277 00c8 00000000 		.4byte	.LFB57
 9278 00cc 70000000 		.4byte	.LFE57
 9279 00d0 00000000 		.4byte	.LFB58
 9280 00d4 48010000 		.4byte	.LFE58
 9281 00d8 00000000 		.4byte	.LFB59
 9282 00dc 44000000 		.4byte	.LFE59
 9283 00e0 00000000 		.4byte	.LFB60
 9284 00e4 14010000 		.4byte	.LFE60
 9285 00e8 00000000 		.4byte	.LFB61
 9286 00ec 80000000 		.4byte	.LFE61
 9287 00f0 00000000 		.4byte	.LFB62
 9288 00f4 1C000000 		.4byte	.LFE62
 9289 00f8 00000000 		.4byte	.LFB63
 9290 00fc 0E000000 		.4byte	.LFE63
 9291 0100 00000000 		.4byte	0
 9292 0104 00000000 		.4byte	0
 9293              		.section	.debug_line,"",%progbits
 9294              	.Ldebug_line0:
 9295 0000 49060000 		.section	.debug_str,"MS",%progbits,1
 9295      02001C02 
 9295      00000201 
 9295      FB0E0D00 
 9295      01010101 
 9296              	.LASF84:
 9297 0000 6766785F 		.ascii	"gfx_drawPixel\000"
 9297      64726177 
 9297      50697865 
 9297      6C00
 9298              	.LASF121:
 9299 000e 7374726C 		.ascii	"strlen\000"
 9299      656E00
 9300              	.LASF70:
 9301 0015 6766785F 		.ascii	"gfx_init\000"
 9301      696E6974 
 9301      00
 9302              	.LASF77:
 9303 001e 6766785F 		.ascii	"gfx_rotation\000"
 9303      726F7461 
 9303      74696F6E 
 9303      00
 9304              	.LASF12:
 9305 002b 756E7369 		.ascii	"unsigned int\000"
 9305      676E6564 
ARM GAS  C:\Users\boise\AppData\Local\Temp\ccDu5XGS.s 			page 178


 9305      20696E74 
 9305      00
 9306              	.LASF81:
 9307 0038 6766785F 		.ascii	"gfx_setTextBg\000"
 9307      73657454 
 9307      65787442 
 9307      6700
 9308              	.LASF74:
 9309 0046 69326361 		.ascii	"i2caddr\000"
 9309      64647200 
 9310              	.LASF83:
 9311 004e 6766785F 		.ascii	"gfx_setRotation\000"
 9311      73657452 
 9311      6F746174 
 9311      696F6E00 
 9312              	.LASF48:
 9313 005e 64697370 		.ascii	"display_line\000"
 9313      6C61795F 
 9313      6C696E65 
 9313      00
 9314              	.LASF56:
 9315 006b 6766785F 		.ascii	"gfx_hvLine\000"
 9315      68764C69 
 9315      6E6500
 9316              	.LASF27:
 9317 0076 5343524F 		.ascii	"SCROLL_DIR\000"
 9317      4C4C5F44 
 9317      495200
 9318              	.LASF113:
 9319 0081 726F7461 		.ascii	"rotation\000"
 9319      74696F6E 
 9319      00
 9320              	.LASF69:
 9321 008a 73706565 		.ascii	"speed\000"
 9321      6400
 9322              	.LASF73:
 9323 0090 64697370 		.ascii	"display_init\000"
 9323      6C61795F 
 9323      696E6974 
 9323      00
 9324              	.LASF28:
 9325 009d 5343524F 		.ascii	"SCROLL_SPEED_0\000"
 9325      4C4C5F53 
 9325      50454544 
 9325      5F3000
 9326              	.LASF29:
 9327 00ac 5343524F 		.ascii	"SCROLL_SPEED_1\000"
 9327      4C4C5F53 
 9327      50454544 
 9327      5F3100
 9328              	.LASF30:
 9329 00bb 5343524F 		.ascii	"SCROLL_SPEED_2\000"
 9329      4C4C5F53 
 9329      50454544 
 9329      5F3200
 9330              	.LASF31:
 9331 00ca 5343524F 		.ascii	"SCROLL_SPEED_3\000"
ARM GAS  C:\Users\boise\AppData\Local\Temp\ccDu5XGS.s 			page 179


 9331      4C4C5F53 
 9331      50454544 
 9331      5F3300
 9332              	.LASF32:
 9333 00d9 5343524F 		.ascii	"SCROLL_SPEED_4\000"
 9333      4C4C5F53 
 9333      50454544 
 9333      5F3400
 9334              	.LASF33:
 9335 00e8 5343524F 		.ascii	"SCROLL_SPEED_5\000"
 9335      4C4C5F53 
 9335      50454544 
 9335      5F3500
 9336              	.LASF34:
 9337 00f7 5343524F 		.ascii	"SCROLL_SPEED_6\000"
 9337      4C4C5F53 
 9337      50454544 
 9337      5F3600
 9338              	.LASF35:
 9339 0106 5343524F 		.ascii	"SCROLL_SPEED_7\000"
 9339      4C4C5F53 
 9339      50454544 
 9339      5F3700
 9340              	.LASF112:
 9341 0115 48454947 		.ascii	"HEIGHT\000"
 9341      485400
 9342              	.LASF13:
 9343 011c 696E7438 		.ascii	"int8_t\000"
 9343      5F7400
 9344              	.LASF57:
 9345 0123 73697A65 		.ascii	"size\000"
 9345      00
 9346              	.LASF20:
 9347 0128 666C6F61 		.ascii	"float\000"
 9347      7400
 9348              	.LASF49:
 9349 012e 70737461 		.ascii	"pstart\000"
 9349      727400
 9350              	.LASF106:
 9351 0135 63757273 		.ascii	"cursor_x\000"
 9351      6F725F78 
 9351      00
 9352              	.LASF107:
 9353 013e 63757273 		.ascii	"cursor_y\000"
 9353      6F725F79 
 9353      00
 9354              	.LASF93:
 9355 0147 6766785F 		.ascii	"gfx_drawTriangle\000"
 9355      64726177 
 9355      54726961 
 9355      6E676C65 
 9355      00
 9356              	.LASF110:
 9357 0158 74657874 		.ascii	"textsize\000"
 9357      73697A65 
 9357      00
 9358              	.LASF15:
ARM GAS  C:\Users\boise\AppData\Local\Temp\ccDu5XGS.s 			page 180


 9359 0161 696E7431 		.ascii	"int16_t\000"
 9359      365F7400 
 9360              	.LASF11:
 9361 0169 6C6F6E67 		.ascii	"long long unsigned int\000"
 9361      206C6F6E 
 9361      6720756E 
 9361      7369676E 
 9361      65642069 
 9362              	.LASF118:
 9363 0180 4932435F 		.ascii	"I2C_I2CMasterClearStatus\000"
 9363      4932434D 
 9363      61737465 
 9363      72436C65 
 9363      61725374 
 9364              	.LASF6:
 9365 0199 5F5F7569 		.ascii	"__uint16_t\000"
 9365      6E743136 
 9365      5F7400
 9366              	.LASF55:
 9367 01a4 6766785F 		.ascii	"gfx_rotation_adjust\000"
 9367      726F7461 
 9367      74696F6E 
 9367      5F61646A 
 9367      75737400 
 9368              	.LASF122:
 9369 01b8 474E5520 		.ascii	"GNU C11 5.4.1 20160609 (release) [ARM/embedded-5-br"
 9369      43313120 
 9369      352E342E 
 9369      31203230 
 9369      31363036 
 9370 01eb 616E6368 		.ascii	"anch revision 237715] -mcpu=cortex-m0 -mthumb -g -O"
 9370      20726576 
 9370      6973696F 
 9370      6E203233 
 9370      37373135 
 9371 021e 67202D66 		.ascii	"g -ffunction-sections -ffat-lto-objects\000"
 9371      66756E63 
 9371      74696F6E 
 9371      2D736563 
 9371      74696F6E 
 9372              	.LASF111:
 9373 0246 57494454 		.ascii	"WIDTH\000"
 9373      4800
 9374              	.LASF90:
 9375 024c 6766785F 		.ascii	"gfx_drawCircle\000"
 9375      64726177 
 9375      43697263 
 9375      6C6500
 9376              	.LASF71:
 9377 025b 77696474 		.ascii	"width\000"
 9377      6800
 9378              	.LASF47:
 9379 0261 64697370 		.ascii	"display_setPixel\000"
 9379      6C61795F 
 9379      73657450 
 9379      6978656C 
 9379      00
ARM GAS  C:\Users\boise\AppData\Local\Temp\ccDu5XGS.s 			page 181


 9380              	.LASF37:
 9381 0272 5343524F 		.ascii	"SCROLL_PAGE_0\000"
 9381      4C4C5F50 
 9381      4147455F 
 9381      3000
 9382              	.LASF38:
 9383 0280 5343524F 		.ascii	"SCROLL_PAGE_1\000"
 9383      4C4C5F50 
 9383      4147455F 
 9383      3100
 9384              	.LASF39:
 9385 028e 5343524F 		.ascii	"SCROLL_PAGE_2\000"
 9385      4C4C5F50 
 9385      4147455F 
 9385      3200
 9386              	.LASF40:
 9387 029c 5343524F 		.ascii	"SCROLL_PAGE_3\000"
 9387      4C4C5F50 
 9387      4147455F 
 9387      3300
 9388              	.LASF41:
 9389 02aa 5343524F 		.ascii	"SCROLL_PAGE_4\000"
 9389      4C4C5F50 
 9389      4147455F 
 9389      3400
 9390              	.LASF42:
 9391 02b8 5343524F 		.ascii	"SCROLL_PAGE_5\000"
 9391      4C4C5F50 
 9391      4147455F 
 9391      3500
 9392              	.LASF43:
 9393 02c6 5343524F 		.ascii	"SCROLL_PAGE_6\000"
 9393      4C4C5F50 
 9393      4147455F 
 9393      3600
 9394              	.LASF44:
 9395 02d4 5343524F 		.ascii	"SCROLL_PAGE_7\000"
 9395      4C4C5F50 
 9395      4147455F 
 9395      3700
 9396              	.LASF124:
 9397 02e2 433A5C55 		.ascii	"C:\\Users\\boise\\Documents\\PSoC Creator\\VoltMete"
 9397      73657273 
 9397      5C626F69 
 9397      73655C44 
 9397      6F63756D 
 9398 0310 725C4361 		.ascii	"r\\CarVolt1.cydsn\000"
 9398      72566F6C 
 9398      74312E63 
 9398      7964736E 
 9398      00
 9399              	.LASF101:
 9400 0321 53534431 		.ascii	"SSD1306_buffer\000"
 9400      3330365F 
 9400      62756666 
 9400      657200
 9401              	.LASF85:
ARM GAS  C:\Users\boise\AppData\Local\Temp\ccDu5XGS.s 			page 182


 9402 0330 6766785F 		.ascii	"gfx_drawLine\000"
 9402      64726177 
 9402      4C696E65 
 9402      00
 9403              	.LASF65:
 9404 033d 64697370 		.ascii	"display_update\000"
 9404      6C61795F 
 9404      75706461 
 9404      746500
 9405              	.LASF22:
 9406 034c 63686172 		.ascii	"char\000"
 9406      00
 9407              	.LASF18:
 9408 0351 75696E74 		.ascii	"uint16\000"
 9408      313600
 9409              	.LASF64:
 9410 0358 696E7665 		.ascii	"invert\000"
 9410      727400
 9411              	.LASF14:
 9412 035f 75696E74 		.ascii	"uint8_t\000"
 9412      385F7400 
 9413              	.LASF58:
 9414 0367 73746174 		.ascii	"status\000"
 9414      757300
 9415              	.LASF88:
 9416 036e 6766785F 		.ascii	"gfx_drawRect\000"
 9416      64726177 
 9416      52656374 
 9416      00
 9417              	.LASF104:
 9418 037b 5F776964 		.ascii	"_width\000"
 9418      746800
 9419              	.LASF86:
 9420 0382 73746565 		.ascii	"steep\000"
 9420      7000
 9421              	.LASF10:
 9422 0388 6C6F6E67 		.ascii	"long long int\000"
 9422      206C6F6E 
 9422      6720696E 
 9422      7400
 9423              	.LASF61:
 9424 0396 636F6E74 		.ascii	"contrast\000"
 9424      72617374 
 9424      00
 9425              	.LASF36:
 9426 039f 5343524F 		.ascii	"SCROLL_SPEED\000"
 9426      4C4C5F53 
 9426      50454544 
 9426      00
 9427              	.LASF45:
 9428 03ac 5343524F 		.ascii	"SCROLL_AREA\000"
 9428      4C4C5F41 
 9428      52454100 
 9429              	.LASF75:
 9430 03b8 6766785F 		.ascii	"gfx_width\000"
 9430      77696474 
 9430      6800
ARM GAS  C:\Users\boise\AppData\Local\Temp\ccDu5XGS.s 			page 183


 9431              	.LASF4:
 9432 03c2 5F5F696E 		.ascii	"__int16_t\000"
 9432      7431365F 
 9432      7400
 9433              	.LASF105:
 9434 03cc 5F686569 		.ascii	"_height\000"
 9434      67687400 
 9435              	.LASF119:
 9436 03d4 6D656D73 		.ascii	"memset\000"
 9436      657400
 9437              	.LASF50:
 9438 03db 70656E64 		.ascii	"pend\000"
 9438      00
 9439              	.LASF103:
 9440 03e0 5F646973 		.ascii	"_displaybuf_size\000"
 9440      706C6179 
 9440      6275665F 
 9440      73697A65 
 9440      00
 9441              	.LASF19:
 9442 03f1 75696E74 		.ascii	"uint32\000"
 9442      333200
 9443              	.LASF125:
 9444 03f8 64697370 		.ascii	"display_write_buf\000"
 9444      6C61795F 
 9444      77726974 
 9444      655F6275 
 9444      6600
 9445              	.LASF115:
 9446 040a 4932435F 		.ascii	"I2C_I2CMasterWriteBuf\000"
 9446      4932434D 
 9446      61737465 
 9446      72577269 
 9446      74654275 
 9447              	.LASF51:
 9448 0420 6D61736B 		.ascii	"mask\000"
 9448      00
 9449              	.LASF100:
 9450 0425 5F693263 		.ascii	"_i2caddr\000"
 9450      61646472 
 9450      00
 9451              	.LASF72:
 9452 042e 68656967 		.ascii	"height\000"
 9452      687400
 9453              	.LASF80:
 9454 0435 6766785F 		.ascii	"gfx_setTextColor\000"
 9454      73657454 
 9454      65787443 
 9454      6F6C6F72 
 9454      00
 9455              	.LASF0:
 9456 0446 5F5F696E 		.ascii	"__int8_t\000"
 9456      74385F74 
 9456      00
 9457              	.LASF116:
 9458 044f 4932435F 		.ascii	"I2C_I2CMasterStatus\000"
 9458      4932434D 
ARM GAS  C:\Users\boise\AppData\Local\Temp\ccDu5XGS.s 			page 184


 9458      61737465 
 9458      72537461 
 9458      74757300 
 9459              	.LASF23:
 9460 0463 6C6F6E67 		.ascii	"long double\000"
 9460      20646F75 
 9460      626C6500 
 9461              	.LASF76:
 9462 046f 6766785F 		.ascii	"gfx_height\000"
 9462      68656967 
 9462      687400
 9463              	.LASF16:
 9464 047a 75696E74 		.ascii	"uint16_t\000"
 9464      31365F74 
 9464      00
 9465              	.LASF117:
 9466 0483 4932435F 		.ascii	"I2C_I2CMasterGetWriteBufSize\000"
 9466      4932434D 
 9466      61737465 
 9466      72476574 
 9466      57726974 
 9467              	.LASF89:
 9468 04a0 6766785F 		.ascii	"gfx_fillRect\000"
 9468      66696C6C 
 9468      52656374 
 9468      00
 9469              	.LASF5:
 9470 04ad 73686F72 		.ascii	"short int\000"
 9470      7420696E 
 9470      7400
 9471              	.LASF54:
 9472 04b7 7069786D 		.ascii	"pixmask\000"
 9472      61736B00 
 9473              	.LASF8:
 9474 04bf 6C6F6E67 		.ascii	"long int\000"
 9474      20696E74 
 9474      00
 9475              	.LASF98:
 9476 04c8 6766785F 		.ascii	"gfx_println\000"
 9476      7072696E 
 9476      746C6E00 
 9477              	.LASF96:
 9478 04d4 6766785F 		.ascii	"gfx_write\000"
 9478      77726974 
 9478      6500
 9479              	.LASF63:
 9480 04de 64697370 		.ascii	"display_invert\000"
 9480      6C61795F 
 9480      696E7665 
 9480      727400
 9481              	.LASF46:
 9482 04ed 636F6C6F 		.ascii	"color\000"
 9482      7200
 9483              	.LASF79:
 9484 04f3 6766785F 		.ascii	"gfx_setTextSize\000"
 9484      73657454 
 9484      65787453 
ARM GAS  C:\Users\boise\AppData\Local\Temp\ccDu5XGS.s 			page 185


 9484      697A6500 
 9485              	.LASF1:
 9486 0503 5F5F7569 		.ascii	"__uint8_t\000"
 9486      6E74385F 
 9486      7400
 9487              	.LASF52:
 9488 050d 6C626974 		.ascii	"lbit\000"
 9488      00
 9489              	.LASF68:
 9490 0512 73746172 		.ascii	"start\000"
 9490      7400
 9491              	.LASF97:
 9492 0518 6766785F 		.ascii	"gfx_print\000"
 9492      7072696E 
 9492      7400
 9493              	.LASF87:
 9494 0522 79737465 		.ascii	"ystep\000"
 9494      7000
 9495              	.LASF99:
 9496 0528 666F6E74 		.ascii	"font\000"
 9496      00
 9497              	.LASF24:
 9498 052d 73697A65 		.ascii	"sizetype\000"
 9498      74797065 
 9498      00
 9499              	.LASF62:
 9500 0536 636D6462 		.ascii	"cmdbuf\000"
 9500      756600
 9501              	.LASF9:
 9502 053d 6C6F6E67 		.ascii	"long unsigned int\000"
 9502      20756E73 
 9502      69676E65 
 9502      6420696E 
 9502      7400
 9503              	.LASF26:
 9504 054f 5343524F 		.ascii	"SCROLL_LEFT\000"
 9504      4C4C5F4C 
 9504      45465400 
 9505              	.LASF59:
 9506 055b 64697370 		.ascii	"display_clear\000"
 9506      6C61795F 
 9506      636C6561 
 9506      7200
 9507              	.LASF114:
 9508 0569 77726170 		.ascii	"wrap\000"
 9508      00
 9509              	.LASF25:
 9510 056e 5343524F 		.ascii	"SCROLL_RIGHT\000"
 9510      4C4C5F52 
 9510      49474854 
 9510      00
 9511              	.LASF3:
 9512 057b 756E7369 		.ascii	"unsigned char\000"
 9512      676E6564 
 9512      20636861 
 9512      7200
 9513              	.LASF53:
ARM GAS  C:\Users\boise\AppData\Local\Temp\ccDu5XGS.s 			page 186


 9514 0589 75626974 		.ascii	"ubit\000"
 9514      00
 9515              	.LASF95:
 9516 058e 6C696E65 		.ascii	"line\000"
 9516      00
 9517              	.LASF123:
 9518 0593 2E2E5C2E 		.ascii	"..\\..\\Cypress-PSOC-OLED-master\\Cypress-PSOC-OLED"
 9518      2E5C4379 
 9518      70726573 
 9518      732D5053 
 9518      4F432D4F 
 9519 05c3 2D6D6173 		.ascii	"-master\\OLED.cydsn\\ssd1306.c\000"
 9519      7465725C 
 9519      4F4C4544 
 9519      2E637964 
 9519      736E5C73 
 9520              	.LASF94:
 9521 05e0 6766785F 		.ascii	"gfx_drawChar\000"
 9521      64726177 
 9521      43686172 
 9521      00
 9522              	.LASF67:
 9523 05ed 64697370 		.ascii	"display_scroll\000"
 9523      6C61795F 
 9523      7363726F 
 9523      6C6C00
 9524              	.LASF102:
 9525 05fc 5F646973 		.ascii	"_displaybuf\000"
 9525      706C6179 
 9525      62756600 
 9526              	.LASF60:
 9527 0608 64697370 		.ascii	"display_contrast\000"
 9527      6C61795F 
 9527      636F6E74 
 9527      72617374 
 9527      00
 9528              	.LASF91:
 9529 0619 6464465F 		.ascii	"ddF_x\000"
 9529      7800
 9530              	.LASF92:
 9531 061f 6464465F 		.ascii	"ddF_y\000"
 9531      7900
 9532              	.LASF2:
 9533 0625 7369676E 		.ascii	"signed char\000"
 9533      65642063 
 9533      68617200 
 9534              	.LASF7:
 9535 0631 73686F72 		.ascii	"short unsigned int\000"
 9535      7420756E 
 9535      7369676E 
 9535      65642069 
 9535      6E7400
 9536              	.LASF120:
 9537 0644 6D656D63 		.ascii	"memcpy\000"
 9537      707900
 9538              	.LASF66:
 9539 064b 64697370 		.ascii	"display_stopscroll\000"
ARM GAS  C:\Users\boise\AppData\Local\Temp\ccDu5XGS.s 			page 187


 9539      6C61795F 
 9539      73746F70 
 9539      7363726F 
 9539      6C6C00
 9540              	.LASF17:
 9541 065e 75696E74 		.ascii	"uint8\000"
 9541      3800
 9542              	.LASF21:
 9543 0664 646F7562 		.ascii	"double\000"
 9543      6C6500
 9544              	.LASF108:
 9545 066b 74657874 		.ascii	"textcolor\000"
 9545      636F6C6F 
 9545      7200
 9546              	.LASF109:
 9547 0675 74657874 		.ascii	"textbgcolor\000"
 9547      6267636F 
 9547      6C6F7200 
 9548              	.LASF78:
 9549 0681 6766785F 		.ascii	"gfx_setCursor\000"
 9549      73657443 
 9549      7572736F 
 9549      7200
 9550              	.LASF82:
 9551 068f 6766785F 		.ascii	"gfx_setTextWrap\000"
 9551      73657454 
 9551      65787457 
 9551      72617000 
 9552              		.ident	"GCC: (GNU Tools for ARM Embedded Processors) 5.4.1 20160609 (release) [ARM/embedded-5-bran
