ARM GAS  C:\Users\boise\AppData\Local\Temp\ccDu5XGS.s 			page 1


   1              		.syntax unified
   2              		.cpu cortex-m0
   3              		.fpu softvfp
   4              		.eabi_attribute 20, 1
   5              		.eabi_attribute 21, 1
   6              		.eabi_attribute 23, 3
   7              		.eabi_attribute 24, 1
   8              		.eabi_attribute 25, 1
   9              		.eabi_attribute 26, 1
  10              		.eabi_attribute 30, 1
  11              		.eabi_attribute 34, 0
  12              		.eabi_attribute 18, 4
  13              		.thumb
  14              		.syntax unified
  15              		.file	"ssd1306.c"
  16              		.text
  17              	.Ltext0:
  18              		.cfi_sections	.debug_frame
  19              		.section	.text.display_setPixel,"ax",%progbits
  20              		.align	2
  21              		.code	16
  22              		.thumb_func
  23              		.type	display_setPixel, %function
  24              	display_setPixel:
  25              	.LFB34:
  26              		.file 1 "..\\..\\Cypress-PSOC-OLED-master\\Cypress-PSOC-OLED-master\\OLED.cydsn\\ssd1306.c"
   1:..\..\Cypress-PSOC-OLED-master\Cypress-PSOC-OLED-master\OLED.cydsn/ssd1306.c **** /*
   2:..\..\Cypress-PSOC-OLED-master\Cypress-PSOC-OLED-master\OLED.cydsn/ssd1306.c **** 
   3:..\..\Cypress-PSOC-OLED-master\Cypress-PSOC-OLED-master\OLED.cydsn/ssd1306.c **** SSD1306 OLED - I2C driver
   4:..\..\Cypress-PSOC-OLED-master\Cypress-PSOC-OLED-master\OLED.cydsn/ssd1306.c **** 
   5:..\..\Cypress-PSOC-OLED-master\Cypress-PSOC-OLED-master\OLED.cydsn/ssd1306.c **** Derk Steggewentz, 3/2015 
   6:..\..\Cypress-PSOC-OLED-master\Cypress-PSOC-OLED-master\OLED.cydsn/ssd1306.c **** 
   7:..\..\Cypress-PSOC-OLED-master\Cypress-PSOC-OLED-master\OLED.cydsn/ssd1306.c **** This is a I2C driver for SSD1306 OLED displays including graphics library.
   8:..\..\Cypress-PSOC-OLED-master\Cypress-PSOC-OLED-master\OLED.cydsn/ssd1306.c **** 
   9:..\..\Cypress-PSOC-OLED-master\Cypress-PSOC-OLED-master\OLED.cydsn/ssd1306.c **** 
  10:..\..\Cypress-PSOC-OLED-master\Cypress-PSOC-OLED-master\OLED.cydsn/ssd1306.c **** The graphics library part (gfx_ functions) is based on the Adafruit graphics library.
  11:..\..\Cypress-PSOC-OLED-master\Cypress-PSOC-OLED-master\OLED.cydsn/ssd1306.c **** 
  12:..\..\Cypress-PSOC-OLED-master\Cypress-PSOC-OLED-master\OLED.cydsn/ssd1306.c **** 
  13:..\..\Cypress-PSOC-OLED-master\Cypress-PSOC-OLED-master\OLED.cydsn/ssd1306.c **** No license restrictions on my part, do whatever you want as long as you follow the inherited
  14:..\..\Cypress-PSOC-OLED-master\Cypress-PSOC-OLED-master\OLED.cydsn/ssd1306.c **** license requirements (applying to the Adafruit graphics library part).
  15:..\..\Cypress-PSOC-OLED-master\Cypress-PSOC-OLED-master\OLED.cydsn/ssd1306.c **** 
  16:..\..\Cypress-PSOC-OLED-master\Cypress-PSOC-OLED-master\OLED.cydsn/ssd1306.c **** 
  17:..\..\Cypress-PSOC-OLED-master\Cypress-PSOC-OLED-master\OLED.cydsn/ssd1306.c **** ===== derived license (for graphics library) ======
  18:..\..\Cypress-PSOC-OLED-master\Cypress-PSOC-OLED-master\OLED.cydsn/ssd1306.c **** 
  19:..\..\Cypress-PSOC-OLED-master\Cypress-PSOC-OLED-master\OLED.cydsn/ssd1306.c **** Copyright (c) 2013 Adafruit Industries. All rights reserved.
  20:..\..\Cypress-PSOC-OLED-master\Cypress-PSOC-OLED-master\OLED.cydsn/ssd1306.c **** 
  21:..\..\Cypress-PSOC-OLED-master\Cypress-PSOC-OLED-master\OLED.cydsn/ssd1306.c **** Redistribution and use in source and binary forms, with or without
  22:..\..\Cypress-PSOC-OLED-master\Cypress-PSOC-OLED-master\OLED.cydsn/ssd1306.c **** modification, are permitted provided that the following conditions are met:
  23:..\..\Cypress-PSOC-OLED-master\Cypress-PSOC-OLED-master\OLED.cydsn/ssd1306.c **** - Redistributions of source code must retain the above copyright notice,
  24:..\..\Cypress-PSOC-OLED-master\Cypress-PSOC-OLED-master\OLED.cydsn/ssd1306.c **** this list of conditions and the following disclaimer.
  25:..\..\Cypress-PSOC-OLED-master\Cypress-PSOC-OLED-master\OLED.cydsn/ssd1306.c **** - Redistributions in binary form must reproduce the above copyright notice,
  26:..\..\Cypress-PSOC-OLED-master\Cypress-PSOC-OLED-master\OLED.cydsn/ssd1306.c **** this list of conditions and the following disclaimer in the documentation
  27:..\..\Cypress-PSOC-OLED-master\Cypress-PSOC-OLED-master\OLED.cydsn/ssd1306.c **** and/or other materials provided with the distribution.
  28:..\..\Cypress-PSOC-OLED-master\Cypress-PSOC-OLED-master\OLED.cydsn/ssd1306.c **** THIS SOFTWARE IS PROVIDED BY THE COPYRIGHT HOLDERS AND CONTRIBUTORS "AS IS"
  29:..\..\Cypress-PSOC-OLED-master\Cypress-PSOC-OLED-master\OLED.cydsn/ssd1306.c **** AND ANY EXPRESS OR IMPLIED WARRANTIES, INCLUDING, BUT NOT LIMITED TO, THE
  30:..\..\Cypress-PSOC-OLED-master\Cypress-PSOC-OLED-master\OLED.cydsn/ssd1306.c **** IMPLIED WARRANTIES OF MERCHANTABILITY AND FITNESS FOR A PARTICULAR PURPOSE
  31:..\..\Cypress-PSOC-OLED-master\Cypress-PSOC-OLED-master\OLED.cydsn/ssd1306.c **** ARE DISCLAIMED. IN NO EVENT SHALL THE COPYRIGHT HOLDER OR CONTRIBUTORS BE
ARM GAS  C:\Users\boise\AppData\Local\Temp\ccDu5XGS.s 			page 2


  32:..\..\Cypress-PSOC-OLED-master\Cypress-PSOC-OLED-master\OLED.cydsn/ssd1306.c **** LIABLE FOR ANY DIRECT, INDIRECT, INCIDENTAL, SPECIAL, EXEMPLARY, OR
  33:..\..\Cypress-PSOC-OLED-master\Cypress-PSOC-OLED-master\OLED.cydsn/ssd1306.c **** CONSEQUENTIAL DAMAGES (INCLUDING, BUT NOT LIMITED TO, PROCUREMENT OF
  34:..\..\Cypress-PSOC-OLED-master\Cypress-PSOC-OLED-master\OLED.cydsn/ssd1306.c **** SUBSTITUTE GOODS OR SERVICES; LOSS OF USE, DATA, OR PROFITS; OR BUSINESS
  35:..\..\Cypress-PSOC-OLED-master\Cypress-PSOC-OLED-master\OLED.cydsn/ssd1306.c **** INTERRUPTION) HOWEVER CAUSED AND ON ANY THEORY OF LIABILITY, WHETHER IN
  36:..\..\Cypress-PSOC-OLED-master\Cypress-PSOC-OLED-master\OLED.cydsn/ssd1306.c **** CONTRACT, STRICT LIABILITY, OR TORT (INCLUDING NEGLIGENCE OR OTHERWISE)
  37:..\..\Cypress-PSOC-OLED-master\Cypress-PSOC-OLED-master\OLED.cydsn/ssd1306.c **** ARISING IN ANY WAY OUT OF THE USE OF THIS SOFTWARE, EVEN IF ADVISED OF THE
  38:..\..\Cypress-PSOC-OLED-master\Cypress-PSOC-OLED-master\OLED.cydsn/ssd1306.c **** POSSIBILITY OF SUCH DAMAGE.
  39:..\..\Cypress-PSOC-OLED-master\Cypress-PSOC-OLED-master\OLED.cydsn/ssd1306.c **** 
  40:..\..\Cypress-PSOC-OLED-master\Cypress-PSOC-OLED-master\OLED.cydsn/ssd1306.c **** */
  41:..\..\Cypress-PSOC-OLED-master\Cypress-PSOC-OLED-master\OLED.cydsn/ssd1306.c **** 
  42:..\..\Cypress-PSOC-OLED-master\Cypress-PSOC-OLED-master\OLED.cydsn/ssd1306.c **** 
  43:..\..\Cypress-PSOC-OLED-master\Cypress-PSOC-OLED-master\OLED.cydsn/ssd1306.c **** #include <project.h>
  44:..\..\Cypress-PSOC-OLED-master\Cypress-PSOC-OLED-master\OLED.cydsn/ssd1306.c **** #include <stdlib.h>
  45:..\..\Cypress-PSOC-OLED-master\Cypress-PSOC-OLED-master\OLED.cydsn/ssd1306.c **** 
  46:..\..\Cypress-PSOC-OLED-master\Cypress-PSOC-OLED-master\OLED.cydsn/ssd1306.c **** #include "font.h"
  47:..\..\Cypress-PSOC-OLED-master\Cypress-PSOC-OLED-master\OLED.cydsn/ssd1306.c **** #include "ssd1306.h"
  48:..\..\Cypress-PSOC-OLED-master\Cypress-PSOC-OLED-master\OLED.cydsn/ssd1306.c **** 
  49:..\..\Cypress-PSOC-OLED-master\Cypress-PSOC-OLED-master\OLED.cydsn/ssd1306.c **** 
  50:..\..\Cypress-PSOC-OLED-master\Cypress-PSOC-OLED-master\OLED.cydsn/ssd1306.c **** #define DISPLAYWIDTH 128
  51:..\..\Cypress-PSOC-OLED-master\Cypress-PSOC-OLED-master\OLED.cydsn/ssd1306.c **** #define DISPLAYHEIGHT 64
  52:..\..\Cypress-PSOC-OLED-master\Cypress-PSOC-OLED-master\OLED.cydsn/ssd1306.c ****     
  53:..\..\Cypress-PSOC-OLED-master\Cypress-PSOC-OLED-master\OLED.cydsn/ssd1306.c **** #define SSD1306_SETCONTRAST 0x81
  54:..\..\Cypress-PSOC-OLED-master\Cypress-PSOC-OLED-master\OLED.cydsn/ssd1306.c **** #define SSD1306_DISPLAYALLON_RESUME 0xA4
  55:..\..\Cypress-PSOC-OLED-master\Cypress-PSOC-OLED-master\OLED.cydsn/ssd1306.c **** #define SSD1306_DISPLAYALLON 0xA5
  56:..\..\Cypress-PSOC-OLED-master\Cypress-PSOC-OLED-master\OLED.cydsn/ssd1306.c **** #define SSD1306_NORMALDISPLAY 0xA6
  57:..\..\Cypress-PSOC-OLED-master\Cypress-PSOC-OLED-master\OLED.cydsn/ssd1306.c **** #define SSD1306_INVERTDISPLAY 0xA7
  58:..\..\Cypress-PSOC-OLED-master\Cypress-PSOC-OLED-master\OLED.cydsn/ssd1306.c **** #define SSD1306_DISPLAYOFF 0xAE
  59:..\..\Cypress-PSOC-OLED-master\Cypress-PSOC-OLED-master\OLED.cydsn/ssd1306.c **** #define SSD1306_DISPLAYON 0xAF
  60:..\..\Cypress-PSOC-OLED-master\Cypress-PSOC-OLED-master\OLED.cydsn/ssd1306.c **** #define SSD1306_SETDISPLAYOFFSET 0xD3
  61:..\..\Cypress-PSOC-OLED-master\Cypress-PSOC-OLED-master\OLED.cydsn/ssd1306.c **** #define SSD1306_SETCOMPINS 0xDA
  62:..\..\Cypress-PSOC-OLED-master\Cypress-PSOC-OLED-master\OLED.cydsn/ssd1306.c **** #define SSD1306_SETVCOMDETECT 0xDB
  63:..\..\Cypress-PSOC-OLED-master\Cypress-PSOC-OLED-master\OLED.cydsn/ssd1306.c **** #define SSD1306_SETDISPLAYCLOCKDIV 0xD5
  64:..\..\Cypress-PSOC-OLED-master\Cypress-PSOC-OLED-master\OLED.cydsn/ssd1306.c **** #define SSD1306_SETPRECHARGE 0xD9
  65:..\..\Cypress-PSOC-OLED-master\Cypress-PSOC-OLED-master\OLED.cydsn/ssd1306.c **** #define SSD1306_SETMULTIPLEX 0xA8
  66:..\..\Cypress-PSOC-OLED-master\Cypress-PSOC-OLED-master\OLED.cydsn/ssd1306.c **** #define SSD1306_SETLOWCOLUMN 0x00
  67:..\..\Cypress-PSOC-OLED-master\Cypress-PSOC-OLED-master\OLED.cydsn/ssd1306.c **** #define SSD1306_SETHIGHCOLUMN 0x10
  68:..\..\Cypress-PSOC-OLED-master\Cypress-PSOC-OLED-master\OLED.cydsn/ssd1306.c **** #define SSD1306_SETSTARTLINE 0x40
  69:..\..\Cypress-PSOC-OLED-master\Cypress-PSOC-OLED-master\OLED.cydsn/ssd1306.c **** #define SSD1306_MEMORYMODE 0x20
  70:..\..\Cypress-PSOC-OLED-master\Cypress-PSOC-OLED-master\OLED.cydsn/ssd1306.c **** #define SSD1306_COLUMNADDR 0x21
  71:..\..\Cypress-PSOC-OLED-master\Cypress-PSOC-OLED-master\OLED.cydsn/ssd1306.c **** #define SSD1306_PAGEADDR 0x22
  72:..\..\Cypress-PSOC-OLED-master\Cypress-PSOC-OLED-master\OLED.cydsn/ssd1306.c **** #define SSD1306_COMSCANINC 0xC0
  73:..\..\Cypress-PSOC-OLED-master\Cypress-PSOC-OLED-master\OLED.cydsn/ssd1306.c **** #define SSD1306_COMSCANDEC 0xC8
  74:..\..\Cypress-PSOC-OLED-master\Cypress-PSOC-OLED-master\OLED.cydsn/ssd1306.c **** #define SSD1306_SEGREMAP 0xA0
  75:..\..\Cypress-PSOC-OLED-master\Cypress-PSOC-OLED-master\OLED.cydsn/ssd1306.c **** #define SSD1306_CHARGEPUMP 0x8D
  76:..\..\Cypress-PSOC-OLED-master\Cypress-PSOC-OLED-master\OLED.cydsn/ssd1306.c **** #define SSD1306_EXTERNALVCC 0x1
  77:..\..\Cypress-PSOC-OLED-master\Cypress-PSOC-OLED-master\OLED.cydsn/ssd1306.c **** #define SSD1306_SWITCHCAPVCC 0x2
  78:..\..\Cypress-PSOC-OLED-master\Cypress-PSOC-OLED-master\OLED.cydsn/ssd1306.c **** #define SSD1306_ACTIVATE_SCROLL 0x2F
  79:..\..\Cypress-PSOC-OLED-master\Cypress-PSOC-OLED-master\OLED.cydsn/ssd1306.c **** #define SSD1306_DEACTIVATE_SCROLL 0x2E
  80:..\..\Cypress-PSOC-OLED-master\Cypress-PSOC-OLED-master\OLED.cydsn/ssd1306.c **** 
  81:..\..\Cypress-PSOC-OLED-master\Cypress-PSOC-OLED-master\OLED.cydsn/ssd1306.c **** 
  82:..\..\Cypress-PSOC-OLED-master\Cypress-PSOC-OLED-master\OLED.cydsn/ssd1306.c **** // I2C result status
  83:..\..\Cypress-PSOC-OLED-master\Cypress-PSOC-OLED-master\OLED.cydsn/ssd1306.c **** #define TRANSFER_CMPLT    (0x00u)
  84:..\..\Cypress-PSOC-OLED-master\Cypress-PSOC-OLED-master\OLED.cydsn/ssd1306.c **** #define TRANSFER_ERROR    (0xFFu)
  85:..\..\Cypress-PSOC-OLED-master\Cypress-PSOC-OLED-master\OLED.cydsn/ssd1306.c **** 
  86:..\..\Cypress-PSOC-OLED-master\Cypress-PSOC-OLED-master\OLED.cydsn/ssd1306.c **** 
  87:..\..\Cypress-PSOC-OLED-master\Cypress-PSOC-OLED-master\OLED.cydsn/ssd1306.c **** static uint32 display_write_buf( uint8* buf, uint16_t size );
  88:..\..\Cypress-PSOC-OLED-master\Cypress-PSOC-OLED-master\OLED.cydsn/ssd1306.c **** 
ARM GAS  C:\Users\boise\AppData\Local\Temp\ccDu5XGS.s 			page 3


  89:..\..\Cypress-PSOC-OLED-master\Cypress-PSOC-OLED-master\OLED.cydsn/ssd1306.c **** void gfx_init( int16_t width, int16_t height );
  90:..\..\Cypress-PSOC-OLED-master\Cypress-PSOC-OLED-master\OLED.cydsn/ssd1306.c **** 
  91:..\..\Cypress-PSOC-OLED-master\Cypress-PSOC-OLED-master\OLED.cydsn/ssd1306.c **** static uint8 _i2caddr;
  92:..\..\Cypress-PSOC-OLED-master\Cypress-PSOC-OLED-master\OLED.cydsn/ssd1306.c **** 
  93:..\..\Cypress-PSOC-OLED-master\Cypress-PSOC-OLED-master\OLED.cydsn/ssd1306.c **** // display memory buffer ( === MUST INCLUDE === the preceding I2C 0x40 control byte for the display
  94:..\..\Cypress-PSOC-OLED-master\Cypress-PSOC-OLED-master\OLED.cydsn/ssd1306.c **** static uint8_t SSD1306_buffer[DISPLAYHEIGHT * DISPLAYWIDTH / 8 + 1] = { 0x40 };
  95:..\..\Cypress-PSOC-OLED-master\Cypress-PSOC-OLED-master\OLED.cydsn/ssd1306.c **** // pointer to actual display memory buffer
  96:..\..\Cypress-PSOC-OLED-master\Cypress-PSOC-OLED-master\OLED.cydsn/ssd1306.c **** static uint8_t* _displaybuf = SSD1306_buffer+1;
  97:..\..\Cypress-PSOC-OLED-master\Cypress-PSOC-OLED-master\OLED.cydsn/ssd1306.c **** static uint16_t _displaybuf_size = sizeof(SSD1306_buffer) - 1;
  98:..\..\Cypress-PSOC-OLED-master\Cypress-PSOC-OLED-master\OLED.cydsn/ssd1306.c **** 
  99:..\..\Cypress-PSOC-OLED-master\Cypress-PSOC-OLED-master\OLED.cydsn/ssd1306.c **** // see data sheet page 25 for Graphic Display Data RAM organization
 100:..\..\Cypress-PSOC-OLED-master\Cypress-PSOC-OLED-master\OLED.cydsn/ssd1306.c **** // 8 pages, each page a row of DISPLAYWIDTH bytes
 101:..\..\Cypress-PSOC-OLED-master\Cypress-PSOC-OLED-master\OLED.cydsn/ssd1306.c **** // start address of of row: y/8*DISPLAYWIDTH
 102:..\..\Cypress-PSOC-OLED-master\Cypress-PSOC-OLED-master\OLED.cydsn/ssd1306.c **** // x pos in row: == x 
 103:..\..\Cypress-PSOC-OLED-master\Cypress-PSOC-OLED-master\OLED.cydsn/ssd1306.c **** #define GDDRAM_ADDRESS(X,Y) ((_displaybuf)+((Y)/8)*(DISPLAYWIDTH)+(X))
 104:..\..\Cypress-PSOC-OLED-master\Cypress-PSOC-OLED-master\OLED.cydsn/ssd1306.c **** 
 105:..\..\Cypress-PSOC-OLED-master\Cypress-PSOC-OLED-master\OLED.cydsn/ssd1306.c **** // lower 3 bit of y determine vertical pixel position (pos 0...7) in GDDRAM byte
 106:..\..\Cypress-PSOC-OLED-master\Cypress-PSOC-OLED-master\OLED.cydsn/ssd1306.c **** // (y&0x07) == position of pixel on row (page). LSB is top, MSB bottom
 107:..\..\Cypress-PSOC-OLED-master\Cypress-PSOC-OLED-master\OLED.cydsn/ssd1306.c **** #define GDDRAM_PIXMASK(Y) (1 << ((Y)&0x07))
 108:..\..\Cypress-PSOC-OLED-master\Cypress-PSOC-OLED-master\OLED.cydsn/ssd1306.c **** 
 109:..\..\Cypress-PSOC-OLED-master\Cypress-PSOC-OLED-master\OLED.cydsn/ssd1306.c **** #define PIXEL_ON(X,Y) (*GDDRAM_ADDRESS(x,y) |= GDDRAM_PIXMASK(y))
 110:..\..\Cypress-PSOC-OLED-master\Cypress-PSOC-OLED-master\OLED.cydsn/ssd1306.c **** #define PIXEL_OFF(X,Y) (*GDDRAM_ADDRESS(x,y) &= ~GDDRAM_PIXMASK(y))
 111:..\..\Cypress-PSOC-OLED-master\Cypress-PSOC-OLED-master\OLED.cydsn/ssd1306.c **** #define PIXEL_TOGGLE(X,Y) (*GDDRAM_ADDRESS(x,y) ^= GDDRAM_PIXMASK(y)) 
 112:..\..\Cypress-PSOC-OLED-master\Cypress-PSOC-OLED-master\OLED.cydsn/ssd1306.c **** 
 113:..\..\Cypress-PSOC-OLED-master\Cypress-PSOC-OLED-master\OLED.cydsn/ssd1306.c **** 
 114:..\..\Cypress-PSOC-OLED-master\Cypress-PSOC-OLED-master\OLED.cydsn/ssd1306.c **** 
 115:..\..\Cypress-PSOC-OLED-master\Cypress-PSOC-OLED-master\OLED.cydsn/ssd1306.c **** // call before first use of other functions
 116:..\..\Cypress-PSOC-OLED-master\Cypress-PSOC-OLED-master\OLED.cydsn/ssd1306.c **** void display_init( uint8 i2caddr ){
 117:..\..\Cypress-PSOC-OLED-master\Cypress-PSOC-OLED-master\OLED.cydsn/ssd1306.c ****     
 118:..\..\Cypress-PSOC-OLED-master\Cypress-PSOC-OLED-master\OLED.cydsn/ssd1306.c ****     _i2caddr = i2caddr;
 119:..\..\Cypress-PSOC-OLED-master\Cypress-PSOC-OLED-master\OLED.cydsn/ssd1306.c ****     gfx_init( DISPLAYWIDTH, DISPLAYHEIGHT );
 120:..\..\Cypress-PSOC-OLED-master\Cypress-PSOC-OLED-master\OLED.cydsn/ssd1306.c ****     
 121:..\..\Cypress-PSOC-OLED-master\Cypress-PSOC-OLED-master\OLED.cydsn/ssd1306.c ****     uint8 cmdbuf[] = {
 122:..\..\Cypress-PSOC-OLED-master\Cypress-PSOC-OLED-master\OLED.cydsn/ssd1306.c ****         0x00,
 123:..\..\Cypress-PSOC-OLED-master\Cypress-PSOC-OLED-master\OLED.cydsn/ssd1306.c ****         SSD1306_DISPLAYOFF,
 124:..\..\Cypress-PSOC-OLED-master\Cypress-PSOC-OLED-master\OLED.cydsn/ssd1306.c ****         SSD1306_SETDISPLAYCLOCKDIV,
 125:..\..\Cypress-PSOC-OLED-master\Cypress-PSOC-OLED-master\OLED.cydsn/ssd1306.c ****         0x80,
 126:..\..\Cypress-PSOC-OLED-master\Cypress-PSOC-OLED-master\OLED.cydsn/ssd1306.c ****         SSD1306_SETMULTIPLEX,
 127:..\..\Cypress-PSOC-OLED-master\Cypress-PSOC-OLED-master\OLED.cydsn/ssd1306.c ****         0x3f,
 128:..\..\Cypress-PSOC-OLED-master\Cypress-PSOC-OLED-master\OLED.cydsn/ssd1306.c ****         SSD1306_SETDISPLAYOFFSET,
 129:..\..\Cypress-PSOC-OLED-master\Cypress-PSOC-OLED-master\OLED.cydsn/ssd1306.c ****         0x00,
 130:..\..\Cypress-PSOC-OLED-master\Cypress-PSOC-OLED-master\OLED.cydsn/ssd1306.c ****         SSD1306_SETSTARTLINE | 0x0,
 131:..\..\Cypress-PSOC-OLED-master\Cypress-PSOC-OLED-master\OLED.cydsn/ssd1306.c ****         SSD1306_CHARGEPUMP,
 132:..\..\Cypress-PSOC-OLED-master\Cypress-PSOC-OLED-master\OLED.cydsn/ssd1306.c ****         0x14,
 133:..\..\Cypress-PSOC-OLED-master\Cypress-PSOC-OLED-master\OLED.cydsn/ssd1306.c ****         SSD1306_MEMORYMODE,
 134:..\..\Cypress-PSOC-OLED-master\Cypress-PSOC-OLED-master\OLED.cydsn/ssd1306.c ****         0x00,
 135:..\..\Cypress-PSOC-OLED-master\Cypress-PSOC-OLED-master\OLED.cydsn/ssd1306.c ****         SSD1306_SEGREMAP | 0x1,
 136:..\..\Cypress-PSOC-OLED-master\Cypress-PSOC-OLED-master\OLED.cydsn/ssd1306.c ****         SSD1306_COMSCANDEC,
 137:..\..\Cypress-PSOC-OLED-master\Cypress-PSOC-OLED-master\OLED.cydsn/ssd1306.c ****         SSD1306_SETCOMPINS,
 138:..\..\Cypress-PSOC-OLED-master\Cypress-PSOC-OLED-master\OLED.cydsn/ssd1306.c ****         0x12,
 139:..\..\Cypress-PSOC-OLED-master\Cypress-PSOC-OLED-master\OLED.cydsn/ssd1306.c ****         SSD1306_SETCONTRAST,
 140:..\..\Cypress-PSOC-OLED-master\Cypress-PSOC-OLED-master\OLED.cydsn/ssd1306.c ****         0xcf,
 141:..\..\Cypress-PSOC-OLED-master\Cypress-PSOC-OLED-master\OLED.cydsn/ssd1306.c ****         SSD1306_SETPRECHARGE,
 142:..\..\Cypress-PSOC-OLED-master\Cypress-PSOC-OLED-master\OLED.cydsn/ssd1306.c ****         0xf1,
 143:..\..\Cypress-PSOC-OLED-master\Cypress-PSOC-OLED-master\OLED.cydsn/ssd1306.c ****         SSD1306_SETVCOMDETECT,
 144:..\..\Cypress-PSOC-OLED-master\Cypress-PSOC-OLED-master\OLED.cydsn/ssd1306.c ****         0x40,
 145:..\..\Cypress-PSOC-OLED-master\Cypress-PSOC-OLED-master\OLED.cydsn/ssd1306.c ****         SSD1306_DISPLAYALLON_RESUME,
ARM GAS  C:\Users\boise\AppData\Local\Temp\ccDu5XGS.s 			page 4


 146:..\..\Cypress-PSOC-OLED-master\Cypress-PSOC-OLED-master\OLED.cydsn/ssd1306.c ****         SSD1306_NORMALDISPLAY,
 147:..\..\Cypress-PSOC-OLED-master\Cypress-PSOC-OLED-master\OLED.cydsn/ssd1306.c ****         SSD1306_DISPLAYON
 148:..\..\Cypress-PSOC-OLED-master\Cypress-PSOC-OLED-master\OLED.cydsn/ssd1306.c ****     };
 149:..\..\Cypress-PSOC-OLED-master\Cypress-PSOC-OLED-master\OLED.cydsn/ssd1306.c ****     
 150:..\..\Cypress-PSOC-OLED-master\Cypress-PSOC-OLED-master\OLED.cydsn/ssd1306.c ****     display_write_buf( cmdbuf, sizeof(cmdbuf) ); 
 151:..\..\Cypress-PSOC-OLED-master\Cypress-PSOC-OLED-master\OLED.cydsn/ssd1306.c **** }
 152:..\..\Cypress-PSOC-OLED-master\Cypress-PSOC-OLED-master\OLED.cydsn/ssd1306.c **** 
 153:..\..\Cypress-PSOC-OLED-master\Cypress-PSOC-OLED-master\OLED.cydsn/ssd1306.c **** 
 154:..\..\Cypress-PSOC-OLED-master\Cypress-PSOC-OLED-master\OLED.cydsn/ssd1306.c **** // for submitting command sequences:
 155:..\..\Cypress-PSOC-OLED-master\Cypress-PSOC-OLED-master\OLED.cydsn/ssd1306.c **** //  buf[0] must be 0x00
 156:..\..\Cypress-PSOC-OLED-master\Cypress-PSOC-OLED-master\OLED.cydsn/ssd1306.c **** // for submitting bulk data (writing to display RAM):
 157:..\..\Cypress-PSOC-OLED-master\Cypress-PSOC-OLED-master\OLED.cydsn/ssd1306.c **** //  buf[0] must be 0x40
 158:..\..\Cypress-PSOC-OLED-master\Cypress-PSOC-OLED-master\OLED.cydsn/ssd1306.c **** static uint32 display_write_buf( uint8* buf, uint16_t size ){
 159:..\..\Cypress-PSOC-OLED-master\Cypress-PSOC-OLED-master\OLED.cydsn/ssd1306.c **** 
 160:..\..\Cypress-PSOC-OLED-master\Cypress-PSOC-OLED-master\OLED.cydsn/ssd1306.c ****     uint32 status = TRANSFER_ERROR;
 161:..\..\Cypress-PSOC-OLED-master\Cypress-PSOC-OLED-master\OLED.cydsn/ssd1306.c **** 
 162:..\..\Cypress-PSOC-OLED-master\Cypress-PSOC-OLED-master\OLED.cydsn/ssd1306.c ****     I2C_I2CMasterWriteBuf(_i2caddr, buf, size, I2C_I2C_MODE_COMPLETE_XFER);
 163:..\..\Cypress-PSOC-OLED-master\Cypress-PSOC-OLED-master\OLED.cydsn/ssd1306.c ****     while( 0u == (I2C_I2CMasterStatus() & I2C_I2C_MSTAT_WR_CMPLT) );
 164:..\..\Cypress-PSOC-OLED-master\Cypress-PSOC-OLED-master\OLED.cydsn/ssd1306.c **** 
 165:..\..\Cypress-PSOC-OLED-master\Cypress-PSOC-OLED-master\OLED.cydsn/ssd1306.c ****     if( 0u == (I2C_I2C_MSTAT_ERR_XFER & I2C_I2CMasterStatus()) ){
 166:..\..\Cypress-PSOC-OLED-master\Cypress-PSOC-OLED-master\OLED.cydsn/ssd1306.c ****         // Check if all bytes was written 
 167:..\..\Cypress-PSOC-OLED-master\Cypress-PSOC-OLED-master\OLED.cydsn/ssd1306.c ****         if( I2C_I2CMasterGetWriteBufSize() == size ){
 168:..\..\Cypress-PSOC-OLED-master\Cypress-PSOC-OLED-master\OLED.cydsn/ssd1306.c ****             status = TRANSFER_CMPLT;
 169:..\..\Cypress-PSOC-OLED-master\Cypress-PSOC-OLED-master\OLED.cydsn/ssd1306.c ****         }
 170:..\..\Cypress-PSOC-OLED-master\Cypress-PSOC-OLED-master\OLED.cydsn/ssd1306.c ****     }
 171:..\..\Cypress-PSOC-OLED-master\Cypress-PSOC-OLED-master\OLED.cydsn/ssd1306.c ****     I2C_I2CMasterClearStatus();
 172:..\..\Cypress-PSOC-OLED-master\Cypress-PSOC-OLED-master\OLED.cydsn/ssd1306.c **** 
 173:..\..\Cypress-PSOC-OLED-master\Cypress-PSOC-OLED-master\OLED.cydsn/ssd1306.c ****     return status;
 174:..\..\Cypress-PSOC-OLED-master\Cypress-PSOC-OLED-master\OLED.cydsn/ssd1306.c **** }
 175:..\..\Cypress-PSOC-OLED-master\Cypress-PSOC-OLED-master\OLED.cydsn/ssd1306.c **** 
 176:..\..\Cypress-PSOC-OLED-master\Cypress-PSOC-OLED-master\OLED.cydsn/ssd1306.c **** 
 177:..\..\Cypress-PSOC-OLED-master\Cypress-PSOC-OLED-master\OLED.cydsn/ssd1306.c **** // used by gfx_ functions. Needs to be implemented by display_
 178:..\..\Cypress-PSOC-OLED-master\Cypress-PSOC-OLED-master\OLED.cydsn/ssd1306.c **** static void display_setPixel( int16_t x, int16_t y, uint16_t color ){
  27              		.loc 1 178 0
  28              		.cfi_startproc
  29              		@ args = 0, pretend = 0, frame = 0
  30              		@ frame_needed = 0, uses_anonymous_args = 0
  31              		@ link register save eliminated.
  32              	.LVL0:
 179:..\..\Cypress-PSOC-OLED-master\Cypress-PSOC-OLED-master\OLED.cydsn/ssd1306.c ****     
 180:..\..\Cypress-PSOC-OLED-master\Cypress-PSOC-OLED-master\OLED.cydsn/ssd1306.c ****     if( (x < 0) || (x >= DISPLAYWIDTH) || (y < 0) || (y >= DISPLAYHEIGHT) )
  33              		.loc 1 180 0
  34 0000 83B2     		uxth	r3, r0
  35 0002 7F2B     		cmp	r3, #127
  36 0004 3FD8     		bhi	.L1
  37              		.loc 1 180 0 is_stmt 0 discriminator 1
  38 0006 0029     		cmp	r1, #0
  39 0008 3DDB     		blt	.L1
  40              		.loc 1 180 0 discriminator 2
  41 000a 3F29     		cmp	r1, #63
  42 000c 3BDC     		bgt	.L1
 181:..\..\Cypress-PSOC-OLED-master\Cypress-PSOC-OLED-master\OLED.cydsn/ssd1306.c ****         return;
 182:..\..\Cypress-PSOC-OLED-master\Cypress-PSOC-OLED-master\OLED.cydsn/ssd1306.c **** 
 183:..\..\Cypress-PSOC-OLED-master\Cypress-PSOC-OLED-master\OLED.cydsn/ssd1306.c ****     switch( color ){
  43              		.loc 1 183 0 is_stmt 1
  44 000e 012A     		cmp	r2, #1
  45 0010 04D0     		beq	.L3
ARM GAS  C:\Users\boise\AppData\Local\Temp\ccDu5XGS.s 			page 5


  46 0012 002A     		cmp	r2, #0
  47 0014 14D0     		beq	.L4
  48 0016 022A     		cmp	r2, #2
  49 0018 24D0     		beq	.L5
  50 001a 34E0     		b	.L1
  51              	.L3:
 184:..\..\Cypress-PSOC-OLED-master\Cypress-PSOC-OLED-master\OLED.cydsn/ssd1306.c ****         case WHITE: 
 185:..\..\Cypress-PSOC-OLED-master\Cypress-PSOC-OLED-master\OLED.cydsn/ssd1306.c ****             PIXEL_ON(x,y);
  52              		.loc 1 185 0
  53 001c CB17     		asrs	r3, r1, #31
  54 001e 0722     		movs	r2, #7
  55              	.LVL1:
  56 0020 1340     		ands	r3, r2
  57 0022 5B18     		adds	r3, r3, r1
  58 0024 DB10     		asrs	r3, r3, #3
  59 0026 DB01     		lsls	r3, r3, #7
  60 0028 1818     		adds	r0, r3, r0
  61              	.LVL2:
  62 002a 174B     		ldr	r3, .L6
  63 002c 0133     		adds	r3, r3, #1
  64 002e 1818     		adds	r0, r3, r0
  65 0030 0723     		movs	r3, #7
  66 0032 1940     		ands	r1, r3
  67              	.LVL3:
  68 0034 063B     		subs	r3, r3, #6
  69 0036 8B40     		lsls	r3, r3, r1
  70 0038 0278     		ldrb	r2, [r0]
  71 003a 1343     		orrs	r3, r2
  72 003c 0370     		strb	r3, [r0]
 186:..\..\Cypress-PSOC-OLED-master\Cypress-PSOC-OLED-master\OLED.cydsn/ssd1306.c ****             break;
  73              		.loc 1 186 0
  74 003e 22E0     		b	.L1
  75              	.LVL4:
  76              	.L4:
 187:..\..\Cypress-PSOC-OLED-master\Cypress-PSOC-OLED-master\OLED.cydsn/ssd1306.c ****         case BLACK:
 188:..\..\Cypress-PSOC-OLED-master\Cypress-PSOC-OLED-master\OLED.cydsn/ssd1306.c ****             PIXEL_OFF(x,y);
  77              		.loc 1 188 0
  78 0040 CB17     		asrs	r3, r1, #31
  79 0042 0722     		movs	r2, #7
  80              	.LVL5:
  81 0044 1340     		ands	r3, r2
  82 0046 5B18     		adds	r3, r3, r1
  83 0048 DB10     		asrs	r3, r3, #3
  84 004a DB01     		lsls	r3, r3, #7
  85 004c 1818     		adds	r0, r3, r0
  86              	.LVL6:
  87 004e 0E4B     		ldr	r3, .L6
  88 0050 0133     		adds	r3, r3, #1
  89 0052 1818     		adds	r0, r3, r0
  90 0054 0723     		movs	r3, #7
  91 0056 1940     		ands	r1, r3
  92              	.LVL7:
  93 0058 063A     		subs	r2, r2, #6
  94 005a 8A40     		lsls	r2, r2, r1
  95 005c 0378     		ldrb	r3, [r0]
  96 005e 9343     		bics	r3, r2
  97 0060 0370     		strb	r3, [r0]
ARM GAS  C:\Users\boise\AppData\Local\Temp\ccDu5XGS.s 			page 6


 189:..\..\Cypress-PSOC-OLED-master\Cypress-PSOC-OLED-master\OLED.cydsn/ssd1306.c ****             break;
  98              		.loc 1 189 0
  99 0062 10E0     		b	.L1
 100              	.LVL8:
 101              	.L5:
 190:..\..\Cypress-PSOC-OLED-master\Cypress-PSOC-OLED-master\OLED.cydsn/ssd1306.c ****         case INVERSE: 
 191:..\..\Cypress-PSOC-OLED-master\Cypress-PSOC-OLED-master\OLED.cydsn/ssd1306.c ****             PIXEL_TOGGLE(x,y);
 102              		.loc 1 191 0
 103 0064 CB17     		asrs	r3, r1, #31
 104 0066 0722     		movs	r2, #7
 105              	.LVL9:
 106 0068 1340     		ands	r3, r2
 107 006a 5B18     		adds	r3, r3, r1
 108 006c DB10     		asrs	r3, r3, #3
 109 006e DB01     		lsls	r3, r3, #7
 110 0070 1818     		adds	r0, r3, r0
 111              	.LVL10:
 112 0072 054B     		ldr	r3, .L6
 113 0074 0133     		adds	r3, r3, #1
 114 0076 1818     		adds	r0, r3, r0
 115 0078 0723     		movs	r3, #7
 116 007a 1940     		ands	r1, r3
 117              	.LVL11:
 118 007c 063B     		subs	r3, r3, #6
 119 007e 8B40     		lsls	r3, r3, r1
 120 0080 0278     		ldrb	r2, [r0]
 121 0082 5340     		eors	r3, r2
 122 0084 0370     		strb	r3, [r0]
 123              	.L1:
 192:..\..\Cypress-PSOC-OLED-master\Cypress-PSOC-OLED-master\OLED.cydsn/ssd1306.c ****             break;
 193:..\..\Cypress-PSOC-OLED-master\Cypress-PSOC-OLED-master\OLED.cydsn/ssd1306.c ****     }
 194:..\..\Cypress-PSOC-OLED-master\Cypress-PSOC-OLED-master\OLED.cydsn/ssd1306.c **** }
 124              		.loc 1 194 0
 125              		@ sp needed
 126 0086 7047     		bx	lr
 127              	.L7:
 128              		.align	2
 129              	.L6:
 130 0088 00000000 		.word	.LANCHOR0
 131              		.cfi_endproc
 132              	.LFE34:
 133              		.size	display_setPixel, .-display_setPixel
 134              		.section	.text.display_line,"ax",%progbits
 135              		.align	2
 136              		.code	16
 137              		.thumb_func
 138              		.type	display_line, %function
 139              	display_line:
 140              	.LFB39:
 195:..\..\Cypress-PSOC-OLED-master\Cypress-PSOC-OLED-master\OLED.cydsn/ssd1306.c **** 
 196:..\..\Cypress-PSOC-OLED-master\Cypress-PSOC-OLED-master\OLED.cydsn/ssd1306.c **** 
 197:..\..\Cypress-PSOC-OLED-master\Cypress-PSOC-OLED-master\OLED.cydsn/ssd1306.c **** void display_clear(void){
 198:..\..\Cypress-PSOC-OLED-master\Cypress-PSOC-OLED-master\OLED.cydsn/ssd1306.c ****     memset( _displaybuf, 0, _displaybuf_size );
 199:..\..\Cypress-PSOC-OLED-master\Cypress-PSOC-OLED-master\OLED.cydsn/ssd1306.c ****     SSD1306_buffer[0] = 0x40; // to be sure its there
 200:..\..\Cypress-PSOC-OLED-master\Cypress-PSOC-OLED-master\OLED.cydsn/ssd1306.c **** }
 201:..\..\Cypress-PSOC-OLED-master\Cypress-PSOC-OLED-master\OLED.cydsn/ssd1306.c **** 
 202:..\..\Cypress-PSOC-OLED-master\Cypress-PSOC-OLED-master\OLED.cydsn/ssd1306.c **** 
ARM GAS  C:\Users\boise\AppData\Local\Temp\ccDu5XGS.s 			page 7


 203:..\..\Cypress-PSOC-OLED-master\Cypress-PSOC-OLED-master\OLED.cydsn/ssd1306.c **** // contrast: 0 ...255
 204:..\..\Cypress-PSOC-OLED-master\Cypress-PSOC-OLED-master\OLED.cydsn/ssd1306.c **** void display_contrast( uint8_t contrast ){
 205:..\..\Cypress-PSOC-OLED-master\Cypress-PSOC-OLED-master\OLED.cydsn/ssd1306.c ****         
 206:..\..\Cypress-PSOC-OLED-master\Cypress-PSOC-OLED-master\OLED.cydsn/ssd1306.c ****     uint8 cmdbuf[] = {
 207:..\..\Cypress-PSOC-OLED-master\Cypress-PSOC-OLED-master\OLED.cydsn/ssd1306.c ****         0x00,  
 208:..\..\Cypress-PSOC-OLED-master\Cypress-PSOC-OLED-master\OLED.cydsn/ssd1306.c ****         SSD1306_SETCONTRAST,
 209:..\..\Cypress-PSOC-OLED-master\Cypress-PSOC-OLED-master\OLED.cydsn/ssd1306.c ****         contrast
 210:..\..\Cypress-PSOC-OLED-master\Cypress-PSOC-OLED-master\OLED.cydsn/ssd1306.c ****     };
 211:..\..\Cypress-PSOC-OLED-master\Cypress-PSOC-OLED-master\OLED.cydsn/ssd1306.c ****     display_write_buf( cmdbuf, sizeof(cmdbuf) ); 
 212:..\..\Cypress-PSOC-OLED-master\Cypress-PSOC-OLED-master\OLED.cydsn/ssd1306.c **** }
 213:..\..\Cypress-PSOC-OLED-master\Cypress-PSOC-OLED-master\OLED.cydsn/ssd1306.c **** 
 214:..\..\Cypress-PSOC-OLED-master\Cypress-PSOC-OLED-master\OLED.cydsn/ssd1306.c **** 
 215:..\..\Cypress-PSOC-OLED-master\Cypress-PSOC-OLED-master\OLED.cydsn/ssd1306.c **** // invert <> 0 for inverse display, invert == 0 for normal display
 216:..\..\Cypress-PSOC-OLED-master\Cypress-PSOC-OLED-master\OLED.cydsn/ssd1306.c **** void display_invert( uint8_t invert ){
 217:..\..\Cypress-PSOC-OLED-master\Cypress-PSOC-OLED-master\OLED.cydsn/ssd1306.c **** 
 218:..\..\Cypress-PSOC-OLED-master\Cypress-PSOC-OLED-master\OLED.cydsn/ssd1306.c ****     uint8 cmdbuf[] = {
 219:..\..\Cypress-PSOC-OLED-master\Cypress-PSOC-OLED-master\OLED.cydsn/ssd1306.c ****         0x00,  
 220:..\..\Cypress-PSOC-OLED-master\Cypress-PSOC-OLED-master\OLED.cydsn/ssd1306.c ****         0
 221:..\..\Cypress-PSOC-OLED-master\Cypress-PSOC-OLED-master\OLED.cydsn/ssd1306.c ****     };
 222:..\..\Cypress-PSOC-OLED-master\Cypress-PSOC-OLED-master\OLED.cydsn/ssd1306.c ****     cmdbuf[1] = invert ? SSD1306_INVERTDISPLAY : SSD1306_NORMALDISPLAY;
 223:..\..\Cypress-PSOC-OLED-master\Cypress-PSOC-OLED-master\OLED.cydsn/ssd1306.c ****     display_write_buf( cmdbuf, sizeof(cmdbuf) ); 
 224:..\..\Cypress-PSOC-OLED-master\Cypress-PSOC-OLED-master\OLED.cydsn/ssd1306.c **** }
 225:..\..\Cypress-PSOC-OLED-master\Cypress-PSOC-OLED-master\OLED.cydsn/ssd1306.c **** 
 226:..\..\Cypress-PSOC-OLED-master\Cypress-PSOC-OLED-master\OLED.cydsn/ssd1306.c **** 
 227:..\..\Cypress-PSOC-OLED-master\Cypress-PSOC-OLED-master\OLED.cydsn/ssd1306.c **** void display_update(void) {
 228:..\..\Cypress-PSOC-OLED-master\Cypress-PSOC-OLED-master\OLED.cydsn/ssd1306.c ****       
 229:..\..\Cypress-PSOC-OLED-master\Cypress-PSOC-OLED-master\OLED.cydsn/ssd1306.c ****     uint8 cmdbuf[] = {
 230:..\..\Cypress-PSOC-OLED-master\Cypress-PSOC-OLED-master\OLED.cydsn/ssd1306.c ****         0x00,
 231:..\..\Cypress-PSOC-OLED-master\Cypress-PSOC-OLED-master\OLED.cydsn/ssd1306.c ****         SSD1306_COLUMNADDR,
 232:..\..\Cypress-PSOC-OLED-master\Cypress-PSOC-OLED-master\OLED.cydsn/ssd1306.c ****         0,                      // start
 233:..\..\Cypress-PSOC-OLED-master\Cypress-PSOC-OLED-master\OLED.cydsn/ssd1306.c ****         DISPLAYWIDTH-1, // end
 234:..\..\Cypress-PSOC-OLED-master\Cypress-PSOC-OLED-master\OLED.cydsn/ssd1306.c ****         SSD1306_PAGEADDR,
 235:..\..\Cypress-PSOC-OLED-master\Cypress-PSOC-OLED-master\OLED.cydsn/ssd1306.c ****         0,                      // start
 236:..\..\Cypress-PSOC-OLED-master\Cypress-PSOC-OLED-master\OLED.cydsn/ssd1306.c ****         7                       // end
 237:..\..\Cypress-PSOC-OLED-master\Cypress-PSOC-OLED-master\OLED.cydsn/ssd1306.c ****     };
 238:..\..\Cypress-PSOC-OLED-master\Cypress-PSOC-OLED-master\OLED.cydsn/ssd1306.c ****     display_write_buf( cmdbuf, sizeof(cmdbuf) ); 
 239:..\..\Cypress-PSOC-OLED-master\Cypress-PSOC-OLED-master\OLED.cydsn/ssd1306.c ****     display_write_buf( SSD1306_buffer, sizeof(SSD1306_buffer) );
 240:..\..\Cypress-PSOC-OLED-master\Cypress-PSOC-OLED-master\OLED.cydsn/ssd1306.c **** }
 241:..\..\Cypress-PSOC-OLED-master\Cypress-PSOC-OLED-master\OLED.cydsn/ssd1306.c **** 
 242:..\..\Cypress-PSOC-OLED-master\Cypress-PSOC-OLED-master\OLED.cydsn/ssd1306.c **** 
 243:..\..\Cypress-PSOC-OLED-master\Cypress-PSOC-OLED-master\OLED.cydsn/ssd1306.c **** // draws horizontal or vertical line
 244:..\..\Cypress-PSOC-OLED-master\Cypress-PSOC-OLED-master\OLED.cydsn/ssd1306.c **** // Note: no check for valid coords, this needs to be done by caller
 245:..\..\Cypress-PSOC-OLED-master\Cypress-PSOC-OLED-master\OLED.cydsn/ssd1306.c **** // should only be called from gfx_hvline which is doing all validity checking
 246:..\..\Cypress-PSOC-OLED-master\Cypress-PSOC-OLED-master\OLED.cydsn/ssd1306.c **** static void display_line( int16_t x1, int16_t y1, int16_t x2, int16_t y2, uint16_t color ){
 141              		.loc 1 246 0
 142              		.cfi_startproc
 143              		@ args = 4, pretend = 0, frame = 0
 144              		@ frame_needed = 0, uses_anonymous_args = 0
 145              	.LVL12:
 146 0000 F0B5     		push	{r4, r5, r6, r7, lr}
 147              		.cfi_def_cfa_offset 20
 148              		.cfi_offset 4, -20
 149              		.cfi_offset 5, -16
 150              		.cfi_offset 6, -12
 151              		.cfi_offset 7, -8
 152              		.cfi_offset 14, -4
 153 0002 4746     		mov	r7, r8
ARM GAS  C:\Users\boise\AppData\Local\Temp\ccDu5XGS.s 			page 8


 154 0004 80B4     		push	{r7}
 155              		.cfi_def_cfa_offset 24
 156              		.cfi_offset 8, -24
 157 0006 06AC     		add	r4, sp, #24
 158              	.LVL13:
 159 0008 2588     		ldrh	r5, [r4]
 247:..\..\Cypress-PSOC-OLED-master\Cypress-PSOC-OLED-master\OLED.cydsn/ssd1306.c **** 
 248:..\..\Cypress-PSOC-OLED-master\Cypress-PSOC-OLED-master\OLED.cydsn/ssd1306.c ****     if( x1 == x2 ){
 160              		.loc 1 248 0
 161 000a 9042     		cmp	r0, r2
 162 000c 6FD1     		bne	.L9
 163              	.LBB2:
 249:..\..\Cypress-PSOC-OLED-master\Cypress-PSOC-OLED-master\OLED.cydsn/ssd1306.c ****         // vertical
 250:..\..\Cypress-PSOC-OLED-master\Cypress-PSOC-OLED-master\OLED.cydsn/ssd1306.c ****         uint8_t* pstart = GDDRAM_ADDRESS(x1,y1);
 164              		.loc 1 250 0
 165 000e CF17     		asrs	r7, r1, #31
 166 0010 0726     		movs	r6, #7
 167 0012 3740     		ands	r7, r6
 168 0014 7F18     		adds	r7, r7, r1
 169 0016 FF10     		asrs	r7, r7, #3
 170 0018 FF01     		lsls	r7, r7, #7
 171 001a 3818     		adds	r0, r7, r0
 172              	.LVL14:
 173 001c 494F     		ldr	r7, .L34
 174 001e 0137     		adds	r7, r7, #1
 175 0020 3818     		adds	r0, r7, r0
 176              	.LVL15:
 251:..\..\Cypress-PSOC-OLED-master\Cypress-PSOC-OLED-master\OLED.cydsn/ssd1306.c ****         uint8_t* pend = GDDRAM_ADDRESS(x2,y2);       
 177              		.loc 1 251 0
 178 0022 DC17     		asrs	r4, r3, #31
 179              	.LVL16:
 180 0024 3440     		ands	r4, r6
 181 0026 E418     		adds	r4, r4, r3
 182 0028 E410     		asrs	r4, r4, #3
 183 002a E401     		lsls	r4, r4, #7
 184 002c A218     		adds	r2, r4, r2
 185              	.LVL17:
 186 002e BA18     		adds	r2, r7, r2
 187              	.LVL18:
 252:..\..\Cypress-PSOC-OLED-master\Cypress-PSOC-OLED-master\OLED.cydsn/ssd1306.c ****         uint8_t* ptr = pstart;             
 188              		.loc 1 252 0
 189 0030 0400     		movs	r4, r0
 253:..\..\Cypress-PSOC-OLED-master\Cypress-PSOC-OLED-master\OLED.cydsn/ssd1306.c ****         
 254:..\..\Cypress-PSOC-OLED-master\Cypress-PSOC-OLED-master\OLED.cydsn/ssd1306.c ****         while( ptr <= pend ){
 190              		.loc 1 254 0
 191 0032 59E0     		b	.L10
 192              	.LVL19:
 193              	.L25:
 194              	.LBB3:
 255:..\..\Cypress-PSOC-OLED-master\Cypress-PSOC-OLED-master\OLED.cydsn/ssd1306.c ****             
 256:..\..\Cypress-PSOC-OLED-master\Cypress-PSOC-OLED-master\OLED.cydsn/ssd1306.c ****             uint8_t mask;
 257:..\..\Cypress-PSOC-OLED-master\Cypress-PSOC-OLED-master\OLED.cydsn/ssd1306.c ****             if( ptr == pstart ){
 195              		.loc 1 257 0
 196 0034 8442     		cmp	r4, r0
 197 0036 1BD1     		bne	.L11
 198              	.LBB4:
 258:..\..\Cypress-PSOC-OLED-master\Cypress-PSOC-OLED-master\OLED.cydsn/ssd1306.c ****                 // top
ARM GAS  C:\Users\boise\AppData\Local\Temp\ccDu5XGS.s 			page 9


 259:..\..\Cypress-PSOC-OLED-master\Cypress-PSOC-OLED-master\OLED.cydsn/ssd1306.c ****                 uint8_t lbit = y1 % 8;
 199              		.loc 1 259 0
 200 0038 434E     		ldr	r6, .L34+4
 201 003a 0E40     		ands	r6, r1
 202 003c 04D5     		bpl	.L12
 203 003e 013E     		subs	r6, r6, #1
 204 0040 0827     		movs	r7, #8
 205 0042 7F42     		rsbs	r7, r7, #0
 206 0044 3E43     		orrs	r6, r7
 207 0046 0136     		adds	r6, r6, #1
 208              	.L12:
 209 0048 F6B2     		uxtb	r6, r6
 210 004a B046     		mov	r8, r6
 211              	.LVL20:
 260:..\..\Cypress-PSOC-OLED-master\Cypress-PSOC-OLED-master\OLED.cydsn/ssd1306.c ****                 // bottom (line can be very short, all inside this one byte)
 261:..\..\Cypress-PSOC-OLED-master\Cypress-PSOC-OLED-master\OLED.cydsn/ssd1306.c ****                 uint8_t ubit = lbit + y2 - y1;
 212              		.loc 1 261 0
 213 004c F618     		adds	r6, r6, r3
 214              	.LVL21:
 215 004e 761A     		subs	r6, r6, r1
 216 0050 F6B2     		uxtb	r6, r6
 217              	.LVL22:
 262:..\..\Cypress-PSOC-OLED-master\Cypress-PSOC-OLED-master\OLED.cydsn/ssd1306.c ****                 if( ubit >= 7 )
 218              		.loc 1 262 0
 219 0052 062E     		cmp	r6, #6
 220 0054 00D9     		bls	.L13
 263:..\..\Cypress-PSOC-OLED-master\Cypress-PSOC-OLED-master\OLED.cydsn/ssd1306.c ****                     ubit = 7;
 221              		.loc 1 263 0
 222 0056 0726     		movs	r6, #7
 223              	.LVL23:
 224              	.L13:
 264:..\..\Cypress-PSOC-OLED-master\Cypress-PSOC-OLED-master\OLED.cydsn/ssd1306.c ****                 mask = ((1 << (ubit-lbit+1)) - 1) << lbit;    
 225              		.loc 1 264 0
 226 0058 4746     		mov	r7, r8
 227 005a F61B     		subs	r6, r6, r7
 228              	.LVL24:
 229 005c 0136     		adds	r6, r6, #1
 230 005e 0127     		movs	r7, #1
 231 0060 B740     		lsls	r7, r7, r6
 232 0062 3E00     		movs	r6, r7
 233 0064 013E     		subs	r6, r6, #1
 234 0066 4746     		mov	r7, r8
 235 0068 BE40     		lsls	r6, r6, r7
 236 006a F6B2     		uxtb	r6, r6
 237 006c B446     		mov	ip, r6
 238              	.LVL25:
 239              	.LBE4:
 240 006e 10E0     		b	.L14
 241              	.LVL26:
 242              	.L11:
 265:..\..\Cypress-PSOC-OLED-master\Cypress-PSOC-OLED-master\OLED.cydsn/ssd1306.c ****             }else if( ptr == pend ){
 243              		.loc 1 265 0
 244 0070 9442     		cmp	r4, r2
 245 0072 0ED1     		bne	.L14
 266:..\..\Cypress-PSOC-OLED-master\Cypress-PSOC-OLED-master\OLED.cydsn/ssd1306.c ****                 // top is always bit 0, that makes it easy
 267:..\..\Cypress-PSOC-OLED-master\Cypress-PSOC-OLED-master\OLED.cydsn/ssd1306.c ****                 // bottom
 268:..\..\Cypress-PSOC-OLED-master\Cypress-PSOC-OLED-master\OLED.cydsn/ssd1306.c ****                 mask = (1 << (y2 % 8)) - 1;    
ARM GAS  C:\Users\boise\AppData\Local\Temp\ccDu5XGS.s 			page 10


 246              		.loc 1 268 0
 247 0074 344E     		ldr	r6, .L34+4
 248 0076 1E40     		ands	r6, r3
 249 0078 04D5     		bpl	.L15
 250 007a 013E     		subs	r6, r6, #1
 251 007c 0827     		movs	r7, #8
 252 007e 7F42     		rsbs	r7, r7, #0
 253 0080 3E43     		orrs	r6, r7
 254 0082 0136     		adds	r6, r6, #1
 255              	.L15:
 256 0084 36B2     		sxth	r6, r6
 257 0086 0127     		movs	r7, #1
 258 0088 B740     		lsls	r7, r7, r6
 259 008a 3E00     		movs	r6, r7
 260 008c 013E     		subs	r6, r6, #1
 261 008e F6B2     		uxtb	r6, r6
 262 0090 B446     		mov	ip, r6
 263              	.LVL27:
 264              	.L14:
 269:..\..\Cypress-PSOC-OLED-master\Cypress-PSOC-OLED-master\OLED.cydsn/ssd1306.c ****             }
 270:..\..\Cypress-PSOC-OLED-master\Cypress-PSOC-OLED-master\OLED.cydsn/ssd1306.c **** 
 271:..\..\Cypress-PSOC-OLED-master\Cypress-PSOC-OLED-master\OLED.cydsn/ssd1306.c ****             if( ptr == pstart || ptr == pend ){
 265              		.loc 1 271 0
 266 0092 8442     		cmp	r4, r0
 267 0094 01D0     		beq	.L16
 268              		.loc 1 271 0 is_stmt 0 discriminator 1
 269 0096 9442     		cmp	r4, r2
 270 0098 15D1     		bne	.L17
 271              	.L16:
 272:..\..\Cypress-PSOC-OLED-master\Cypress-PSOC-OLED-master\OLED.cydsn/ssd1306.c ****                 switch( color ){
 272              		.loc 1 272 0 is_stmt 1
 273 009a 012D     		cmp	r5, #1
 274 009c 04D0     		beq	.L19
 275 009e 002D     		cmp	r5, #0
 276 00a0 07D0     		beq	.L20
 277 00a2 022D     		cmp	r5, #2
 278 00a4 0AD0     		beq	.L21
 279 00a6 1EE0     		b	.L18
 280              	.L19:
 273:..\..\Cypress-PSOC-OLED-master\Cypress-PSOC-OLED-master\OLED.cydsn/ssd1306.c ****                     case WHITE:     *ptr |= mask; break;
 281              		.loc 1 273 0
 282 00a8 2778     		ldrb	r7, [r4]
 283 00aa 6646     		mov	r6, ip
 284 00ac 3743     		orrs	r7, r6
 285 00ae 2770     		strb	r7, [r4]
 286 00b0 19E0     		b	.L18
 287              	.L20:
 274:..\..\Cypress-PSOC-OLED-master\Cypress-PSOC-OLED-master\OLED.cydsn/ssd1306.c ****                     case BLACK:     *ptr &= ~mask; break;
 288              		.loc 1 274 0
 289 00b2 2778     		ldrb	r7, [r4]
 290 00b4 6646     		mov	r6, ip
 291 00b6 B743     		bics	r7, r6
 292 00b8 2770     		strb	r7, [r4]
 293 00ba 14E0     		b	.L18
 294              	.L21:
 275:..\..\Cypress-PSOC-OLED-master\Cypress-PSOC-OLED-master\OLED.cydsn/ssd1306.c ****                     case INVERSE:   *ptr ^= mask; break;
 295              		.loc 1 275 0
ARM GAS  C:\Users\boise\AppData\Local\Temp\ccDu5XGS.s 			page 11


 296 00bc 2778     		ldrb	r7, [r4]
 297 00be 6646     		mov	r6, ip
 298 00c0 7740     		eors	r7, r6
 299 00c2 2770     		strb	r7, [r4]
 300 00c4 0FE0     		b	.L18
 301              	.L17:
 276:..\..\Cypress-PSOC-OLED-master\Cypress-PSOC-OLED-master\OLED.cydsn/ssd1306.c ****                 };  
 277:..\..\Cypress-PSOC-OLED-master\Cypress-PSOC-OLED-master\OLED.cydsn/ssd1306.c ****             }else{
 278:..\..\Cypress-PSOC-OLED-master\Cypress-PSOC-OLED-master\OLED.cydsn/ssd1306.c ****                 switch( color ){
 302              		.loc 1 278 0
 303 00c6 012D     		cmp	r5, #1
 304 00c8 04D0     		beq	.L22
 305 00ca 002D     		cmp	r5, #0
 306 00cc 05D0     		beq	.L23
 307 00ce 022D     		cmp	r5, #2
 308 00d0 06D0     		beq	.L24
 309 00d2 08E0     		b	.L18
 310              	.L22:
 279:..\..\Cypress-PSOC-OLED-master\Cypress-PSOC-OLED-master\OLED.cydsn/ssd1306.c ****                     case WHITE:     *ptr = 0xff; break;
 311              		.loc 1 279 0
 312 00d4 FF27     		movs	r7, #255
 313 00d6 2770     		strb	r7, [r4]
 314 00d8 05E0     		b	.L18
 315              	.L23:
 280:..\..\Cypress-PSOC-OLED-master\Cypress-PSOC-OLED-master\OLED.cydsn/ssd1306.c ****                     case BLACK:     *ptr = 0x00; break;
 316              		.loc 1 280 0
 317 00da 0027     		movs	r7, #0
 318 00dc 2770     		strb	r7, [r4]
 319 00de 02E0     		b	.L18
 320              	.L24:
 281:..\..\Cypress-PSOC-OLED-master\Cypress-PSOC-OLED-master\OLED.cydsn/ssd1306.c ****                     case INVERSE:   *ptr ^= 0xff; break;
 321              		.loc 1 281 0
 322 00e0 2778     		ldrb	r7, [r4]
 323 00e2 FF43     		mvns	r7, r7
 324 00e4 2770     		strb	r7, [r4]
 325              	.L18:
 282:..\..\Cypress-PSOC-OLED-master\Cypress-PSOC-OLED-master\OLED.cydsn/ssd1306.c ****                 };  
 283:..\..\Cypress-PSOC-OLED-master\Cypress-PSOC-OLED-master\OLED.cydsn/ssd1306.c ****             }
 284:..\..\Cypress-PSOC-OLED-master\Cypress-PSOC-OLED-master\OLED.cydsn/ssd1306.c ****             
 285:..\..\Cypress-PSOC-OLED-master\Cypress-PSOC-OLED-master\OLED.cydsn/ssd1306.c ****             ptr += DISPLAYWIDTH;
 326              		.loc 1 285 0
 327 00e6 8034     		adds	r4, r4, #128
 328              	.LVL28:
 329              	.L10:
 330              	.LBE3:
 254:..\..\Cypress-PSOC-OLED-master\Cypress-PSOC-OLED-master\OLED.cydsn/ssd1306.c ****             
 331              		.loc 1 254 0
 332 00e8 9442     		cmp	r4, r2
 333 00ea A3D9     		bls	.L25
 334 00ec 26E0     		b	.L8
 335              	.LVL29:
 336              	.L9:
 337              	.LBE2:
 338              	.LBB5:
 286:..\..\Cypress-PSOC-OLED-master\Cypress-PSOC-OLED-master\OLED.cydsn/ssd1306.c ****         }
 287:..\..\Cypress-PSOC-OLED-master\Cypress-PSOC-OLED-master\OLED.cydsn/ssd1306.c ****     }else{
 288:..\..\Cypress-PSOC-OLED-master\Cypress-PSOC-OLED-master\OLED.cydsn/ssd1306.c ****         // horizontal
ARM GAS  C:\Users\boise\AppData\Local\Temp\ccDu5XGS.s 			page 12


 289:..\..\Cypress-PSOC-OLED-master\Cypress-PSOC-OLED-master\OLED.cydsn/ssd1306.c ****         uint8_t* pstart = GDDRAM_ADDRESS(x1,y1);
 339              		.loc 1 289 0
 340 00ee CB17     		asrs	r3, r1, #31
 341              	.LVL30:
 342 00f0 0724     		movs	r4, #7
 343              	.LVL31:
 344 00f2 2340     		ands	r3, r4
 345 00f4 5B18     		adds	r3, r3, r1
 346 00f6 DB10     		asrs	r3, r3, #3
 347 00f8 DB01     		lsls	r3, r3, #7
 348 00fa 1C18     		adds	r4, r3, r0
 349 00fc 114B     		ldr	r3, .L34
 350 00fe 0133     		adds	r3, r3, #1
 351 0100 1B19     		adds	r3, r3, r4
 352              	.LVL32:
 290:..\..\Cypress-PSOC-OLED-master\Cypress-PSOC-OLED-master\OLED.cydsn/ssd1306.c ****         uint8_t* pend = pstart + x2 - x1;
 353              		.loc 1 290 0
 354 0102 121A     		subs	r2, r2, r0
 355              	.LVL33:
 356 0104 9A18     		adds	r2, r3, r2
 357              	.LVL34:
 291:..\..\Cypress-PSOC-OLED-master\Cypress-PSOC-OLED-master\OLED.cydsn/ssd1306.c ****         uint8_t pixmask = GDDRAM_PIXMASK(y1);    
 358              		.loc 1 291 0
 359 0106 0720     		movs	r0, #7
 360              	.LVL35:
 361 0108 0140     		ands	r1, r0
 362              	.LVL36:
 363 010a 0638     		subs	r0, r0, #6
 364 010c 8840     		lsls	r0, r0, r1
 365 010e C4B2     		uxtb	r4, r0
 366              	.LVL37:
 292:..\..\Cypress-PSOC-OLED-master\Cypress-PSOC-OLED-master\OLED.cydsn/ssd1306.c **** 
 293:..\..\Cypress-PSOC-OLED-master\Cypress-PSOC-OLED-master\OLED.cydsn/ssd1306.c ****         uint8_t* ptr = pstart;
 294:..\..\Cypress-PSOC-OLED-master\Cypress-PSOC-OLED-master\OLED.cydsn/ssd1306.c ****         while( ptr <= pend ){
 367              		.loc 1 294 0
 368 0110 12E0     		b	.L27
 369              	.LVL38:
 370              	.L32:
 295:..\..\Cypress-PSOC-OLED-master\Cypress-PSOC-OLED-master\OLED.cydsn/ssd1306.c ****             switch( color ){
 371              		.loc 1 295 0
 372 0112 012D     		cmp	r5, #1
 373 0114 04D0     		beq	.L29
 374 0116 002D     		cmp	r5, #0
 375 0118 06D0     		beq	.L30
 376 011a 022D     		cmp	r5, #2
 377 011c 08D0     		beq	.L31
 378 011e 0AE0     		b	.L28
 379              	.L29:
 296:..\..\Cypress-PSOC-OLED-master\Cypress-PSOC-OLED-master\OLED.cydsn/ssd1306.c ****                 case WHITE:     *ptr |= pixmask; break;
 380              		.loc 1 296 0
 381 0120 1978     		ldrb	r1, [r3]
 382 0122 2143     		orrs	r1, r4
 383 0124 1970     		strb	r1, [r3]
 384 0126 06E0     		b	.L28
 385              	.L30:
 297:..\..\Cypress-PSOC-OLED-master\Cypress-PSOC-OLED-master\OLED.cydsn/ssd1306.c ****                 case BLACK:     *ptr &= ~pixmask; break;
 386              		.loc 1 297 0
ARM GAS  C:\Users\boise\AppData\Local\Temp\ccDu5XGS.s 			page 13


 387 0128 1978     		ldrb	r1, [r3]
 388 012a 8143     		bics	r1, r0
 389 012c 1970     		strb	r1, [r3]
 390 012e 02E0     		b	.L28
 391              	.L31:
 298:..\..\Cypress-PSOC-OLED-master\Cypress-PSOC-OLED-master\OLED.cydsn/ssd1306.c ****                 case INVERSE:   *ptr ^= pixmask; break;
 392              		.loc 1 298 0
 393 0130 1978     		ldrb	r1, [r3]
 394 0132 6140     		eors	r1, r4
 395 0134 1970     		strb	r1, [r3]
 396              	.L28:
 299:..\..\Cypress-PSOC-OLED-master\Cypress-PSOC-OLED-master\OLED.cydsn/ssd1306.c ****             };
 300:..\..\Cypress-PSOC-OLED-master\Cypress-PSOC-OLED-master\OLED.cydsn/ssd1306.c ****             ptr++;
 397              		.loc 1 300 0
 398 0136 0133     		adds	r3, r3, #1
 399              	.LVL39:
 400              	.L27:
 294:..\..\Cypress-PSOC-OLED-master\Cypress-PSOC-OLED-master\OLED.cydsn/ssd1306.c ****             switch( color ){
 401              		.loc 1 294 0
 402 0138 9342     		cmp	r3, r2
 403 013a EAD9     		bls	.L32
 404              	.LVL40:
 405              	.L8:
 406              	.LBE5:
 301:..\..\Cypress-PSOC-OLED-master\Cypress-PSOC-OLED-master\OLED.cydsn/ssd1306.c ****         }
 302:..\..\Cypress-PSOC-OLED-master\Cypress-PSOC-OLED-master\OLED.cydsn/ssd1306.c ****     }
 303:..\..\Cypress-PSOC-OLED-master\Cypress-PSOC-OLED-master\OLED.cydsn/ssd1306.c **** }
 407              		.loc 1 303 0
 408              		@ sp needed
 409 013c 04BC     		pop	{r2}
 410 013e 9046     		mov	r8, r2
 411 0140 F0BD     		pop	{r4, r5, r6, r7, pc}
 412              	.L35:
 413 0142 C046     		.align	2
 414              	.L34:
 415 0144 00000000 		.word	.LANCHOR0
 416 0148 07000080 		.word	-2147483641
 417              		.cfi_endproc
 418              	.LFE39:
 419              		.size	display_line, .-display_line
 420              		.section	.text.gfx_rotation_adjust,"ax",%progbits
 421              		.align	2
 422              		.code	16
 423              		.thumb_func
 424              		.type	gfx_rotation_adjust, %function
 425              	gfx_rotation_adjust:
 426              	.LFB52:
 304:..\..\Cypress-PSOC-OLED-master\Cypress-PSOC-OLED-master\OLED.cydsn/ssd1306.c **** 
 305:..\..\Cypress-PSOC-OLED-master\Cypress-PSOC-OLED-master\OLED.cydsn/ssd1306.c **** 
 306:..\..\Cypress-PSOC-OLED-master\Cypress-PSOC-OLED-master\OLED.cydsn/ssd1306.c **** 
 307:..\..\Cypress-PSOC-OLED-master\Cypress-PSOC-OLED-master\OLED.cydsn/ssd1306.c **** void display_stopscroll(void){
 308:..\..\Cypress-PSOC-OLED-master\Cypress-PSOC-OLED-master\OLED.cydsn/ssd1306.c **** 
 309:..\..\Cypress-PSOC-OLED-master\Cypress-PSOC-OLED-master\OLED.cydsn/ssd1306.c ****     uint8 cmdbuf[] = {
 310:..\..\Cypress-PSOC-OLED-master\Cypress-PSOC-OLED-master\OLED.cydsn/ssd1306.c ****         0x00,
 311:..\..\Cypress-PSOC-OLED-master\Cypress-PSOC-OLED-master\OLED.cydsn/ssd1306.c ****         SSD1306_DEACTIVATE_SCROLL
 312:..\..\Cypress-PSOC-OLED-master\Cypress-PSOC-OLED-master\OLED.cydsn/ssd1306.c ****     };
 313:..\..\Cypress-PSOC-OLED-master\Cypress-PSOC-OLED-master\OLED.cydsn/ssd1306.c ****     display_write_buf( cmdbuf, sizeof(cmdbuf) ); 
ARM GAS  C:\Users\boise\AppData\Local\Temp\ccDu5XGS.s 			page 14


 314:..\..\Cypress-PSOC-OLED-master\Cypress-PSOC-OLED-master\OLED.cydsn/ssd1306.c **** }
 315:..\..\Cypress-PSOC-OLED-master\Cypress-PSOC-OLED-master\OLED.cydsn/ssd1306.c **** 
 316:..\..\Cypress-PSOC-OLED-master\Cypress-PSOC-OLED-master\OLED.cydsn/ssd1306.c **** void display_scroll( SCROLL_AREA start, SCROLL_AREA end, SCROLL_DIR dir, SCROLL_SPEED speed ){
 317:..\..\Cypress-PSOC-OLED-master\Cypress-PSOC-OLED-master\OLED.cydsn/ssd1306.c ****    
 318:..\..\Cypress-PSOC-OLED-master\Cypress-PSOC-OLED-master\OLED.cydsn/ssd1306.c ****     uint8 cmdbuf[] = {
 319:..\..\Cypress-PSOC-OLED-master\Cypress-PSOC-OLED-master\OLED.cydsn/ssd1306.c ****         0x00,
 320:..\..\Cypress-PSOC-OLED-master\Cypress-PSOC-OLED-master\OLED.cydsn/ssd1306.c ****         dir,                    // 0x26 or 0x2a
 321:..\..\Cypress-PSOC-OLED-master\Cypress-PSOC-OLED-master\OLED.cydsn/ssd1306.c ****         0x00,                   // dummy byte
 322:..\..\Cypress-PSOC-OLED-master\Cypress-PSOC-OLED-master\OLED.cydsn/ssd1306.c ****         start,                  // start page
 323:..\..\Cypress-PSOC-OLED-master\Cypress-PSOC-OLED-master\OLED.cydsn/ssd1306.c ****         speed,                  // scroll step interval in terms of frame frequency 
 324:..\..\Cypress-PSOC-OLED-master\Cypress-PSOC-OLED-master\OLED.cydsn/ssd1306.c ****         end,                    // end page
 325:..\..\Cypress-PSOC-OLED-master\Cypress-PSOC-OLED-master\OLED.cydsn/ssd1306.c ****         0x00,                   // dummy byte
 326:..\..\Cypress-PSOC-OLED-master\Cypress-PSOC-OLED-master\OLED.cydsn/ssd1306.c ****         0xFF,                   // dummy byte
 327:..\..\Cypress-PSOC-OLED-master\Cypress-PSOC-OLED-master\OLED.cydsn/ssd1306.c ****         SSD1306_ACTIVATE_SCROLL // 0x2F
 328:..\..\Cypress-PSOC-OLED-master\Cypress-PSOC-OLED-master\OLED.cydsn/ssd1306.c ****     };
 329:..\..\Cypress-PSOC-OLED-master\Cypress-PSOC-OLED-master\OLED.cydsn/ssd1306.c ****     display_write_buf( cmdbuf, sizeof(cmdbuf) ); 
 330:..\..\Cypress-PSOC-OLED-master\Cypress-PSOC-OLED-master\OLED.cydsn/ssd1306.c **** }
 331:..\..\Cypress-PSOC-OLED-master\Cypress-PSOC-OLED-master\OLED.cydsn/ssd1306.c **** 
 332:..\..\Cypress-PSOC-OLED-master\Cypress-PSOC-OLED-master\OLED.cydsn/ssd1306.c **** 
 333:..\..\Cypress-PSOC-OLED-master\Cypress-PSOC-OLED-master\OLED.cydsn/ssd1306.c **** 
 334:..\..\Cypress-PSOC-OLED-master\Cypress-PSOC-OLED-master\OLED.cydsn/ssd1306.c **** // ============================================================
 335:..\..\Cypress-PSOC-OLED-master\Cypress-PSOC-OLED-master\OLED.cydsn/ssd1306.c **** // graphics library stuff
 336:..\..\Cypress-PSOC-OLED-master\Cypress-PSOC-OLED-master\OLED.cydsn/ssd1306.c **** 
 337:..\..\Cypress-PSOC-OLED-master\Cypress-PSOC-OLED-master\OLED.cydsn/ssd1306.c **** int16_t WIDTH, HEIGHT; // This is the 'raw' display w/h - never changes
 338:..\..\Cypress-PSOC-OLED-master\Cypress-PSOC-OLED-master\OLED.cydsn/ssd1306.c **** static int16_t _width, _height; // Display w/h as modified by current rotation
 339:..\..\Cypress-PSOC-OLED-master\Cypress-PSOC-OLED-master\OLED.cydsn/ssd1306.c **** static int16_t cursor_x, cursor_y;
 340:..\..\Cypress-PSOC-OLED-master\Cypress-PSOC-OLED-master\OLED.cydsn/ssd1306.c **** static uint16_t textcolor, textbgcolor;
 341:..\..\Cypress-PSOC-OLED-master\Cypress-PSOC-OLED-master\OLED.cydsn/ssd1306.c **** static uint8_t textsize;
 342:..\..\Cypress-PSOC-OLED-master\Cypress-PSOC-OLED-master\OLED.cydsn/ssd1306.c **** uint8_t rotation;
 343:..\..\Cypress-PSOC-OLED-master\Cypress-PSOC-OLED-master\OLED.cydsn/ssd1306.c **** uint8_t wrap; // If set, 'wrap' text at right edge of display
 344:..\..\Cypress-PSOC-OLED-master\Cypress-PSOC-OLED-master\OLED.cydsn/ssd1306.c **** 
 345:..\..\Cypress-PSOC-OLED-master\Cypress-PSOC-OLED-master\OLED.cydsn/ssd1306.c **** 
 346:..\..\Cypress-PSOC-OLED-master\Cypress-PSOC-OLED-master\OLED.cydsn/ssd1306.c **** 
 347:..\..\Cypress-PSOC-OLED-master\Cypress-PSOC-OLED-master\OLED.cydsn/ssd1306.c **** void gfx_init( int16_t width, int16_t height ){
 348:..\..\Cypress-PSOC-OLED-master\Cypress-PSOC-OLED-master\OLED.cydsn/ssd1306.c ****     WIDTH = width;
 349:..\..\Cypress-PSOC-OLED-master\Cypress-PSOC-OLED-master\OLED.cydsn/ssd1306.c ****     HEIGHT = height;
 350:..\..\Cypress-PSOC-OLED-master\Cypress-PSOC-OLED-master\OLED.cydsn/ssd1306.c ****     _width = WIDTH;
 351:..\..\Cypress-PSOC-OLED-master\Cypress-PSOC-OLED-master\OLED.cydsn/ssd1306.c ****     _height = HEIGHT;
 352:..\..\Cypress-PSOC-OLED-master\Cypress-PSOC-OLED-master\OLED.cydsn/ssd1306.c ****     
 353:..\..\Cypress-PSOC-OLED-master\Cypress-PSOC-OLED-master\OLED.cydsn/ssd1306.c ****     rotation = 0;
 354:..\..\Cypress-PSOC-OLED-master\Cypress-PSOC-OLED-master\OLED.cydsn/ssd1306.c ****     cursor_y = cursor_x = 0;
 355:..\..\Cypress-PSOC-OLED-master\Cypress-PSOC-OLED-master\OLED.cydsn/ssd1306.c ****     textsize = 1;
 356:..\..\Cypress-PSOC-OLED-master\Cypress-PSOC-OLED-master\OLED.cydsn/ssd1306.c ****     textcolor = textbgcolor = 0xFFFF;
 357:..\..\Cypress-PSOC-OLED-master\Cypress-PSOC-OLED-master\OLED.cydsn/ssd1306.c ****     wrap = 1;
 358:..\..\Cypress-PSOC-OLED-master\Cypress-PSOC-OLED-master\OLED.cydsn/ssd1306.c **** }
 359:..\..\Cypress-PSOC-OLED-master\Cypress-PSOC-OLED-master\OLED.cydsn/ssd1306.c **** 
 360:..\..\Cypress-PSOC-OLED-master\Cypress-PSOC-OLED-master\OLED.cydsn/ssd1306.c **** // Return the size of the display (per current rotation)
 361:..\..\Cypress-PSOC-OLED-master\Cypress-PSOC-OLED-master\OLED.cydsn/ssd1306.c **** int16_t gfx_width(void){
 362:..\..\Cypress-PSOC-OLED-master\Cypress-PSOC-OLED-master\OLED.cydsn/ssd1306.c ****     return _width;
 363:..\..\Cypress-PSOC-OLED-master\Cypress-PSOC-OLED-master\OLED.cydsn/ssd1306.c **** }
 364:..\..\Cypress-PSOC-OLED-master\Cypress-PSOC-OLED-master\OLED.cydsn/ssd1306.c **** 
 365:..\..\Cypress-PSOC-OLED-master\Cypress-PSOC-OLED-master\OLED.cydsn/ssd1306.c **** int16_t gfx_height(void){
 366:..\..\Cypress-PSOC-OLED-master\Cypress-PSOC-OLED-master\OLED.cydsn/ssd1306.c ****     return _height;
 367:..\..\Cypress-PSOC-OLED-master\Cypress-PSOC-OLED-master\OLED.cydsn/ssd1306.c **** }
 368:..\..\Cypress-PSOC-OLED-master\Cypress-PSOC-OLED-master\OLED.cydsn/ssd1306.c **** 
 369:..\..\Cypress-PSOC-OLED-master\Cypress-PSOC-OLED-master\OLED.cydsn/ssd1306.c **** uint8_t gfx_rotation(void){
 370:..\..\Cypress-PSOC-OLED-master\Cypress-PSOC-OLED-master\OLED.cydsn/ssd1306.c ****     return rotation;
ARM GAS  C:\Users\boise\AppData\Local\Temp\ccDu5XGS.s 			page 15


 371:..\..\Cypress-PSOC-OLED-master\Cypress-PSOC-OLED-master\OLED.cydsn/ssd1306.c **** }
 372:..\..\Cypress-PSOC-OLED-master\Cypress-PSOC-OLED-master\OLED.cydsn/ssd1306.c **** 
 373:..\..\Cypress-PSOC-OLED-master\Cypress-PSOC-OLED-master\OLED.cydsn/ssd1306.c **** void gfx_setCursor( int16_t x, int16_t y ){
 374:..\..\Cypress-PSOC-OLED-master\Cypress-PSOC-OLED-master\OLED.cydsn/ssd1306.c ****     cursor_x = x;
 375:..\..\Cypress-PSOC-OLED-master\Cypress-PSOC-OLED-master\OLED.cydsn/ssd1306.c ****     cursor_y = y;
 376:..\..\Cypress-PSOC-OLED-master\Cypress-PSOC-OLED-master\OLED.cydsn/ssd1306.c **** }
 377:..\..\Cypress-PSOC-OLED-master\Cypress-PSOC-OLED-master\OLED.cydsn/ssd1306.c **** 
 378:..\..\Cypress-PSOC-OLED-master\Cypress-PSOC-OLED-master\OLED.cydsn/ssd1306.c **** void gfx_setTextSize( uint8_t size ){
 379:..\..\Cypress-PSOC-OLED-master\Cypress-PSOC-OLED-master\OLED.cydsn/ssd1306.c ****     textsize = (size > 0) ? size : 1;
 380:..\..\Cypress-PSOC-OLED-master\Cypress-PSOC-OLED-master\OLED.cydsn/ssd1306.c **** }
 381:..\..\Cypress-PSOC-OLED-master\Cypress-PSOC-OLED-master\OLED.cydsn/ssd1306.c **** 
 382:..\..\Cypress-PSOC-OLED-master\Cypress-PSOC-OLED-master\OLED.cydsn/ssd1306.c **** void gfx_setTextColor( uint16_t color ){
 383:..\..\Cypress-PSOC-OLED-master\Cypress-PSOC-OLED-master\OLED.cydsn/ssd1306.c ****     // For 'transparent' background, we'll set the bg
 384:..\..\Cypress-PSOC-OLED-master\Cypress-PSOC-OLED-master\OLED.cydsn/ssd1306.c ****     // to the same as fg instead of using a flag
 385:..\..\Cypress-PSOC-OLED-master\Cypress-PSOC-OLED-master\OLED.cydsn/ssd1306.c ****     textcolor = textbgcolor = color;
 386:..\..\Cypress-PSOC-OLED-master\Cypress-PSOC-OLED-master\OLED.cydsn/ssd1306.c **** }
 387:..\..\Cypress-PSOC-OLED-master\Cypress-PSOC-OLED-master\OLED.cydsn/ssd1306.c **** 
 388:..\..\Cypress-PSOC-OLED-master\Cypress-PSOC-OLED-master\OLED.cydsn/ssd1306.c **** void gfx_setTextBg( uint16_t color ){
 389:..\..\Cypress-PSOC-OLED-master\Cypress-PSOC-OLED-master\OLED.cydsn/ssd1306.c ****     textbgcolor = color;
 390:..\..\Cypress-PSOC-OLED-master\Cypress-PSOC-OLED-master\OLED.cydsn/ssd1306.c **** }
 391:..\..\Cypress-PSOC-OLED-master\Cypress-PSOC-OLED-master\OLED.cydsn/ssd1306.c **** 
 392:..\..\Cypress-PSOC-OLED-master\Cypress-PSOC-OLED-master\OLED.cydsn/ssd1306.c **** void gfx_setTextWrap( uint8 w ){
 393:..\..\Cypress-PSOC-OLED-master\Cypress-PSOC-OLED-master\OLED.cydsn/ssd1306.c ****     wrap = w;
 394:..\..\Cypress-PSOC-OLED-master\Cypress-PSOC-OLED-master\OLED.cydsn/ssd1306.c **** }
 395:..\..\Cypress-PSOC-OLED-master\Cypress-PSOC-OLED-master\OLED.cydsn/ssd1306.c **** 
 396:..\..\Cypress-PSOC-OLED-master\Cypress-PSOC-OLED-master\OLED.cydsn/ssd1306.c **** void gfx_setRotation( uint8_t x ){
 397:..\..\Cypress-PSOC-OLED-master\Cypress-PSOC-OLED-master\OLED.cydsn/ssd1306.c ****     
 398:..\..\Cypress-PSOC-OLED-master\Cypress-PSOC-OLED-master\OLED.cydsn/ssd1306.c ****     rotation = (x & 3);
 399:..\..\Cypress-PSOC-OLED-master\Cypress-PSOC-OLED-master\OLED.cydsn/ssd1306.c ****     switch( rotation ){
 400:..\..\Cypress-PSOC-OLED-master\Cypress-PSOC-OLED-master\OLED.cydsn/ssd1306.c ****         case 0:
 401:..\..\Cypress-PSOC-OLED-master\Cypress-PSOC-OLED-master\OLED.cydsn/ssd1306.c ****         case 2:
 402:..\..\Cypress-PSOC-OLED-master\Cypress-PSOC-OLED-master\OLED.cydsn/ssd1306.c ****             _width = WIDTH;
 403:..\..\Cypress-PSOC-OLED-master\Cypress-PSOC-OLED-master\OLED.cydsn/ssd1306.c ****             _height = HEIGHT;
 404:..\..\Cypress-PSOC-OLED-master\Cypress-PSOC-OLED-master\OLED.cydsn/ssd1306.c ****             break;
 405:..\..\Cypress-PSOC-OLED-master\Cypress-PSOC-OLED-master\OLED.cydsn/ssd1306.c ****         case 1:
 406:..\..\Cypress-PSOC-OLED-master\Cypress-PSOC-OLED-master\OLED.cydsn/ssd1306.c ****         case 3:
 407:..\..\Cypress-PSOC-OLED-master\Cypress-PSOC-OLED-master\OLED.cydsn/ssd1306.c ****             _width = HEIGHT;
 408:..\..\Cypress-PSOC-OLED-master\Cypress-PSOC-OLED-master\OLED.cydsn/ssd1306.c ****             _height = WIDTH;
 409:..\..\Cypress-PSOC-OLED-master\Cypress-PSOC-OLED-master\OLED.cydsn/ssd1306.c ****         break;
 410:..\..\Cypress-PSOC-OLED-master\Cypress-PSOC-OLED-master\OLED.cydsn/ssd1306.c ****     }
 411:..\..\Cypress-PSOC-OLED-master\Cypress-PSOC-OLED-master\OLED.cydsn/ssd1306.c **** }
 412:..\..\Cypress-PSOC-OLED-master\Cypress-PSOC-OLED-master\OLED.cydsn/ssd1306.c **** 
 413:..\..\Cypress-PSOC-OLED-master\Cypress-PSOC-OLED-master\OLED.cydsn/ssd1306.c **** static void gfx_rotation_adjust( int16_t* px, int16_t* py ){
 427              		.loc 1 413 0
 428              		.cfi_startproc
 429              		@ args = 0, pretend = 0, frame = 0
 430              		@ frame_needed = 0, uses_anonymous_args = 0
 431              	.LVL41:
 432 0000 10B5     		push	{r4, lr}
 433              		.cfi_def_cfa_offset 8
 434              		.cfi_offset 4, -8
 435              		.cfi_offset 14, -4
 414:..\..\Cypress-PSOC-OLED-master\Cypress-PSOC-OLED-master\OLED.cydsn/ssd1306.c **** 
 415:..\..\Cypress-PSOC-OLED-master\Cypress-PSOC-OLED-master\OLED.cydsn/ssd1306.c ****     int16_t y0 = *py;
 436              		.loc 1 415 0
 437 0002 0023     		movs	r3, #0
 438 0004 CA5E     		ldrsh	r2, [r1, r3]
ARM GAS  C:\Users\boise\AppData\Local\Temp\ccDu5XGS.s 			page 16


 439              	.LVL42:
 416:..\..\Cypress-PSOC-OLED-master\Cypress-PSOC-OLED-master\OLED.cydsn/ssd1306.c ****     
 417:..\..\Cypress-PSOC-OLED-master\Cypress-PSOC-OLED-master\OLED.cydsn/ssd1306.c ****     switch( rotation ){
 440              		.loc 1 417 0
 441 0006 144B     		ldr	r3, .L41
 442 0008 1B78     		ldrb	r3, [r3]
 443 000a 022B     		cmp	r3, #2
 444 000c 0CD0     		beq	.L38
 445 000e 032B     		cmp	r3, #3
 446 0010 19D0     		beq	.L39
 447 0012 012B     		cmp	r3, #1
 448 0014 1FD1     		bne	.L36
 418:..\..\Cypress-PSOC-OLED-master\Cypress-PSOC-OLED-master\OLED.cydsn/ssd1306.c ****         case 1:
 419:..\..\Cypress-PSOC-OLED-master\Cypress-PSOC-OLED-master\OLED.cydsn/ssd1306.c ****             *py = *px;
 449              		.loc 1 419 0
 450 0016 0024     		movs	r4, #0
 451 0018 035F     		ldrsh	r3, [r0, r4]
 452 001a 0B80     		strh	r3, [r1]
 420:..\..\Cypress-PSOC-OLED-master\Cypress-PSOC-OLED-master\OLED.cydsn/ssd1306.c ****             *px = WIDTH - y0 - 1;
 453              		.loc 1 420 0
 454 001c 0F4B     		ldr	r3, .L41+4
 455 001e 1B88     		ldrh	r3, [r3]
 456 0020 9A1A     		subs	r2, r3, r2
 457              	.LVL43:
 458 0022 013A     		subs	r2, r2, #1
 459 0024 0280     		strh	r2, [r0]
 421:..\..\Cypress-PSOC-OLED-master\Cypress-PSOC-OLED-master\OLED.cydsn/ssd1306.c ****             break;
 460              		.loc 1 421 0
 461 0026 16E0     		b	.L36
 462              	.LVL44:
 463              	.L38:
 422:..\..\Cypress-PSOC-OLED-master\Cypress-PSOC-OLED-master\OLED.cydsn/ssd1306.c ****         case 2:
 423:..\..\Cypress-PSOC-OLED-master\Cypress-PSOC-OLED-master\OLED.cydsn/ssd1306.c ****             *px = WIDTH - *px - 1;
 464              		.loc 1 423 0
 465 0028 0023     		movs	r3, #0
 466 002a C25E     		ldrsh	r2, [r0, r3]
 467              	.LVL45:
 468 002c 0B4B     		ldr	r3, .L41+4
 469 002e 1B88     		ldrh	r3, [r3]
 470 0030 9B1A     		subs	r3, r3, r2
 471 0032 013B     		subs	r3, r3, #1
 472 0034 0380     		strh	r3, [r0]
 473              	.LVL46:
 424:..\..\Cypress-PSOC-OLED-master\Cypress-PSOC-OLED-master\OLED.cydsn/ssd1306.c ****             *py = HEIGHT - *py - 1;
 474              		.loc 1 424 0
 475 0036 0023     		movs	r3, #0
 476 0038 CA5E     		ldrsh	r2, [r1, r3]
 477 003a 094B     		ldr	r3, .L41+8
 478 003c 1B88     		ldrh	r3, [r3]
 479 003e 9B1A     		subs	r3, r3, r2
 480 0040 013B     		subs	r3, r3, #1
 481 0042 0B80     		strh	r3, [r1]
 425:..\..\Cypress-PSOC-OLED-master\Cypress-PSOC-OLED-master\OLED.cydsn/ssd1306.c ****             break;
 482              		.loc 1 425 0
 483 0044 07E0     		b	.L36
 484              	.LVL47:
 485              	.L39:
ARM GAS  C:\Users\boise\AppData\Local\Temp\ccDu5XGS.s 			page 17


 426:..\..\Cypress-PSOC-OLED-master\Cypress-PSOC-OLED-master\OLED.cydsn/ssd1306.c ****         case 3:
 427:..\..\Cypress-PSOC-OLED-master\Cypress-PSOC-OLED-master\OLED.cydsn/ssd1306.c ****             *py = HEIGHT - *px - 1;
 486              		.loc 1 427 0
 487 0046 0023     		movs	r3, #0
 488 0048 C45E     		ldrsh	r4, [r0, r3]
 489 004a 054B     		ldr	r3, .L41+8
 490 004c 1B88     		ldrh	r3, [r3]
 491 004e 1B1B     		subs	r3, r3, r4
 492 0050 013B     		subs	r3, r3, #1
 493 0052 0B80     		strh	r3, [r1]
 428:..\..\Cypress-PSOC-OLED-master\Cypress-PSOC-OLED-master\OLED.cydsn/ssd1306.c ****             *px = y0;
 494              		.loc 1 428 0
 495 0054 0280     		strh	r2, [r0]
 496              	.LVL48:
 497              	.L36:
 429:..\..\Cypress-PSOC-OLED-master\Cypress-PSOC-OLED-master\OLED.cydsn/ssd1306.c ****             break;
 430:..\..\Cypress-PSOC-OLED-master\Cypress-PSOC-OLED-master\OLED.cydsn/ssd1306.c ****     }
 431:..\..\Cypress-PSOC-OLED-master\Cypress-PSOC-OLED-master\OLED.cydsn/ssd1306.c **** }
 498              		.loc 1 431 0
 499              		@ sp needed
 500 0056 10BD     		pop	{r4, pc}
 501              	.L42:
 502              		.align	2
 503              	.L41:
 504 0058 00000000 		.word	rotation
 505 005c 00000000 		.word	WIDTH
 506 0060 00000000 		.word	HEIGHT
 507              		.cfi_endproc
 508              	.LFE52:
 509              		.size	gfx_rotation_adjust, .-gfx_rotation_adjust
 510              		.section	.text.gfx_hvLine,"ax",%progbits
 511              		.align	2
 512              		.code	16
 513              		.thumb_func
 514              		.type	gfx_hvLine, %function
 515              	gfx_hvLine:
 516              	.LFB54:
 432:..\..\Cypress-PSOC-OLED-master\Cypress-PSOC-OLED-master\OLED.cydsn/ssd1306.c **** 
 433:..\..\Cypress-PSOC-OLED-master\Cypress-PSOC-OLED-master\OLED.cydsn/ssd1306.c **** void gfx_drawPixel( int16_t x, int16_t y, uint16_t color ){
 434:..\..\Cypress-PSOC-OLED-master\Cypress-PSOC-OLED-master\OLED.cydsn/ssd1306.c ****     
 435:..\..\Cypress-PSOC-OLED-master\Cypress-PSOC-OLED-master\OLED.cydsn/ssd1306.c ****     if( (x < 0) || (x >= _width) || (y < 0) || (y >= _height) )
 436:..\..\Cypress-PSOC-OLED-master\Cypress-PSOC-OLED-master\OLED.cydsn/ssd1306.c ****         return;
 437:..\..\Cypress-PSOC-OLED-master\Cypress-PSOC-OLED-master\OLED.cydsn/ssd1306.c ****     
 438:..\..\Cypress-PSOC-OLED-master\Cypress-PSOC-OLED-master\OLED.cydsn/ssd1306.c ****     gfx_rotation_adjust( &x, &y );
 439:..\..\Cypress-PSOC-OLED-master\Cypress-PSOC-OLED-master\OLED.cydsn/ssd1306.c **** 
 440:..\..\Cypress-PSOC-OLED-master\Cypress-PSOC-OLED-master\OLED.cydsn/ssd1306.c ****     display_setPixel(x,y,color);
 441:..\..\Cypress-PSOC-OLED-master\Cypress-PSOC-OLED-master\OLED.cydsn/ssd1306.c **** }
 442:..\..\Cypress-PSOC-OLED-master\Cypress-PSOC-OLED-master\OLED.cydsn/ssd1306.c **** 
 443:..\..\Cypress-PSOC-OLED-master\Cypress-PSOC-OLED-master\OLED.cydsn/ssd1306.c **** // helper function for gfx_drawLine, handles special cases of horizontal and vertical lines
 444:..\..\Cypress-PSOC-OLED-master\Cypress-PSOC-OLED-master\OLED.cydsn/ssd1306.c **** static void gfx_hvLine( int16_t x1, int16_t y1, int16_t x2, int16_t y2, uint16_t color ){
 517              		.loc 1 444 0
 518              		.cfi_startproc
 519              		@ args = 4, pretend = 0, frame = 8
 520              		@ frame_needed = 0, uses_anonymous_args = 0
 521              	.LVL49:
 522 0000 70B5     		push	{r4, r5, r6, lr}
 523              		.cfi_def_cfa_offset 16
ARM GAS  C:\Users\boise\AppData\Local\Temp\ccDu5XGS.s 			page 18


 524              		.cfi_offset 4, -16
 525              		.cfi_offset 5, -12
 526              		.cfi_offset 6, -8
 527              		.cfi_offset 14, -4
 528 0002 84B0     		sub	sp, sp, #16
 529              		.cfi_def_cfa_offset 32
 530 0004 08AC     		add	r4, sp, #32
 531              	.LVL50:
 532 0006 2488     		ldrh	r4, [r4]
 533              	.LVL51:
 534 0008 0E25     		movs	r5, #14
 535 000a 6D44     		add	r5, r5, sp
 536 000c 2880     		strh	r0, [r5]
 537 000e 03AD     		add	r5, sp, #12
 538 0010 2980     		strh	r1, [r5]
 539 0012 0A21     		movs	r1, #10
 540              	.LVL52:
 541 0014 6944     		add	r1, r1, sp
 542 0016 0A80     		strh	r2, [r1]
 543 0018 02A9     		add	r1, sp, #8
 544 001a 0B80     		strh	r3, [r1]
 445:..\..\Cypress-PSOC-OLED-master\Cypress-PSOC-OLED-master\OLED.cydsn/ssd1306.c ****     
 446:..\..\Cypress-PSOC-OLED-master\Cypress-PSOC-OLED-master\OLED.cydsn/ssd1306.c ****     if( x1 != x2 && y1 != y2 ){
 545              		.loc 1 446 0
 546 001c 9042     		cmp	r0, r2
 547 001e 08D0     		beq	.L44
 548              		.loc 1 446 0 is_stmt 0 discriminator 1
 549 0020 2B00     		movs	r3, r5
 550              	.LVL53:
 551 0022 0021     		movs	r1, #0
 552 0024 595E     		ldrsh	r1, [r3, r1]
 553              	.LVL54:
 554 0026 02AB     		add	r3, sp, #8
 555              	.LVL55:
 556 0028 0025     		movs	r5, #0
 557 002a 5B5F     		ldrsh	r3, [r3, r5]
 558              	.LVL56:
 559 002c 9942     		cmp	r1, r3
 560 002e 00D0     		beq	.LCB590
 561 0030 80E0     		b	.L43	@long jump
 562              	.LCB590:
 563              	.L44:
 447:..\..\Cypress-PSOC-OLED-master\Cypress-PSOC-OLED-master\OLED.cydsn/ssd1306.c ****         // neither vertical nor horizontal
 448:..\..\Cypress-PSOC-OLED-master\Cypress-PSOC-OLED-master\OLED.cydsn/ssd1306.c ****         return;
 449:..\..\Cypress-PSOC-OLED-master\Cypress-PSOC-OLED-master\OLED.cydsn/ssd1306.c ****     }    
 450:..\..\Cypress-PSOC-OLED-master\Cypress-PSOC-OLED-master\OLED.cydsn/ssd1306.c ****     
 451:..\..\Cypress-PSOC-OLED-master\Cypress-PSOC-OLED-master\OLED.cydsn/ssd1306.c ****     // bounds check
 452:..\..\Cypress-PSOC-OLED-master\Cypress-PSOC-OLED-master\OLED.cydsn/ssd1306.c ****     if( rotation == 1 || rotation == 3 ){
 564              		.loc 1 452 0 is_stmt 1
 565 0032 414B     		ldr	r3, .L52
 566 0034 1B78     		ldrb	r3, [r3]
 567 0036 012B     		cmp	r3, #1
 568 0038 01D0     		beq	.L46
 569              		.loc 1 452 0 is_stmt 0 discriminator 1
 570 003a 032B     		cmp	r3, #3
 571 003c 1CD1     		bne	.L47
 572              	.L46:
ARM GAS  C:\Users\boise\AppData\Local\Temp\ccDu5XGS.s 			page 19


 453:..\..\Cypress-PSOC-OLED-master\Cypress-PSOC-OLED-master\OLED.cydsn/ssd1306.c ****         if( x1 < 0 || x1 >= HEIGHT || x2 < 0 || x2 >= HEIGHT )
 573              		.loc 1 453 0 is_stmt 1
 574 003e 0028     		cmp	r0, #0
 575 0040 78DB     		blt	.L43
 576              		.loc 1 453 0 is_stmt 0 discriminator 1
 577 0042 3E4B     		ldr	r3, .L52+4
 578 0044 0021     		movs	r1, #0
 579 0046 5B5E     		ldrsh	r3, [r3, r1]
 580 0048 9842     		cmp	r0, r3
 581 004a 73DA     		bge	.L43
 582              		.loc 1 453 0 discriminator 2
 583 004c 002A     		cmp	r2, #0
 584 004e 71DB     		blt	.L43
 585              		.loc 1 453 0 discriminator 3
 586 0050 9A42     		cmp	r2, r3
 587 0052 6FDA     		bge	.L43
 454:..\..\Cypress-PSOC-OLED-master\Cypress-PSOC-OLED-master\OLED.cydsn/ssd1306.c ****             return;
 455:..\..\Cypress-PSOC-OLED-master\Cypress-PSOC-OLED-master\OLED.cydsn/ssd1306.c ****         if( y1 < 0 || y1 >= WIDTH || y2 < 0 || y2 >= WIDTH )
 588              		.loc 1 455 0 is_stmt 1
 589 0054 03AB     		add	r3, sp, #12
 590              	.LVL57:
 591 0056 0022     		movs	r2, #0
 592 0058 9B5E     		ldrsh	r3, [r3, r2]
 593              	.LVL58:
 594 005a 002B     		cmp	r3, #0
 595 005c 6ADB     		blt	.L43
 596              		.loc 1 455 0 is_stmt 0 discriminator 1
 597 005e 384A     		ldr	r2, .L52+8
 598 0060 0021     		movs	r1, #0
 599 0062 525E     		ldrsh	r2, [r2, r1]
 600 0064 9342     		cmp	r3, r2
 601 0066 65DA     		bge	.L43
 602              		.loc 1 455 0 discriminator 2
 603 0068 02AB     		add	r3, sp, #8
 604              	.LVL59:
 605 006a 0021     		movs	r1, #0
 606 006c 5B5E     		ldrsh	r3, [r3, r1]
 607              	.LVL60:
 608 006e 002B     		cmp	r3, #0
 609 0070 60DB     		blt	.L43
 610              		.loc 1 455 0 discriminator 3
 611 0072 9A42     		cmp	r2, r3
 612 0074 1CDC     		bgt	.L48
 613 0076 5DE0     		b	.L43
 614              	.LVL61:
 615              	.L47:
 456:..\..\Cypress-PSOC-OLED-master\Cypress-PSOC-OLED-master\OLED.cydsn/ssd1306.c ****             return;
 457:..\..\Cypress-PSOC-OLED-master\Cypress-PSOC-OLED-master\OLED.cydsn/ssd1306.c ****     }else{
 458:..\..\Cypress-PSOC-OLED-master\Cypress-PSOC-OLED-master\OLED.cydsn/ssd1306.c ****         if( y1 < 0 || y1 >= HEIGHT || y2 < 0 || y2 >= HEIGHT )
 616              		.loc 1 458 0 is_stmt 1
 617 0078 03AB     		add	r3, sp, #12
 618              	.LVL62:
 619 007a 0021     		movs	r1, #0
 620 007c 5B5E     		ldrsh	r3, [r3, r1]
 621              	.LVL63:
 622 007e 002B     		cmp	r3, #0
 623 0080 58DB     		blt	.L43
ARM GAS  C:\Users\boise\AppData\Local\Temp\ccDu5XGS.s 			page 20


 624              		.loc 1 458 0 is_stmt 0 discriminator 1
 625 0082 2E49     		ldr	r1, .L52+4
 626 0084 0025     		movs	r5, #0
 627 0086 495F     		ldrsh	r1, [r1, r5]
 628 0088 8B42     		cmp	r3, r1
 629 008a 53DA     		bge	.L43
 630              		.loc 1 458 0 discriminator 2
 631 008c 02AB     		add	r3, sp, #8
 632              	.LVL64:
 633 008e 0025     		movs	r5, #0
 634 0090 5B5F     		ldrsh	r3, [r3, r5]
 635              	.LVL65:
 636 0092 002B     		cmp	r3, #0
 637 0094 4EDB     		blt	.L43
 638              		.loc 1 458 0 discriminator 3
 639 0096 9942     		cmp	r1, r3
 640 0098 4CDD     		ble	.L43
 459:..\..\Cypress-PSOC-OLED-master\Cypress-PSOC-OLED-master\OLED.cydsn/ssd1306.c ****             return;
 460:..\..\Cypress-PSOC-OLED-master\Cypress-PSOC-OLED-master\OLED.cydsn/ssd1306.c ****         if( x1 < 0 || x1 >= WIDTH || x2 < 0 || x2 >= WIDTH )
 641              		.loc 1 460 0 is_stmt 1
 642 009a 0028     		cmp	r0, #0
 643 009c 4ADB     		blt	.L43
 644              		.loc 1 460 0 is_stmt 0 discriminator 1
 645 009e 284B     		ldr	r3, .L52+8
 646 00a0 0021     		movs	r1, #0
 647 00a2 5B5E     		ldrsh	r3, [r3, r1]
 648 00a4 9842     		cmp	r0, r3
 649 00a6 45DA     		bge	.L43
 650              		.loc 1 460 0 discriminator 2
 651 00a8 002A     		cmp	r2, #0
 652 00aa 43DB     		blt	.L43
 653              		.loc 1 460 0 discriminator 3
 654 00ac 9A42     		cmp	r2, r3
 655 00ae 41DA     		bge	.L43
 656              	.LVL66:
 657              	.L48:
 461:..\..\Cypress-PSOC-OLED-master\Cypress-PSOC-OLED-master\OLED.cydsn/ssd1306.c ****             return;
 462:..\..\Cypress-PSOC-OLED-master\Cypress-PSOC-OLED-master\OLED.cydsn/ssd1306.c ****     }
 463:..\..\Cypress-PSOC-OLED-master\Cypress-PSOC-OLED-master\OLED.cydsn/ssd1306.c ****     
 464:..\..\Cypress-PSOC-OLED-master\Cypress-PSOC-OLED-master\OLED.cydsn/ssd1306.c ****     gfx_rotation_adjust( &x1, &y1 );
 658              		.loc 1 464 0 is_stmt 1
 659 00b0 0E26     		movs	r6, #14
 660 00b2 6E44     		add	r6, r6, sp
 661 00b4 03A9     		add	r1, sp, #12
 662              	.LVL67:
 663 00b6 3000     		movs	r0, r6
 664              	.LVL68:
 665 00b8 FFF7FEFF 		bl	gfx_rotation_adjust
 666              	.LVL69:
 465:..\..\Cypress-PSOC-OLED-master\Cypress-PSOC-OLED-master\OLED.cydsn/ssd1306.c ****     gfx_rotation_adjust( &x2, &y2 );
 667              		.loc 1 465 0
 668 00bc 0A25     		movs	r5, #10
 669              	.LVL70:
 670 00be 6D44     		add	r5, r5, sp
 671              	.LVL71:
 672 00c0 02A9     		add	r1, sp, #8
 673              	.LVL72:
ARM GAS  C:\Users\boise\AppData\Local\Temp\ccDu5XGS.s 			page 21


 674 00c2 2800     		movs	r0, r5
 675 00c4 FFF7FEFF 		bl	gfx_rotation_adjust
 676              	.LVL73:
 466:..\..\Cypress-PSOC-OLED-master\Cypress-PSOC-OLED-master\OLED.cydsn/ssd1306.c ****     
 467:..\..\Cypress-PSOC-OLED-master\Cypress-PSOC-OLED-master\OLED.cydsn/ssd1306.c ****     // ensure coords are from left to right and top to bottom
 468:..\..\Cypress-PSOC-OLED-master\Cypress-PSOC-OLED-master\OLED.cydsn/ssd1306.c ****     if( (x1 == x2 && y2 < y1) || (y1 == y2 && x2 < x1) ){
 677              		.loc 1 468 0
 678 00c8 0022     		movs	r2, #0
 679 00ca B35E     		ldrsh	r3, [r6, r2]
 680 00cc 0021     		movs	r1, #0
 681 00ce 6A5E     		ldrsh	r2, [r5, r1]
 682 00d0 9342     		cmp	r3, r2
 683 00d2 07D1     		bne	.L49
 684              		.loc 1 468 0 is_stmt 0 discriminator 1
 685 00d4 02A9     		add	r1, sp, #8
 686              	.LVL74:
 687 00d6 0020     		movs	r0, #0
 688 00d8 085E     		ldrsh	r0, [r1, r0]
 689              	.LVL75:
 690 00da 03A9     		add	r1, sp, #12
 691              	.LVL76:
 692 00dc 0025     		movs	r5, #0
 693 00de 495F     		ldrsh	r1, [r1, r5]
 694              	.LVL77:
 695 00e0 8842     		cmp	r0, r1
 696 00e2 09DB     		blt	.L50
 697              	.L49:
 698              		.loc 1 468 0 discriminator 3
 699 00e4 03A9     		add	r1, sp, #12
 700              	.LVL78:
 701 00e6 0020     		movs	r0, #0
 702 00e8 085E     		ldrsh	r0, [r1, r0]
 703              	.LVL79:
 704 00ea 02A9     		add	r1, sp, #8
 705              	.LVL80:
 706 00ec 0025     		movs	r5, #0
 707 00ee 495F     		ldrsh	r1, [r1, r5]
 708              	.LVL81:
 709 00f0 8842     		cmp	r0, r1
 710 00f2 0ED1     		bne	.L51
 711              		.loc 1 468 0 discriminator 4
 712 00f4 9342     		cmp	r3, r2
 713 00f6 0CDD     		ble	.L51
 714              	.L50:
 715              	.LVL82:
 716              	.LBB6:
 469:..\..\Cypress-PSOC-OLED-master\Cypress-PSOC-OLED-master\OLED.cydsn/ssd1306.c ****         // swap as needed
 470:..\..\Cypress-PSOC-OLED-master\Cypress-PSOC-OLED-master\OLED.cydsn/ssd1306.c ****         int16_t t = x1; x1 = x2; x2 = t;
 717              		.loc 1 470 0 is_stmt 1
 718 00f8 0E21     		movs	r1, #14
 719              	.LVL83:
 720 00fa 6944     		add	r1, r1, sp
 721              	.LVL84:
 722 00fc 0A80     		strh	r2, [r1]
 723 00fe 0A22     		movs	r2, #10
 724              	.LVL85:
 725 0100 6A44     		add	r2, r2, sp
ARM GAS  C:\Users\boise\AppData\Local\Temp\ccDu5XGS.s 			page 22


 726              	.LVL86:
 727 0102 1380     		strh	r3, [r2]
 471:..\..\Cypress-PSOC-OLED-master\Cypress-PSOC-OLED-master\OLED.cydsn/ssd1306.c ****         t = y1; y1 = y2; y2 = t;
 728              		.loc 1 471 0
 729 0104 03AA     		add	r2, sp, #12
 730              	.LVL87:
 731 0106 0023     		movs	r3, #0
 732 0108 D15E     		ldrsh	r1, [r2, r3]
 733              	.LVL88:
 734 010a 02AB     		add	r3, sp, #8
 735              	.LVL89:
 736 010c 1888     		ldrh	r0, [r3]
 737 010e 1080     		strh	r0, [r2]
 738 0110 1980     		strh	r1, [r3]
 739              	.LVL90:
 740              	.L51:
 741              	.LBE6:
 472:..\..\Cypress-PSOC-OLED-master\Cypress-PSOC-OLED-master\OLED.cydsn/ssd1306.c ****     }
 473:..\..\Cypress-PSOC-OLED-master\Cypress-PSOC-OLED-master\OLED.cydsn/ssd1306.c ****     
 474:..\..\Cypress-PSOC-OLED-master\Cypress-PSOC-OLED-master\OLED.cydsn/ssd1306.c ****     display_line( x1, y1, x2, y2, color );
 742              		.loc 1 474 0
 743 0112 02AB     		add	r3, sp, #8
 744              	.LVL91:
 745 0114 0022     		movs	r2, #0
 746 0116 9B5E     		ldrsh	r3, [r3, r2]
 747              	.LVL92:
 748 0118 0A22     		movs	r2, #10
 749              	.LVL93:
 750 011a 6A44     		add	r2, r2, sp
 751              	.LVL94:
 752 011c 0021     		movs	r1, #0
 753 011e 525E     		ldrsh	r2, [r2, r1]
 754 0120 03A9     		add	r1, sp, #12
 755              	.LVL95:
 756 0122 0020     		movs	r0, #0
 757 0124 095E     		ldrsh	r1, [r1, r0]
 758              	.LVL96:
 759 0126 0E20     		movs	r0, #14
 760              	.LVL97:
 761 0128 6844     		add	r0, r0, sp
 762              	.LVL98:
 763 012a 0025     		movs	r5, #0
 764 012c 405F     		ldrsh	r0, [r0, r5]
 765 012e 0094     		str	r4, [sp]
 766 0130 FFF7FEFF 		bl	display_line
 767              	.LVL99:
 768              	.L43:
 475:..\..\Cypress-PSOC-OLED-master\Cypress-PSOC-OLED-master\OLED.cydsn/ssd1306.c **** }
 769              		.loc 1 475 0
 770 0134 04B0     		add	sp, sp, #16
 771              		@ sp needed
 772 0136 70BD     		pop	{r4, r5, r6, pc}
 773              	.L53:
 774              		.align	2
 775              	.L52:
 776 0138 00000000 		.word	rotation
 777 013c 00000000 		.word	HEIGHT
ARM GAS  C:\Users\boise\AppData\Local\Temp\ccDu5XGS.s 			page 23


 778 0140 00000000 		.word	WIDTH
 779              		.cfi_endproc
 780              	.LFE54:
 781              		.size	gfx_hvLine, .-gfx_hvLine
 782              		.section	.text.display_write_buf,"ax",%progbits
 783              		.align	2
 784              		.code	16
 785              		.thumb_func
 786              		.type	display_write_buf, %function
 787              	display_write_buf:
 788              	.LFB33:
 158:..\..\Cypress-PSOC-OLED-master\Cypress-PSOC-OLED-master\OLED.cydsn/ssd1306.c **** 
 789              		.loc 1 158 0
 790              		.cfi_startproc
 791              		@ args = 0, pretend = 0, frame = 0
 792              		@ frame_needed = 0, uses_anonymous_args = 0
 793              	.LVL100:
 794 0000 70B5     		push	{r4, r5, r6, lr}
 795              		.cfi_def_cfa_offset 16
 796              		.cfi_offset 4, -16
 797              		.cfi_offset 5, -12
 798              		.cfi_offset 6, -8
 799              		.cfi_offset 14, -4
 800 0002 0500     		movs	r5, r0
 801 0004 0C00     		movs	r4, r1
 802              	.LVL101:
 162:..\..\Cypress-PSOC-OLED-master\Cypress-PSOC-OLED-master\OLED.cydsn/ssd1306.c ****     while( 0u == (I2C_I2CMasterStatus() & I2C_I2C_MSTAT_WR_CMPLT) );
 803              		.loc 1 162 0
 804 0006 0E4B     		ldr	r3, .L59
 805 0008 1878     		ldrb	r0, [r3]
 806              	.LVL102:
 807 000a 0023     		movs	r3, #0
 808 000c 0A00     		movs	r2, r1
 809 000e 2900     		movs	r1, r5
 810              	.LVL103:
 811 0010 FFF7FEFF 		bl	I2C_I2CMasterWriteBuf
 812              	.LVL104:
 813              	.L55:
 163:..\..\Cypress-PSOC-OLED-master\Cypress-PSOC-OLED-master\OLED.cydsn/ssd1306.c **** 
 814              		.loc 1 163 0 discriminator 1
 815 0014 FFF7FEFF 		bl	I2C_I2CMasterStatus
 816              	.LVL105:
 817 0018 8307     		lsls	r3, r0, #30
 818 001a FBD5     		bpl	.L55
 165:..\..\Cypress-PSOC-OLED-master\Cypress-PSOC-OLED-master\OLED.cydsn/ssd1306.c ****         // Check if all bytes was written 
 819              		.loc 1 165 0
 820 001c FFF7FEFF 		bl	I2C_I2CMasterStatus
 821              	.LVL106:
 822 0020 8305     		lsls	r3, r0, #22
 823 0022 05D4     		bmi	.L57
 167:..\..\Cypress-PSOC-OLED-master\Cypress-PSOC-OLED-master\OLED.cydsn/ssd1306.c ****             status = TRANSFER_CMPLT;
 824              		.loc 1 167 0
 825 0024 FFF7FEFF 		bl	I2C_I2CMasterGetWriteBufSize
 826              	.LVL107:
 827 0028 8442     		cmp	r4, r0
 828 002a 03D0     		beq	.L58
 160:..\..\Cypress-PSOC-OLED-master\Cypress-PSOC-OLED-master\OLED.cydsn/ssd1306.c **** 
ARM GAS  C:\Users\boise\AppData\Local\Temp\ccDu5XGS.s 			page 24


 829              		.loc 1 160 0
 830 002c FF24     		movs	r4, #255
 831 002e 02E0     		b	.L56
 832              	.L57:
 833 0030 FF24     		movs	r4, #255
 834 0032 00E0     		b	.L56
 835              	.L58:
 168:..\..\Cypress-PSOC-OLED-master\Cypress-PSOC-OLED-master\OLED.cydsn/ssd1306.c ****         }
 836              		.loc 1 168 0
 837 0034 0024     		movs	r4, #0
 838              	.L56:
 839              	.LVL108:
 171:..\..\Cypress-PSOC-OLED-master\Cypress-PSOC-OLED-master\OLED.cydsn/ssd1306.c **** 
 840              		.loc 1 171 0
 841 0036 FFF7FEFF 		bl	I2C_I2CMasterClearStatus
 842              	.LVL109:
 174:..\..\Cypress-PSOC-OLED-master\Cypress-PSOC-OLED-master\OLED.cydsn/ssd1306.c **** 
 843              		.loc 1 174 0
 844 003a 2000     		movs	r0, r4
 845              		@ sp needed
 846              	.LVL110:
 847              	.LVL111:
 848 003c 70BD     		pop	{r4, r5, r6, pc}
 849              	.L60:
 850 003e C046     		.align	2
 851              	.L59:
 852 0040 00000000 		.word	.LANCHOR1
 853              		.cfi_endproc
 854              	.LFE33:
 855              		.size	display_write_buf, .-display_write_buf
 856              		.section	.text.display_clear,"ax",%progbits
 857              		.align	2
 858              		.global	display_clear
 859              		.code	16
 860              		.thumb_func
 861              		.type	display_clear, %function
 862              	display_clear:
 863              	.LFB35:
 197:..\..\Cypress-PSOC-OLED-master\Cypress-PSOC-OLED-master\OLED.cydsn/ssd1306.c ****     memset( _displaybuf, 0, _displaybuf_size );
 864              		.loc 1 197 0
 865              		.cfi_startproc
 866              		@ args = 0, pretend = 0, frame = 0
 867              		@ frame_needed = 0, uses_anonymous_args = 0
 868 0000 10B5     		push	{r4, lr}
 869              		.cfi_def_cfa_offset 8
 870              		.cfi_offset 4, -8
 871              		.cfi_offset 14, -4
 198:..\..\Cypress-PSOC-OLED-master\Cypress-PSOC-OLED-master\OLED.cydsn/ssd1306.c ****     SSD1306_buffer[0] = 0x40; // to be sure its there
 872              		.loc 1 198 0
 873 0002 054C     		ldr	r4, .L62
 874 0004 601C     		adds	r0, r4, #1
 875 0006 8022     		movs	r2, #128
 876 0008 D200     		lsls	r2, r2, #3
 877 000a 0021     		movs	r1, #0
 878 000c FFF7FEFF 		bl	memset
 879              	.LVL112:
 199:..\..\Cypress-PSOC-OLED-master\Cypress-PSOC-OLED-master\OLED.cydsn/ssd1306.c **** }
ARM GAS  C:\Users\boise\AppData\Local\Temp\ccDu5XGS.s 			page 25


 880              		.loc 1 199 0
 881 0010 4023     		movs	r3, #64
 882 0012 2370     		strb	r3, [r4]
 200:..\..\Cypress-PSOC-OLED-master\Cypress-PSOC-OLED-master\OLED.cydsn/ssd1306.c **** 
 883              		.loc 1 200 0
 884              		@ sp needed
 885 0014 10BD     		pop	{r4, pc}
 886              	.L63:
 887 0016 C046     		.align	2
 888              	.L62:
 889 0018 00000000 		.word	.LANCHOR0
 890              		.cfi_endproc
 891              	.LFE35:
 892              		.size	display_clear, .-display_clear
 893              		.section	.text.display_contrast,"ax",%progbits
 894              		.align	2
 895              		.global	display_contrast
 896              		.code	16
 897              		.thumb_func
 898              		.type	display_contrast, %function
 899              	display_contrast:
 900              	.LFB36:
 204:..\..\Cypress-PSOC-OLED-master\Cypress-PSOC-OLED-master\OLED.cydsn/ssd1306.c ****         
 901              		.loc 1 204 0
 902              		.cfi_startproc
 903              		@ args = 0, pretend = 0, frame = 8
 904              		@ frame_needed = 0, uses_anonymous_args = 0
 905              	.LVL113:
 906 0000 00B5     		push	{lr}
 907              		.cfi_def_cfa_offset 4
 908              		.cfi_offset 14, -4
 909 0002 83B0     		sub	sp, sp, #12
 910              		.cfi_def_cfa_offset 16
 206:..\..\Cypress-PSOC-OLED-master\Cypress-PSOC-OLED-master\OLED.cydsn/ssd1306.c ****         0x00,  
 911              		.loc 1 206 0
 912 0004 01AB     		add	r3, sp, #4
 913 0006 0022     		movs	r2, #0
 914 0008 1A70     		strb	r2, [r3]
 915 000a 8132     		adds	r2, r2, #129
 916 000c 5A70     		strb	r2, [r3, #1]
 917 000e 9870     		strb	r0, [r3, #2]
 211:..\..\Cypress-PSOC-OLED-master\Cypress-PSOC-OLED-master\OLED.cydsn/ssd1306.c **** }
 918              		.loc 1 211 0
 919 0010 0321     		movs	r1, #3
 920 0012 1800     		movs	r0, r3
 921              	.LVL114:
 922 0014 FFF7FEFF 		bl	display_write_buf
 923              	.LVL115:
 212:..\..\Cypress-PSOC-OLED-master\Cypress-PSOC-OLED-master\OLED.cydsn/ssd1306.c **** 
 924              		.loc 1 212 0
 925 0018 03B0     		add	sp, sp, #12
 926              		@ sp needed
 927 001a 00BD     		pop	{pc}
 928              		.cfi_endproc
 929              	.LFE36:
 930              		.size	display_contrast, .-display_contrast
 931              		.section	.text.display_invert,"ax",%progbits
ARM GAS  C:\Users\boise\AppData\Local\Temp\ccDu5XGS.s 			page 26


 932              		.align	2
 933              		.global	display_invert
 934              		.code	16
 935              		.thumb_func
 936              		.type	display_invert, %function
 937              	display_invert:
 938              	.LFB37:
 216:..\..\Cypress-PSOC-OLED-master\Cypress-PSOC-OLED-master\OLED.cydsn/ssd1306.c **** 
 939              		.loc 1 216 0
 940              		.cfi_startproc
 941              		@ args = 0, pretend = 0, frame = 8
 942              		@ frame_needed = 0, uses_anonymous_args = 0
 943              	.LVL116:
 944 0000 00B5     		push	{lr}
 945              		.cfi_def_cfa_offset 4
 946              		.cfi_offset 14, -4
 947 0002 83B0     		sub	sp, sp, #12
 948              		.cfi_def_cfa_offset 16
 218:..\..\Cypress-PSOC-OLED-master\Cypress-PSOC-OLED-master\OLED.cydsn/ssd1306.c ****         0x00,  
 949              		.loc 1 218 0
 950 0004 0022     		movs	r2, #0
 951 0006 01AB     		add	r3, sp, #4
 952 0008 1A70     		strb	r2, [r3]
 222:..\..\Cypress-PSOC-OLED-master\Cypress-PSOC-OLED-master\OLED.cydsn/ssd1306.c ****     display_write_buf( cmdbuf, sizeof(cmdbuf) ); 
 953              		.loc 1 222 0
 954 000a 0028     		cmp	r0, #0
 955 000c 01D0     		beq	.L67
 956 000e A723     		movs	r3, #167
 957 0010 00E0     		b	.L66
 958              	.L67:
 959 0012 A623     		movs	r3, #166
 960              	.L66:
 222:..\..\Cypress-PSOC-OLED-master\Cypress-PSOC-OLED-master\OLED.cydsn/ssd1306.c ****     display_write_buf( cmdbuf, sizeof(cmdbuf) ); 
 961              		.loc 1 222 0 is_stmt 0 discriminator 4
 962 0014 01A8     		add	r0, sp, #4
 963              	.LVL117:
 964 0016 4370     		strb	r3, [r0, #1]
 223:..\..\Cypress-PSOC-OLED-master\Cypress-PSOC-OLED-master\OLED.cydsn/ssd1306.c **** }
 965              		.loc 1 223 0 is_stmt 1 discriminator 4
 966 0018 0221     		movs	r1, #2
 967 001a FFF7FEFF 		bl	display_write_buf
 968              	.LVL118:
 224:..\..\Cypress-PSOC-OLED-master\Cypress-PSOC-OLED-master\OLED.cydsn/ssd1306.c **** 
 969              		.loc 1 224 0 discriminator 4
 970 001e 03B0     		add	sp, sp, #12
 971              		@ sp needed
 972 0020 00BD     		pop	{pc}
 973              		.cfi_endproc
 974              	.LFE37:
 975              		.size	display_invert, .-display_invert
 976 0022 C046     		.section	.text.display_update,"ax",%progbits
 977              		.align	2
 978              		.global	display_update
 979              		.code	16
 980              		.thumb_func
 981              		.type	display_update, %function
 982              	display_update:
ARM GAS  C:\Users\boise\AppData\Local\Temp\ccDu5XGS.s 			page 27


 983              	.LFB38:
 227:..\..\Cypress-PSOC-OLED-master\Cypress-PSOC-OLED-master\OLED.cydsn/ssd1306.c ****       
 984              		.loc 1 227 0
 985              		.cfi_startproc
 986              		@ args = 0, pretend = 0, frame = 8
 987              		@ frame_needed = 0, uses_anonymous_args = 0
 988 0000 00B5     		push	{lr}
 989              		.cfi_def_cfa_offset 4
 990              		.cfi_offset 14, -4
 991 0002 83B0     		sub	sp, sp, #12
 992              		.cfi_def_cfa_offset 16
 229:..\..\Cypress-PSOC-OLED-master\Cypress-PSOC-OLED-master\OLED.cydsn/ssd1306.c ****         0x00,
 993              		.loc 1 229 0
 994 0004 0722     		movs	r2, #7
 995 0006 0749     		ldr	r1, .L69
 996 0008 6846     		mov	r0, sp
 997 000a FFF7FEFF 		bl	memcpy
 998              	.LVL119:
 238:..\..\Cypress-PSOC-OLED-master\Cypress-PSOC-OLED-master\OLED.cydsn/ssd1306.c ****     display_write_buf( SSD1306_buffer, sizeof(SSD1306_buffer) );
 999              		.loc 1 238 0
 1000 000e 0721     		movs	r1, #7
 1001 0010 6846     		mov	r0, sp
 1002 0012 FFF7FEFF 		bl	display_write_buf
 1003              	.LVL120:
 239:..\..\Cypress-PSOC-OLED-master\Cypress-PSOC-OLED-master\OLED.cydsn/ssd1306.c **** }
 1004              		.loc 1 239 0
 1005 0016 0449     		ldr	r1, .L69+4
 1006 0018 0448     		ldr	r0, .L69+8
 1007 001a FFF7FEFF 		bl	display_write_buf
 1008              	.LVL121:
 240:..\..\Cypress-PSOC-OLED-master\Cypress-PSOC-OLED-master\OLED.cydsn/ssd1306.c **** 
 1009              		.loc 1 240 0
 1010 001e 03B0     		add	sp, sp, #12
 1011              		@ sp needed
 1012 0020 00BD     		pop	{pc}
 1013              	.L70:
 1014 0022 C046     		.align	2
 1015              	.L69:
 1016 0024 00000000 		.word	.LANCHOR2
 1017 0028 01040000 		.word	1025
 1018 002c 00000000 		.word	.LANCHOR0
 1019              		.cfi_endproc
 1020              	.LFE38:
 1021              		.size	display_update, .-display_update
 1022              		.section	.text.display_stopscroll,"ax",%progbits
 1023              		.align	2
 1024              		.global	display_stopscroll
 1025              		.code	16
 1026              		.thumb_func
 1027              		.type	display_stopscroll, %function
 1028              	display_stopscroll:
 1029              	.LFB40:
 307:..\..\Cypress-PSOC-OLED-master\Cypress-PSOC-OLED-master\OLED.cydsn/ssd1306.c **** 
 1030              		.loc 1 307 0
 1031              		.cfi_startproc
 1032              		@ args = 0, pretend = 0, frame = 8
 1033              		@ frame_needed = 0, uses_anonymous_args = 0
ARM GAS  C:\Users\boise\AppData\Local\Temp\ccDu5XGS.s 			page 28


 1034 0000 00B5     		push	{lr}
 1035              		.cfi_def_cfa_offset 4
 1036              		.cfi_offset 14, -4
 1037 0002 83B0     		sub	sp, sp, #12
 1038              		.cfi_def_cfa_offset 16
 309:..\..\Cypress-PSOC-OLED-master\Cypress-PSOC-OLED-master\OLED.cydsn/ssd1306.c ****         0x00,
 1039              		.loc 1 309 0
 1040 0004 01A8     		add	r0, sp, #4
 1041 0006 0023     		movs	r3, #0
 1042 0008 0370     		strb	r3, [r0]
 1043 000a 2E33     		adds	r3, r3, #46
 1044 000c 4370     		strb	r3, [r0, #1]
 313:..\..\Cypress-PSOC-OLED-master\Cypress-PSOC-OLED-master\OLED.cydsn/ssd1306.c **** }
 1045              		.loc 1 313 0
 1046 000e 0221     		movs	r1, #2
 1047 0010 FFF7FEFF 		bl	display_write_buf
 1048              	.LVL122:
 314:..\..\Cypress-PSOC-OLED-master\Cypress-PSOC-OLED-master\OLED.cydsn/ssd1306.c **** 
 1049              		.loc 1 314 0
 1050 0014 03B0     		add	sp, sp, #12
 1051              		@ sp needed
 1052 0016 00BD     		pop	{pc}
 1053              		.cfi_endproc
 1054              	.LFE40:
 1055              		.size	display_stopscroll, .-display_stopscroll
 1056              		.section	.text.display_scroll,"ax",%progbits
 1057              		.align	2
 1058              		.global	display_scroll
 1059              		.code	16
 1060              		.thumb_func
 1061              		.type	display_scroll, %function
 1062              	display_scroll:
 1063              	.LFB41:
 316:..\..\Cypress-PSOC-OLED-master\Cypress-PSOC-OLED-master\OLED.cydsn/ssd1306.c ****    
 1064              		.loc 1 316 0
 1065              		.cfi_startproc
 1066              		@ args = 0, pretend = 0, frame = 16
 1067              		@ frame_needed = 0, uses_anonymous_args = 0
 1068              	.LVL123:
 1069 0000 30B5     		push	{r4, r5, lr}
 1070              		.cfi_def_cfa_offset 12
 1071              		.cfi_offset 4, -12
 1072              		.cfi_offset 5, -8
 1073              		.cfi_offset 14, -4
 1074 0002 85B0     		sub	sp, sp, #20
 1075              		.cfi_def_cfa_offset 32
 318:..\..\Cypress-PSOC-OLED-master\Cypress-PSOC-OLED-master\OLED.cydsn/ssd1306.c ****         0x00,
 1076              		.loc 1 318 0
 1077 0004 01AC     		add	r4, sp, #4
 1078 0006 0025     		movs	r5, #0
 1079 0008 2570     		strb	r5, [r4]
 1080 000a 6270     		strb	r2, [r4, #1]
 1081 000c A570     		strb	r5, [r4, #2]
 1082 000e E070     		strb	r0, [r4, #3]
 1083 0010 2371     		strb	r3, [r4, #4]
 1084 0012 6171     		strb	r1, [r4, #5]
 1085 0014 A571     		strb	r5, [r4, #6]
ARM GAS  C:\Users\boise\AppData\Local\Temp\ccDu5XGS.s 			page 29


 1086 0016 FF23     		movs	r3, #255
 1087              	.LVL124:
 1088 0018 E371     		strb	r3, [r4, #7]
 1089 001a D03B     		subs	r3, r3, #208
 1090 001c 2372     		strb	r3, [r4, #8]
 329:..\..\Cypress-PSOC-OLED-master\Cypress-PSOC-OLED-master\OLED.cydsn/ssd1306.c **** }
 1091              		.loc 1 329 0
 1092 001e 0921     		movs	r1, #9
 1093              	.LVL125:
 1094 0020 2000     		movs	r0, r4
 1095              	.LVL126:
 1096 0022 FFF7FEFF 		bl	display_write_buf
 1097              	.LVL127:
 330:..\..\Cypress-PSOC-OLED-master\Cypress-PSOC-OLED-master\OLED.cydsn/ssd1306.c **** 
 1098              		.loc 1 330 0
 1099 0026 05B0     		add	sp, sp, #20
 1100              		@ sp needed
 1101 0028 30BD     		pop	{r4, r5, pc}
 1102              		.cfi_endproc
 1103              	.LFE41:
 1104              		.size	display_scroll, .-display_scroll
 1105 002a C046     		.section	.text.gfx_init,"ax",%progbits
 1106              		.align	2
 1107              		.global	gfx_init
 1108              		.code	16
 1109              		.thumb_func
 1110              		.type	gfx_init, %function
 1111              	gfx_init:
 1112              	.LFB42:
 347:..\..\Cypress-PSOC-OLED-master\Cypress-PSOC-OLED-master\OLED.cydsn/ssd1306.c ****     WIDTH = width;
 1113              		.loc 1 347 0
 1114              		.cfi_startproc
 1115              		@ args = 0, pretend = 0, frame = 0
 1116              		@ frame_needed = 0, uses_anonymous_args = 0
 1117              		@ link register save eliminated.
 1118              	.LVL128:
 348:..\..\Cypress-PSOC-OLED-master\Cypress-PSOC-OLED-master\OLED.cydsn/ssd1306.c ****     HEIGHT = height;
 1119              		.loc 1 348 0
 1120 0000 0A4B     		ldr	r3, .L74
 1121 0002 1880     		strh	r0, [r3]
 349:..\..\Cypress-PSOC-OLED-master\Cypress-PSOC-OLED-master\OLED.cydsn/ssd1306.c ****     _width = WIDTH;
 1122              		.loc 1 349 0
 1123 0004 0A4B     		ldr	r3, .L74+4
 1124 0006 1980     		strh	r1, [r3]
 350:..\..\Cypress-PSOC-OLED-master\Cypress-PSOC-OLED-master\OLED.cydsn/ssd1306.c ****     _height = HEIGHT;
 1125              		.loc 1 350 0
 1126 0008 0A4B     		ldr	r3, .L74+8
 1127 000a 5880     		strh	r0, [r3, #2]
 351:..\..\Cypress-PSOC-OLED-master\Cypress-PSOC-OLED-master\OLED.cydsn/ssd1306.c ****     
 1128              		.loc 1 351 0
 1129 000c 9980     		strh	r1, [r3, #4]
 353:..\..\Cypress-PSOC-OLED-master\Cypress-PSOC-OLED-master\OLED.cydsn/ssd1306.c ****     cursor_y = cursor_x = 0;
 1130              		.loc 1 353 0
 1131 000e 0022     		movs	r2, #0
 1132 0010 0949     		ldr	r1, .L74+12
 1133              	.LVL129:
 1134 0012 0A70     		strb	r2, [r1]
ARM GAS  C:\Users\boise\AppData\Local\Temp\ccDu5XGS.s 			page 30


 354:..\..\Cypress-PSOC-OLED-master\Cypress-PSOC-OLED-master\OLED.cydsn/ssd1306.c ****     textsize = 1;
 1135              		.loc 1 354 0
 1136 0014 DA80     		strh	r2, [r3, #6]
 1137 0016 1A81     		strh	r2, [r3, #8]
 355:..\..\Cypress-PSOC-OLED-master\Cypress-PSOC-OLED-master\OLED.cydsn/ssd1306.c ****     textcolor = textbgcolor = 0xFFFF;
 1138              		.loc 1 355 0
 1139 0018 0132     		adds	r2, r2, #1
 1140 001a 9A72     		strb	r2, [r3, #10]
 356:..\..\Cypress-PSOC-OLED-master\Cypress-PSOC-OLED-master\OLED.cydsn/ssd1306.c ****     wrap = 1;
 1141              		.loc 1 356 0
 1142 001c 0121     		movs	r1, #1
 1143 001e 4942     		rsbs	r1, r1, #0
 1144 0020 9981     		strh	r1, [r3, #12]
 1145 0022 D981     		strh	r1, [r3, #14]
 357:..\..\Cypress-PSOC-OLED-master\Cypress-PSOC-OLED-master\OLED.cydsn/ssd1306.c **** }
 1146              		.loc 1 357 0
 1147 0024 054B     		ldr	r3, .L74+16
 1148 0026 1A70     		strb	r2, [r3]
 358:..\..\Cypress-PSOC-OLED-master\Cypress-PSOC-OLED-master\OLED.cydsn/ssd1306.c **** 
 1149              		.loc 1 358 0
 1150              		@ sp needed
 1151 0028 7047     		bx	lr
 1152              	.L75:
 1153 002a C046     		.align	2
 1154              	.L74:
 1155 002c 00000000 		.word	WIDTH
 1156 0030 00000000 		.word	HEIGHT
 1157 0034 00000000 		.word	.LANCHOR1
 1158 0038 00000000 		.word	rotation
 1159 003c 00000000 		.word	wrap
 1160              		.cfi_endproc
 1161              	.LFE42:
 1162              		.size	gfx_init, .-gfx_init
 1163              		.section	.text.display_init,"ax",%progbits
 1164              		.align	2
 1165              		.global	display_init
 1166              		.code	16
 1167              		.thumb_func
 1168              		.type	display_init, %function
 1169              	display_init:
 1170              	.LFB32:
 116:..\..\Cypress-PSOC-OLED-master\Cypress-PSOC-OLED-master\OLED.cydsn/ssd1306.c ****     
 1171              		.loc 1 116 0
 1172              		.cfi_startproc
 1173              		@ args = 0, pretend = 0, frame = 32
 1174              		@ frame_needed = 0, uses_anonymous_args = 0
 1175              	.LVL130:
 1176 0000 00B5     		push	{lr}
 1177              		.cfi_def_cfa_offset 4
 1178              		.cfi_offset 14, -4
 1179 0002 89B0     		sub	sp, sp, #36
 1180              		.cfi_def_cfa_offset 40
 118:..\..\Cypress-PSOC-OLED-master\Cypress-PSOC-OLED-master\OLED.cydsn/ssd1306.c ****     gfx_init( DISPLAYWIDTH, DISPLAYHEIGHT );
 1181              		.loc 1 118 0
 1182 0004 084B     		ldr	r3, .L77
 1183 0006 1870     		strb	r0, [r3]
 119:..\..\Cypress-PSOC-OLED-master\Cypress-PSOC-OLED-master\OLED.cydsn/ssd1306.c ****     
ARM GAS  C:\Users\boise\AppData\Local\Temp\ccDu5XGS.s 			page 31


 1184              		.loc 1 119 0
 1185 0008 4021     		movs	r1, #64
 1186 000a 8020     		movs	r0, #128
 1187              	.LVL131:
 1188 000c FFF7FEFF 		bl	gfx_init
 1189              	.LVL132:
 121:..\..\Cypress-PSOC-OLED-master\Cypress-PSOC-OLED-master\OLED.cydsn/ssd1306.c ****         0x00,
 1190              		.loc 1 121 0
 1191 0010 1A22     		movs	r2, #26
 1192 0012 0649     		ldr	r1, .L77+4
 1193 0014 0831     		adds	r1, r1, #8
 1194 0016 01A8     		add	r0, sp, #4
 1195 0018 FFF7FEFF 		bl	memcpy
 1196              	.LVL133:
 150:..\..\Cypress-PSOC-OLED-master\Cypress-PSOC-OLED-master\OLED.cydsn/ssd1306.c **** }
 1197              		.loc 1 150 0
 1198 001c 1A21     		movs	r1, #26
 1199 001e 01A8     		add	r0, sp, #4
 1200 0020 FFF7FEFF 		bl	display_write_buf
 1201              	.LVL134:
 151:..\..\Cypress-PSOC-OLED-master\Cypress-PSOC-OLED-master\OLED.cydsn/ssd1306.c **** 
 1202              		.loc 1 151 0
 1203 0024 09B0     		add	sp, sp, #36
 1204              		@ sp needed
 1205 0026 00BD     		pop	{pc}
 1206              	.L78:
 1207              		.align	2
 1208              	.L77:
 1209 0028 00000000 		.word	.LANCHOR1
 1210 002c 00000000 		.word	.LANCHOR2
 1211              		.cfi_endproc
 1212              	.LFE32:
 1213              		.size	display_init, .-display_init
 1214              		.section	.text.gfx_width,"ax",%progbits
 1215              		.align	2
 1216              		.global	gfx_width
 1217              		.code	16
 1218              		.thumb_func
 1219              		.type	gfx_width, %function
 1220              	gfx_width:
 1221              	.LFB43:
 361:..\..\Cypress-PSOC-OLED-master\Cypress-PSOC-OLED-master\OLED.cydsn/ssd1306.c ****     return _width;
 1222              		.loc 1 361 0
 1223              		.cfi_startproc
 1224              		@ args = 0, pretend = 0, frame = 0
 1225              		@ frame_needed = 0, uses_anonymous_args = 0
 1226              		@ link register save eliminated.
 362:..\..\Cypress-PSOC-OLED-master\Cypress-PSOC-OLED-master\OLED.cydsn/ssd1306.c **** }
 1227              		.loc 1 362 0
 1228 0000 014B     		ldr	r3, .L80
 1229 0002 0220     		movs	r0, #2
 1230 0004 185E     		ldrsh	r0, [r3, r0]
 363:..\..\Cypress-PSOC-OLED-master\Cypress-PSOC-OLED-master\OLED.cydsn/ssd1306.c **** 
 1231              		.loc 1 363 0
 1232              		@ sp needed
 1233 0006 7047     		bx	lr
 1234              	.L81:
ARM GAS  C:\Users\boise\AppData\Local\Temp\ccDu5XGS.s 			page 32


 1235              		.align	2
 1236              	.L80:
 1237 0008 00000000 		.word	.LANCHOR1
 1238              		.cfi_endproc
 1239              	.LFE43:
 1240              		.size	gfx_width, .-gfx_width
 1241              		.section	.text.gfx_height,"ax",%progbits
 1242              		.align	2
 1243              		.global	gfx_height
 1244              		.code	16
 1245              		.thumb_func
 1246              		.type	gfx_height, %function
 1247              	gfx_height:
 1248              	.LFB44:
 365:..\..\Cypress-PSOC-OLED-master\Cypress-PSOC-OLED-master\OLED.cydsn/ssd1306.c ****     return _height;
 1249              		.loc 1 365 0
 1250              		.cfi_startproc
 1251              		@ args = 0, pretend = 0, frame = 0
 1252              		@ frame_needed = 0, uses_anonymous_args = 0
 1253              		@ link register save eliminated.
 366:..\..\Cypress-PSOC-OLED-master\Cypress-PSOC-OLED-master\OLED.cydsn/ssd1306.c **** }
 1254              		.loc 1 366 0
 1255 0000 014B     		ldr	r3, .L83
 1256 0002 0420     		movs	r0, #4
 1257 0004 185E     		ldrsh	r0, [r3, r0]
 367:..\..\Cypress-PSOC-OLED-master\Cypress-PSOC-OLED-master\OLED.cydsn/ssd1306.c **** 
 1258              		.loc 1 367 0
 1259              		@ sp needed
 1260 0006 7047     		bx	lr
 1261              	.L84:
 1262              		.align	2
 1263              	.L83:
 1264 0008 00000000 		.word	.LANCHOR1
 1265              		.cfi_endproc
 1266              	.LFE44:
 1267              		.size	gfx_height, .-gfx_height
 1268              		.section	.text.gfx_rotation,"ax",%progbits
 1269              		.align	2
 1270              		.global	gfx_rotation
 1271              		.code	16
 1272              		.thumb_func
 1273              		.type	gfx_rotation, %function
 1274              	gfx_rotation:
 1275              	.LFB45:
 369:..\..\Cypress-PSOC-OLED-master\Cypress-PSOC-OLED-master\OLED.cydsn/ssd1306.c ****     return rotation;
 1276              		.loc 1 369 0
 1277              		.cfi_startproc
 1278              		@ args = 0, pretend = 0, frame = 0
 1279              		@ frame_needed = 0, uses_anonymous_args = 0
 1280              		@ link register save eliminated.
 370:..\..\Cypress-PSOC-OLED-master\Cypress-PSOC-OLED-master\OLED.cydsn/ssd1306.c **** }
 1281              		.loc 1 370 0
 1282 0000 014B     		ldr	r3, .L86
 1283 0002 1878     		ldrb	r0, [r3]
 371:..\..\Cypress-PSOC-OLED-master\Cypress-PSOC-OLED-master\OLED.cydsn/ssd1306.c **** 
 1284              		.loc 1 371 0
 1285              		@ sp needed
ARM GAS  C:\Users\boise\AppData\Local\Temp\ccDu5XGS.s 			page 33


 1286 0004 7047     		bx	lr
 1287              	.L87:
 1288 0006 C046     		.align	2
 1289              	.L86:
 1290 0008 00000000 		.word	rotation
 1291              		.cfi_endproc
 1292              	.LFE45:
 1293              		.size	gfx_rotation, .-gfx_rotation
 1294              		.section	.text.gfx_setCursor,"ax",%progbits
 1295              		.align	2
 1296              		.global	gfx_setCursor
 1297              		.code	16
 1298              		.thumb_func
 1299              		.type	gfx_setCursor, %function
 1300              	gfx_setCursor:
 1301              	.LFB46:
 373:..\..\Cypress-PSOC-OLED-master\Cypress-PSOC-OLED-master\OLED.cydsn/ssd1306.c ****     cursor_x = x;
 1302              		.loc 1 373 0
 1303              		.cfi_startproc
 1304              		@ args = 0, pretend = 0, frame = 0
 1305              		@ frame_needed = 0, uses_anonymous_args = 0
 1306              		@ link register save eliminated.
 1307              	.LVL135:
 374:..\..\Cypress-PSOC-OLED-master\Cypress-PSOC-OLED-master\OLED.cydsn/ssd1306.c ****     cursor_y = y;
 1308              		.loc 1 374 0
 1309 0000 014B     		ldr	r3, .L89
 1310 0002 D880     		strh	r0, [r3, #6]
 375:..\..\Cypress-PSOC-OLED-master\Cypress-PSOC-OLED-master\OLED.cydsn/ssd1306.c **** }
 1311              		.loc 1 375 0
 1312 0004 1981     		strh	r1, [r3, #8]
 376:..\..\Cypress-PSOC-OLED-master\Cypress-PSOC-OLED-master\OLED.cydsn/ssd1306.c **** 
 1313              		.loc 1 376 0
 1314              		@ sp needed
 1315 0006 7047     		bx	lr
 1316              	.L90:
 1317              		.align	2
 1318              	.L89:
 1319 0008 00000000 		.word	.LANCHOR1
 1320              		.cfi_endproc
 1321              	.LFE46:
 1322              		.size	gfx_setCursor, .-gfx_setCursor
 1323              		.section	.text.gfx_setTextSize,"ax",%progbits
 1324              		.align	2
 1325              		.global	gfx_setTextSize
 1326              		.code	16
 1327              		.thumb_func
 1328              		.type	gfx_setTextSize, %function
 1329              	gfx_setTextSize:
 1330              	.LFB47:
 378:..\..\Cypress-PSOC-OLED-master\Cypress-PSOC-OLED-master\OLED.cydsn/ssd1306.c ****     textsize = (size > 0) ? size : 1;
 1331              		.loc 1 378 0
 1332              		.cfi_startproc
 1333              		@ args = 0, pretend = 0, frame = 0
 1334              		@ frame_needed = 0, uses_anonymous_args = 0
 1335              		@ link register save eliminated.
 1336              	.LVL136:
 379:..\..\Cypress-PSOC-OLED-master\Cypress-PSOC-OLED-master\OLED.cydsn/ssd1306.c **** }
ARM GAS  C:\Users\boise\AppData\Local\Temp\ccDu5XGS.s 			page 34


 1337              		.loc 1 379 0
 1338 0000 0028     		cmp	r0, #0
 1339 0002 00D1     		bne	.L92
 1340 0004 0130     		adds	r0, r0, #1
 1341              	.LVL137:
 1342              	.L92:
 379:..\..\Cypress-PSOC-OLED-master\Cypress-PSOC-OLED-master\OLED.cydsn/ssd1306.c **** }
 1343              		.loc 1 379 0 is_stmt 0 discriminator 4
 1344 0006 014B     		ldr	r3, .L94
 1345 0008 9872     		strb	r0, [r3, #10]
 380:..\..\Cypress-PSOC-OLED-master\Cypress-PSOC-OLED-master\OLED.cydsn/ssd1306.c **** 
 1346              		.loc 1 380 0 is_stmt 1 discriminator 4
 1347              		@ sp needed
 1348 000a 7047     		bx	lr
 1349              	.L95:
 1350              		.align	2
 1351              	.L94:
 1352 000c 00000000 		.word	.LANCHOR1
 1353              		.cfi_endproc
 1354              	.LFE47:
 1355              		.size	gfx_setTextSize, .-gfx_setTextSize
 1356              		.section	.text.gfx_setTextColor,"ax",%progbits
 1357              		.align	2
 1358              		.global	gfx_setTextColor
 1359              		.code	16
 1360              		.thumb_func
 1361              		.type	gfx_setTextColor, %function
 1362              	gfx_setTextColor:
 1363              	.LFB48:
 382:..\..\Cypress-PSOC-OLED-master\Cypress-PSOC-OLED-master\OLED.cydsn/ssd1306.c ****     // For 'transparent' background, we'll set the bg
 1364              		.loc 1 382 0
 1365              		.cfi_startproc
 1366              		@ args = 0, pretend = 0, frame = 0
 1367              		@ frame_needed = 0, uses_anonymous_args = 0
 1368              		@ link register save eliminated.
 1369              	.LVL138:
 385:..\..\Cypress-PSOC-OLED-master\Cypress-PSOC-OLED-master\OLED.cydsn/ssd1306.c **** }
 1370              		.loc 1 385 0
 1371 0000 014B     		ldr	r3, .L97
 1372 0002 9881     		strh	r0, [r3, #12]
 1373 0004 D881     		strh	r0, [r3, #14]
 386:..\..\Cypress-PSOC-OLED-master\Cypress-PSOC-OLED-master\OLED.cydsn/ssd1306.c **** 
 1374              		.loc 1 386 0
 1375              		@ sp needed
 1376 0006 7047     		bx	lr
 1377              	.L98:
 1378              		.align	2
 1379              	.L97:
 1380 0008 00000000 		.word	.LANCHOR1
 1381              		.cfi_endproc
 1382              	.LFE48:
 1383              		.size	gfx_setTextColor, .-gfx_setTextColor
 1384              		.section	.text.gfx_setTextBg,"ax",%progbits
 1385              		.align	2
 1386              		.global	gfx_setTextBg
 1387              		.code	16
 1388              		.thumb_func
ARM GAS  C:\Users\boise\AppData\Local\Temp\ccDu5XGS.s 			page 35


 1389              		.type	gfx_setTextBg, %function
 1390              	gfx_setTextBg:
 1391              	.LFB49:
 388:..\..\Cypress-PSOC-OLED-master\Cypress-PSOC-OLED-master\OLED.cydsn/ssd1306.c ****     textbgcolor = color;
 1392              		.loc 1 388 0
 1393              		.cfi_startproc
 1394              		@ args = 0, pretend = 0, frame = 0
 1395              		@ frame_needed = 0, uses_anonymous_args = 0
 1396              		@ link register save eliminated.
 1397              	.LVL139:
 389:..\..\Cypress-PSOC-OLED-master\Cypress-PSOC-OLED-master\OLED.cydsn/ssd1306.c **** }
 1398              		.loc 1 389 0
 1399 0000 014B     		ldr	r3, .L100
 1400 0002 9881     		strh	r0, [r3, #12]
 390:..\..\Cypress-PSOC-OLED-master\Cypress-PSOC-OLED-master\OLED.cydsn/ssd1306.c **** 
 1401              		.loc 1 390 0
 1402              		@ sp needed
 1403 0004 7047     		bx	lr
 1404              	.L101:
 1405 0006 C046     		.align	2
 1406              	.L100:
 1407 0008 00000000 		.word	.LANCHOR1
 1408              		.cfi_endproc
 1409              	.LFE49:
 1410              		.size	gfx_setTextBg, .-gfx_setTextBg
 1411              		.section	.text.gfx_setTextWrap,"ax",%progbits
 1412              		.align	2
 1413              		.global	gfx_setTextWrap
 1414              		.code	16
 1415              		.thumb_func
 1416              		.type	gfx_setTextWrap, %function
 1417              	gfx_setTextWrap:
 1418              	.LFB50:
 392:..\..\Cypress-PSOC-OLED-master\Cypress-PSOC-OLED-master\OLED.cydsn/ssd1306.c ****     wrap = w;
 1419              		.loc 1 392 0
 1420              		.cfi_startproc
 1421              		@ args = 0, pretend = 0, frame = 0
 1422              		@ frame_needed = 0, uses_anonymous_args = 0
 1423              		@ link register save eliminated.
 1424              	.LVL140:
 393:..\..\Cypress-PSOC-OLED-master\Cypress-PSOC-OLED-master\OLED.cydsn/ssd1306.c **** }
 1425              		.loc 1 393 0
 1426 0000 014B     		ldr	r3, .L103
 1427 0002 1870     		strb	r0, [r3]
 394:..\..\Cypress-PSOC-OLED-master\Cypress-PSOC-OLED-master\OLED.cydsn/ssd1306.c **** 
 1428              		.loc 1 394 0
 1429              		@ sp needed
 1430 0004 7047     		bx	lr
 1431              	.L104:
 1432 0006 C046     		.align	2
 1433              	.L103:
 1434 0008 00000000 		.word	wrap
 1435              		.cfi_endproc
 1436              	.LFE50:
 1437              		.size	gfx_setTextWrap, .-gfx_setTextWrap
 1438              		.section	.text.gfx_setRotation,"ax",%progbits
 1439              		.align	2
ARM GAS  C:\Users\boise\AppData\Local\Temp\ccDu5XGS.s 			page 36


 1440              		.global	gfx_setRotation
 1441              		.code	16
 1442              		.thumb_func
 1443              		.type	gfx_setRotation, %function
 1444              	gfx_setRotation:
 1445              	.LFB51:
 396:..\..\Cypress-PSOC-OLED-master\Cypress-PSOC-OLED-master\OLED.cydsn/ssd1306.c ****     
 1446              		.loc 1 396 0
 1447              		.cfi_startproc
 1448              		@ args = 0, pretend = 0, frame = 0
 1449              		@ frame_needed = 0, uses_anonymous_args = 0
 1450              		@ link register save eliminated.
 1451              	.LVL141:
 398:..\..\Cypress-PSOC-OLED-master\Cypress-PSOC-OLED-master\OLED.cydsn/ssd1306.c ****     switch( rotation ){
 1452              		.loc 1 398 0
 1453 0000 0323     		movs	r3, #3
 1454 0002 1840     		ands	r0, r3
 1455              	.LVL142:
 1456 0004 0D4B     		ldr	r3, .L109
 1457 0006 1870     		strb	r0, [r3]
 399:..\..\Cypress-PSOC-OLED-master\Cypress-PSOC-OLED-master\OLED.cydsn/ssd1306.c ****         case 0:
 1458              		.loc 1 399 0
 1459 0008 0128     		cmp	r0, #1
 1460 000a 0ED0     		beq	.L107
 1461 000c 0028     		cmp	r0, #0
 1462 000e 04D0     		beq	.L108
 1463 0010 0228     		cmp	r0, #2
 1464 0012 02D0     		beq	.L108
 1465 0014 0328     		cmp	r0, #3
 1466 0016 0FD1     		bne	.L105
 1467 0018 07E0     		b	.L107
 1468              	.L108:
 402:..\..\Cypress-PSOC-OLED-master\Cypress-PSOC-OLED-master\OLED.cydsn/ssd1306.c ****             _height = HEIGHT;
 1469              		.loc 1 402 0
 1470 001a 094B     		ldr	r3, .L109+4
 1471 001c 094A     		ldr	r2, .L109+8
 1472 001e 1288     		ldrh	r2, [r2]
 1473 0020 5A80     		strh	r2, [r3, #2]
 403:..\..\Cypress-PSOC-OLED-master\Cypress-PSOC-OLED-master\OLED.cydsn/ssd1306.c ****             break;
 1474              		.loc 1 403 0
 1475 0022 094A     		ldr	r2, .L109+12
 1476 0024 1288     		ldrh	r2, [r2]
 1477 0026 9A80     		strh	r2, [r3, #4]
 404:..\..\Cypress-PSOC-OLED-master\Cypress-PSOC-OLED-master\OLED.cydsn/ssd1306.c ****         case 1:
 1478              		.loc 1 404 0
 1479 0028 06E0     		b	.L105
 1480              	.L107:
 407:..\..\Cypress-PSOC-OLED-master\Cypress-PSOC-OLED-master\OLED.cydsn/ssd1306.c ****             _height = WIDTH;
 1481              		.loc 1 407 0
 1482 002a 054B     		ldr	r3, .L109+4
 1483 002c 064A     		ldr	r2, .L109+12
 1484 002e 1288     		ldrh	r2, [r2]
 1485 0030 5A80     		strh	r2, [r3, #2]
 408:..\..\Cypress-PSOC-OLED-master\Cypress-PSOC-OLED-master\OLED.cydsn/ssd1306.c ****         break;
 1486              		.loc 1 408 0
 1487 0032 044A     		ldr	r2, .L109+8
 1488 0034 1288     		ldrh	r2, [r2]
ARM GAS  C:\Users\boise\AppData\Local\Temp\ccDu5XGS.s 			page 37


 1489 0036 9A80     		strh	r2, [r3, #4]
 1490              	.L105:
 411:..\..\Cypress-PSOC-OLED-master\Cypress-PSOC-OLED-master\OLED.cydsn/ssd1306.c **** 
 1491              		.loc 1 411 0
 1492              		@ sp needed
 1493 0038 7047     		bx	lr
 1494              	.L110:
 1495 003a C046     		.align	2
 1496              	.L109:
 1497 003c 00000000 		.word	rotation
 1498 0040 00000000 		.word	.LANCHOR1
 1499 0044 00000000 		.word	WIDTH
 1500 0048 00000000 		.word	HEIGHT
 1501              		.cfi_endproc
 1502              	.LFE51:
 1503              		.size	gfx_setRotation, .-gfx_setRotation
 1504              		.section	.text.gfx_drawPixel,"ax",%progbits
 1505              		.align	2
 1506              		.global	gfx_drawPixel
 1507              		.code	16
 1508              		.thumb_func
 1509              		.type	gfx_drawPixel, %function
 1510              	gfx_drawPixel:
 1511              	.LFB53:
 433:..\..\Cypress-PSOC-OLED-master\Cypress-PSOC-OLED-master\OLED.cydsn/ssd1306.c ****     
 1512              		.loc 1 433 0
 1513              		.cfi_startproc
 1514              		@ args = 0, pretend = 0, frame = 8
 1515              		@ frame_needed = 0, uses_anonymous_args = 0
 1516              	.LVL143:
 1517 0000 70B5     		push	{r4, r5, r6, lr}
 1518              		.cfi_def_cfa_offset 16
 1519              		.cfi_offset 4, -16
 1520              		.cfi_offset 5, -12
 1521              		.cfi_offset 6, -8
 1522              		.cfi_offset 14, -4
 1523 0002 82B0     		sub	sp, sp, #8
 1524              		.cfi_def_cfa_offset 24
 1525 0004 1400     		movs	r4, r2
 1526 0006 6B46     		mov	r3, sp
 1527 0008 D880     		strh	r0, [r3, #6]
 1528 000a 01AB     		add	r3, sp, #4
 1529 000c 1980     		strh	r1, [r3]
 435:..\..\Cypress-PSOC-OLED-master\Cypress-PSOC-OLED-master\OLED.cydsn/ssd1306.c ****         return;
 1530              		.loc 1 435 0
 1531 000e 0028     		cmp	r0, #0
 1532 0010 1ADB     		blt	.L111
 435:..\..\Cypress-PSOC-OLED-master\Cypress-PSOC-OLED-master\OLED.cydsn/ssd1306.c ****         return;
 1533              		.loc 1 435 0 is_stmt 0 discriminator 1
 1534 0012 0E4B     		ldr	r3, .L113
 1535 0014 0222     		movs	r2, #2
 1536 0016 9B5E     		ldrsh	r3, [r3, r2]
 1537              	.LVL144:
 1538 0018 9842     		cmp	r0, r3
 1539 001a 15DA     		bge	.L111
 435:..\..\Cypress-PSOC-OLED-master\Cypress-PSOC-OLED-master\OLED.cydsn/ssd1306.c ****         return;
 1540              		.loc 1 435 0 discriminator 2
ARM GAS  C:\Users\boise\AppData\Local\Temp\ccDu5XGS.s 			page 38


 1541 001c 0BB2     		sxth	r3, r1
 1542 001e 002B     		cmp	r3, #0
 1543 0020 12DB     		blt	.L111
 435:..\..\Cypress-PSOC-OLED-master\Cypress-PSOC-OLED-master\OLED.cydsn/ssd1306.c ****         return;
 1544              		.loc 1 435 0 discriminator 3
 1545 0022 0A4A     		ldr	r2, .L113
 1546 0024 0421     		movs	r1, #4
 1547 0026 525E     		ldrsh	r2, [r2, r1]
 1548              	.LVL145:
 1549 0028 9342     		cmp	r3, r2
 1550 002a 0DDA     		bge	.L111
 438:..\..\Cypress-PSOC-OLED-master\Cypress-PSOC-OLED-master\OLED.cydsn/ssd1306.c **** 
 1551              		.loc 1 438 0 is_stmt 1
 1552 002c 01AE     		add	r6, sp, #4
 1553              	.LVL146:
 1554 002e 6B46     		mov	r3, sp
 1555 0030 9D1D     		adds	r5, r3, #6
 1556 0032 3100     		movs	r1, r6
 1557 0034 2800     		movs	r0, r5
 1558              	.LVL147:
 1559 0036 FFF7FEFF 		bl	gfx_rotation_adjust
 1560              	.LVL148:
 440:..\..\Cypress-PSOC-OLED-master\Cypress-PSOC-OLED-master\OLED.cydsn/ssd1306.c **** }
 1561              		.loc 1 440 0
 1562 003a 0023     		movs	r3, #0
 1563 003c F15E     		ldrsh	r1, [r6, r3]
 1564 003e 0023     		movs	r3, #0
 1565 0040 E85E     		ldrsh	r0, [r5, r3]
 1566 0042 2200     		movs	r2, r4
 1567 0044 FFF7FEFF 		bl	display_setPixel
 1568              	.LVL149:
 1569              	.L111:
 441:..\..\Cypress-PSOC-OLED-master\Cypress-PSOC-OLED-master\OLED.cydsn/ssd1306.c **** 
 1570              		.loc 1 441 0
 1571 0048 02B0     		add	sp, sp, #8
 1572              	.LVL150:
 1573              		@ sp needed
 1574 004a 70BD     		pop	{r4, r5, r6, pc}
 1575              	.L114:
 1576              		.align	2
 1577              	.L113:
 1578 004c 00000000 		.word	.LANCHOR1
 1579              		.cfi_endproc
 1580              	.LFE53:
 1581              		.size	gfx_drawPixel, .-gfx_drawPixel
 1582              		.section	.text.gfx_drawLine,"ax",%progbits
 1583              		.align	2
 1584              		.global	gfx_drawLine
 1585              		.code	16
 1586              		.thumb_func
 1587              		.type	gfx_drawLine, %function
 1588              	gfx_drawLine:
 1589              	.LFB55:
 476:..\..\Cypress-PSOC-OLED-master\Cypress-PSOC-OLED-master\OLED.cydsn/ssd1306.c **** 
 477:..\..\Cypress-PSOC-OLED-master\Cypress-PSOC-OLED-master\OLED.cydsn/ssd1306.c **** // always use this function for line drawing
 478:..\..\Cypress-PSOC-OLED-master\Cypress-PSOC-OLED-master\OLED.cydsn/ssd1306.c **** void gfx_drawLine( int16_t x0, int16_t y0, int16_t x1, int16_t y1, uint16_t color ){
 1590              		.loc 1 478 0
ARM GAS  C:\Users\boise\AppData\Local\Temp\ccDu5XGS.s 			page 39


 1591              		.cfi_startproc
 1592              		@ args = 4, pretend = 0, frame = 8
 1593              		@ frame_needed = 0, uses_anonymous_args = 0
 1594              	.LVL151:
 1595 0000 F0B5     		push	{r4, r5, r6, r7, lr}
 1596              		.cfi_def_cfa_offset 20
 1597              		.cfi_offset 4, -20
 1598              		.cfi_offset 5, -16
 1599              		.cfi_offset 6, -12
 1600              		.cfi_offset 7, -8
 1601              		.cfi_offset 14, -4
 1602 0002 5F46     		mov	r7, fp
 1603 0004 5646     		mov	r6, r10
 1604 0006 4D46     		mov	r5, r9
 1605 0008 4446     		mov	r4, r8
 1606 000a F0B4     		push	{r4, r5, r6, r7}
 1607              		.cfi_def_cfa_offset 36
 1608              		.cfi_offset 8, -36
 1609              		.cfi_offset 9, -32
 1610              		.cfi_offset 10, -28
 1611              		.cfi_offset 11, -24
 1612 000c 85B0     		sub	sp, sp, #20
 1613              		.cfi_def_cfa_offset 56
 1614 000e 0500     		movs	r5, r0
 1615 0010 0E00     		movs	r6, r1
 1616 0012 1700     		movs	r7, r2
 1617 0014 0EAA     		add	r2, sp, #56
 1618              	.LVL152:
 1619 0016 1288     		ldrh	r2, [r2]
 1620              	.LVL153:
 1621 0018 0292     		str	r2, [sp, #8]
 479:..\..\Cypress-PSOC-OLED-master\Cypress-PSOC-OLED-master\OLED.cydsn/ssd1306.c ****  
 480:..\..\Cypress-PSOC-OLED-master\Cypress-PSOC-OLED-master\OLED.cydsn/ssd1306.c ****     if( x0 == x1 || y0 == y1 ){
 1622              		.loc 1 480 0
 1623 001a B842     		cmp	r0, r7
 1624 001c 01D0     		beq	.L116
 1625              		.loc 1 480 0 is_stmt 0 discriminator 1
 1626 001e 9942     		cmp	r1, r3
 1627 0020 07D1     		bne	.L117
 1628              	.L116:
 481:..\..\Cypress-PSOC-OLED-master\Cypress-PSOC-OLED-master\OLED.cydsn/ssd1306.c ****         // vertical and horizontal lines can be drawn faster
 482:..\..\Cypress-PSOC-OLED-master\Cypress-PSOC-OLED-master\OLED.cydsn/ssd1306.c ****         gfx_hvLine( x0, y0, x1, y1, color );
 1629              		.loc 1 482 0 is_stmt 1
 1630 0022 029A     		ldr	r2, [sp, #8]
 1631 0024 0092     		str	r2, [sp]
 1632 0026 3A00     		movs	r2, r7
 1633 0028 3100     		movs	r1, r6
 1634              	.LVL154:
 1635 002a 2800     		movs	r0, r5
 1636              	.LVL155:
 1637 002c FFF7FEFF 		bl	gfx_hvLine
 1638              	.LVL156:
 483:..\..\Cypress-PSOC-OLED-master\Cypress-PSOC-OLED-master\OLED.cydsn/ssd1306.c ****         return;
 1639              		.loc 1 483 0
 1640 0030 4AE0     		b	.L115
 1641              	.LVL157:
 1642              	.L117:
ARM GAS  C:\Users\boise\AppData\Local\Temp\ccDu5XGS.s 			page 40


 484:..\..\Cypress-PSOC-OLED-master\Cypress-PSOC-OLED-master\OLED.cydsn/ssd1306.c ****     }
 485:..\..\Cypress-PSOC-OLED-master\Cypress-PSOC-OLED-master\OLED.cydsn/ssd1306.c ****     
 486:..\..\Cypress-PSOC-OLED-master\Cypress-PSOC-OLED-master\OLED.cydsn/ssd1306.c ****     int16_t t;
 487:..\..\Cypress-PSOC-OLED-master\Cypress-PSOC-OLED-master\OLED.cydsn/ssd1306.c ****     
 488:..\..\Cypress-PSOC-OLED-master\Cypress-PSOC-OLED-master\OLED.cydsn/ssd1306.c ****     int16_t steep = abs(y1 - y0) > abs(x1 - x0);
 1643              		.loc 1 488 0
 1644 0032 5A1A     		subs	r2, r3, r1
 1645 0034 D117     		asrs	r1, r2, #31
 1646              	.LVL158:
 1647 0036 5218     		adds	r2, r2, r1
 1648 0038 4A40     		eors	r2, r1
 1649 003a 9046     		mov	r8, r2
 1650 003c 3A1A     		subs	r2, r7, r0
 1651 003e D117     		asrs	r1, r2, #31
 1652 0040 5218     		adds	r2, r2, r1
 1653 0042 4A40     		eors	r2, r1
 1654 0044 9146     		mov	r9, r2
 1655              	.LVL159:
 489:..\..\Cypress-PSOC-OLED-master\Cypress-PSOC-OLED-master\OLED.cydsn/ssd1306.c ****     if( steep ){
 1656              		.loc 1 489 0
 1657 0046 9045     		cmp	r8, r2
 1658 0048 04DD     		ble	.L119
 1659 004a 3A00     		movs	r2, r7
 1660              	.LVL160:
 490:..\..\Cypress-PSOC-OLED-master\Cypress-PSOC-OLED-master\OLED.cydsn/ssd1306.c ****         t = x0; x0 = y0; y0 = t;
 491:..\..\Cypress-PSOC-OLED-master\Cypress-PSOC-OLED-master\OLED.cydsn/ssd1306.c ****         t = x1; x1 = y1; y1 = t;
 1661              		.loc 1 491 0
 1662 004c 1F00     		movs	r7, r3
 1663 004e 1300     		movs	r3, r2
 1664              	.LVL161:
 490:..\..\Cypress-PSOC-OLED-master\Cypress-PSOC-OLED-master\OLED.cydsn/ssd1306.c ****         t = x0; x0 = y0; y0 = t;
 1665              		.loc 1 490 0
 1666 0050 3500     		movs	r5, r6
 1667 0052 0600     		movs	r6, r0
 1668              	.L119:
 1669              	.LVL162:
 492:..\..\Cypress-PSOC-OLED-master\Cypress-PSOC-OLED-master\OLED.cydsn/ssd1306.c ****     }
 493:..\..\Cypress-PSOC-OLED-master\Cypress-PSOC-OLED-master\OLED.cydsn/ssd1306.c ****     if( x0 > x1 ){
 1670              		.loc 1 493 0
 1671 0054 BD42     		cmp	r5, r7
 1672 0056 05DD     		ble	.L120
 1673 0058 3200     		movs	r2, r6
 494:..\..\Cypress-PSOC-OLED-master\Cypress-PSOC-OLED-master\OLED.cydsn/ssd1306.c ****         t = x0; x0 = x1; x1 = t;
 495:..\..\Cypress-PSOC-OLED-master\Cypress-PSOC-OLED-master\OLED.cydsn/ssd1306.c ****         t = y0; y0 = y1; y1 = t;
 1674              		.loc 1 495 0
 1675 005a 1E00     		movs	r6, r3
 1676              	.LVL163:
 1677 005c 1300     		movs	r3, r2
 1678              	.LVL164:
 1679 005e 2A00     		movs	r2, r5
 494:..\..\Cypress-PSOC-OLED-master\Cypress-PSOC-OLED-master\OLED.cydsn/ssd1306.c ****         t = x0; x0 = x1; x1 = t;
 1680              		.loc 1 494 0
 1681 0060 3D00     		movs	r5, r7
 1682              	.LVL165:
 1683 0062 1700     		movs	r7, r2
 1684              	.LVL166:
 1685              	.L120:
ARM GAS  C:\Users\boise\AppData\Local\Temp\ccDu5XGS.s 			page 41


 496:..\..\Cypress-PSOC-OLED-master\Cypress-PSOC-OLED-master\OLED.cydsn/ssd1306.c ****     }
 497:..\..\Cypress-PSOC-OLED-master\Cypress-PSOC-OLED-master\OLED.cydsn/ssd1306.c ****     int16_t dx, dy;
 498:..\..\Cypress-PSOC-OLED-master\Cypress-PSOC-OLED-master\OLED.cydsn/ssd1306.c ****     dx = x1 - x0;
 1686              		.loc 1 498 0
 1687 0064 7A1B     		subs	r2, r7, r5
 1688 0066 92B2     		uxth	r2, r2
 1689 0068 9346     		mov	fp, r2
 1690 006a 14B2     		sxth	r4, r2
 1691              	.LVL167:
 499:..\..\Cypress-PSOC-OLED-master\Cypress-PSOC-OLED-master\OLED.cydsn/ssd1306.c ****     dy = abs(y1 - y0);
 1692              		.loc 1 499 0
 1693 006c 9A1B     		subs	r2, r3, r6
 1694 006e D117     		asrs	r1, r2, #31
 1695 0070 5218     		adds	r2, r2, r1
 1696 0072 4A40     		eors	r2, r1
 1697 0074 9246     		mov	r10, r2
 1698              	.LVL168:
 500:..\..\Cypress-PSOC-OLED-master\Cypress-PSOC-OLED-master\OLED.cydsn/ssd1306.c ****     int16_t err = dx / 2;
 1699              		.loc 1 500 0
 1700 0076 E20F     		lsrs	r2, r4, #31
 1701 0078 1419     		adds	r4, r2, r4
 1702              	.LVL169:
 1703 007a 6410     		asrs	r4, r4, #1
 1704              	.LVL170:
 501:..\..\Cypress-PSOC-OLED-master\Cypress-PSOC-OLED-master\OLED.cydsn/ssd1306.c ****     int16_t ystep;
 502:..\..\Cypress-PSOC-OLED-master\Cypress-PSOC-OLED-master\OLED.cydsn/ssd1306.c ****     if( y0 < y1 ){
 1705              		.loc 1 502 0
 1706 007c 9E42     		cmp	r6, r3
 1707 007e 02DA     		bge	.L129
 503:..\..\Cypress-PSOC-OLED-master\Cypress-PSOC-OLED-master\OLED.cydsn/ssd1306.c ****         ystep = 1;
 1708              		.loc 1 503 0
 1709 0080 0123     		movs	r3, #1
 1710              	.LVL171:
 1711 0082 0393     		str	r3, [sp, #12]
 1712 0084 1EE0     		b	.L122
 1713              	.LVL172:
 1714              	.L129:
 504:..\..\Cypress-PSOC-OLED-master\Cypress-PSOC-OLED-master\OLED.cydsn/ssd1306.c ****     }else{
 505:..\..\Cypress-PSOC-OLED-master\Cypress-PSOC-OLED-master\OLED.cydsn/ssd1306.c ****         ystep = -1;
 1715              		.loc 1 505 0
 1716 0086 0123     		movs	r3, #1
 1717              	.LVL173:
 1718 0088 5B42     		rsbs	r3, r3, #0
 1719 008a 0393     		str	r3, [sp, #12]
 1720 008c 1AE0     		b	.L122
 1721              	.LVL174:
 1722              	.L126:
 506:..\..\Cypress-PSOC-OLED-master\Cypress-PSOC-OLED-master\OLED.cydsn/ssd1306.c ****     }
 507:..\..\Cypress-PSOC-OLED-master\Cypress-PSOC-OLED-master\OLED.cydsn/ssd1306.c ****     for( ; x0<=x1; x0++ ){
 508:..\..\Cypress-PSOC-OLED-master\Cypress-PSOC-OLED-master\OLED.cydsn/ssd1306.c ****         if( steep ){
 1723              		.loc 1 508 0
 1724 008e C845     		cmp	r8, r9
 1725 0090 05DD     		ble	.L123
 509:..\..\Cypress-PSOC-OLED-master\Cypress-PSOC-OLED-master\OLED.cydsn/ssd1306.c ****             gfx_drawPixel( y0, x0, color );
 1726              		.loc 1 509 0
 1727 0092 029A     		ldr	r2, [sp, #8]
 1728 0094 2900     		movs	r1, r5
ARM GAS  C:\Users\boise\AppData\Local\Temp\ccDu5XGS.s 			page 42


 1729 0096 3000     		movs	r0, r6
 1730 0098 FFF7FEFF 		bl	gfx_drawPixel
 1731              	.LVL175:
 1732 009c 04E0     		b	.L124
 1733              	.L123:
 510:..\..\Cypress-PSOC-OLED-master\Cypress-PSOC-OLED-master\OLED.cydsn/ssd1306.c ****         }else{
 511:..\..\Cypress-PSOC-OLED-master\Cypress-PSOC-OLED-master\OLED.cydsn/ssd1306.c ****             gfx_drawPixel( x0, y0, color );
 1734              		.loc 1 511 0
 1735 009e 029A     		ldr	r2, [sp, #8]
 1736 00a0 3100     		movs	r1, r6
 1737 00a2 2800     		movs	r0, r5
 1738 00a4 FFF7FEFF 		bl	gfx_drawPixel
 1739              	.LVL176:
 1740              	.L124:
 512:..\..\Cypress-PSOC-OLED-master\Cypress-PSOC-OLED-master\OLED.cydsn/ssd1306.c ****         }
 513:..\..\Cypress-PSOC-OLED-master\Cypress-PSOC-OLED-master\OLED.cydsn/ssd1306.c ****         err -= dy;
 1741              		.loc 1 513 0
 1742 00a8 5346     		mov	r3, r10
 1743 00aa E41A     		subs	r4, r4, r3
 1744              	.LVL177:
 1745 00ac A3B2     		uxth	r3, r4
 1746 00ae 1CB2     		sxth	r4, r3
 1747              	.LVL178:
 514:..\..\Cypress-PSOC-OLED-master\Cypress-PSOC-OLED-master\OLED.cydsn/ssd1306.c ****         if( err < 0 ){
 1748              		.loc 1 514 0
 1749 00b0 002C     		cmp	r4, #0
 1750 00b2 05DA     		bge	.L125
 515:..\..\Cypress-PSOC-OLED-master\Cypress-PSOC-OLED-master\OLED.cydsn/ssd1306.c ****             y0 += ystep;
 1751              		.loc 1 515 0
 1752 00b4 039A     		ldr	r2, [sp, #12]
 1753 00b6 9446     		mov	ip, r2
 1754 00b8 6644     		add	r6, r6, ip
 1755              	.LVL179:
 1756 00ba 36B2     		sxth	r6, r6
 1757              	.LVL180:
 516:..\..\Cypress-PSOC-OLED-master\Cypress-PSOC-OLED-master\OLED.cydsn/ssd1306.c ****             err += dx;
 1758              		.loc 1 516 0
 1759 00bc 5B44     		add	r3, r3, fp
 1760 00be 1CB2     		sxth	r4, r3
 1761              	.LVL181:
 1762              	.L125:
 507:..\..\Cypress-PSOC-OLED-master\Cypress-PSOC-OLED-master\OLED.cydsn/ssd1306.c ****         if( steep ){
 1763              		.loc 1 507 0
 1764 00c0 0135     		adds	r5, r5, #1
 1765              	.LVL182:
 1766 00c2 2DB2     		sxth	r5, r5
 1767              	.LVL183:
 1768              	.L122:
 507:..\..\Cypress-PSOC-OLED-master\Cypress-PSOC-OLED-master\OLED.cydsn/ssd1306.c ****         if( steep ){
 1769              		.loc 1 507 0 is_stmt 0 discriminator 1
 1770 00c4 BD42     		cmp	r5, r7
 1771 00c6 E2DD     		ble	.L126
 1772              	.LVL184:
 1773              	.L115:
 517:..\..\Cypress-PSOC-OLED-master\Cypress-PSOC-OLED-master\OLED.cydsn/ssd1306.c ****         }
 518:..\..\Cypress-PSOC-OLED-master\Cypress-PSOC-OLED-master\OLED.cydsn/ssd1306.c ****     }
 519:..\..\Cypress-PSOC-OLED-master\Cypress-PSOC-OLED-master\OLED.cydsn/ssd1306.c **** }
ARM GAS  C:\Users\boise\AppData\Local\Temp\ccDu5XGS.s 			page 43


 1774              		.loc 1 519 0 is_stmt 1
 1775 00c8 05B0     		add	sp, sp, #20
 1776              		@ sp needed
 1777 00ca 3CBC     		pop	{r2, r3, r4, r5}
 1778 00cc 9046     		mov	r8, r2
 1779 00ce 9946     		mov	r9, r3
 1780 00d0 A246     		mov	r10, r4
 1781 00d2 AB46     		mov	fp, r5
 1782 00d4 F0BD     		pop	{r4, r5, r6, r7, pc}
 1783              		.cfi_endproc
 1784              	.LFE55:
 1785              		.size	gfx_drawLine, .-gfx_drawLine
 1786 00d6 C046     		.section	.text.gfx_drawRect,"ax",%progbits
 1787              		.align	2
 1788              		.global	gfx_drawRect
 1789              		.code	16
 1790              		.thumb_func
 1791              		.type	gfx_drawRect, %function
 1792              	gfx_drawRect:
 1793              	.LFB56:
 520:..\..\Cypress-PSOC-OLED-master\Cypress-PSOC-OLED-master\OLED.cydsn/ssd1306.c **** 
 521:..\..\Cypress-PSOC-OLED-master\Cypress-PSOC-OLED-master\OLED.cydsn/ssd1306.c **** void gfx_drawRect( int16_t x, int16_t y, int16_t w, int16_t h, uint16_t color ){
 1794              		.loc 1 521 0
 1795              		.cfi_startproc
 1796              		@ args = 4, pretend = 0, frame = 8
 1797              		@ frame_needed = 0, uses_anonymous_args = 0
 1798              	.LVL185:
 1799 0000 F0B5     		push	{r4, r5, r6, r7, lr}
 1800              		.cfi_def_cfa_offset 20
 1801              		.cfi_offset 4, -20
 1802              		.cfi_offset 5, -16
 1803              		.cfi_offset 6, -12
 1804              		.cfi_offset 7, -8
 1805              		.cfi_offset 14, -4
 1806 0002 85B0     		sub	sp, sp, #20
 1807              		.cfi_def_cfa_offset 40
 1808 0004 0700     		movs	r7, r0
 1809 0006 0E00     		movs	r6, r1
 1810 0008 1D00     		movs	r5, r3
 1811 000a 0AAB     		add	r3, sp, #40
 1812              	.LVL186:
 1813 000c 1C88     		ldrh	r4, [r3]
 522:..\..\Cypress-PSOC-OLED-master\Cypress-PSOC-OLED-master\OLED.cydsn/ssd1306.c ****     
 523:..\..\Cypress-PSOC-OLED-master\Cypress-PSOC-OLED-master\OLED.cydsn/ssd1306.c ****     gfx_drawLine( x, y, x+w-1, y, color );
 1814              		.loc 1 523 0
 1815 000e 8218     		adds	r2, r0, r2
 1816              	.LVL187:
 1817 0010 013A     		subs	r2, r2, #1
 1818 0012 13B2     		sxth	r3, r2
 1819              	.LVL188:
 1820 0014 1800     		movs	r0, r3
 1821              	.LVL189:
 1822 0016 0094     		str	r4, [sp]
 1823 0018 0B00     		movs	r3, r1
 1824 001a 0390     		str	r0, [sp, #12]
 1825 001c 0200     		movs	r2, r0
 1826 001e 3800     		movs	r0, r7
ARM GAS  C:\Users\boise\AppData\Local\Temp\ccDu5XGS.s 			page 44


 1827 0020 FFF7FEFF 		bl	gfx_drawLine
 1828              	.LVL190:
 524:..\..\Cypress-PSOC-OLED-master\Cypress-PSOC-OLED-master\OLED.cydsn/ssd1306.c ****     gfx_drawLine( x, y+h-1, x+w-1, y+h-1, color );
 1829              		.loc 1 524 0
 1830 0024 7519     		adds	r5, r6, r5
 1831 0026 013D     		subs	r5, r5, #1
 1832 0028 2DB2     		sxth	r5, r5
 1833 002a 0094     		str	r4, [sp]
 1834 002c 2B00     		movs	r3, r5
 1835 002e 039A     		ldr	r2, [sp, #12]
 1836 0030 2900     		movs	r1, r5
 1837 0032 3800     		movs	r0, r7
 1838 0034 FFF7FEFF 		bl	gfx_drawLine
 1839              	.LVL191:
 525:..\..\Cypress-PSOC-OLED-master\Cypress-PSOC-OLED-master\OLED.cydsn/ssd1306.c ****     gfx_drawLine( x, y, x, y+h-1, color );
 1840              		.loc 1 525 0
 1841 0038 0094     		str	r4, [sp]
 1842 003a 2B00     		movs	r3, r5
 1843 003c 3A00     		movs	r2, r7
 1844 003e 3100     		movs	r1, r6
 1845 0040 3800     		movs	r0, r7
 1846 0042 FFF7FEFF 		bl	gfx_drawLine
 1847              	.LVL192:
 526:..\..\Cypress-PSOC-OLED-master\Cypress-PSOC-OLED-master\OLED.cydsn/ssd1306.c ****     gfx_drawLine( x+w-1, y, x+w-1, y+h-1, color );
 1848              		.loc 1 526 0
 1849 0046 0094     		str	r4, [sp]
 1850 0048 2B00     		movs	r3, r5
 1851 004a 0398     		ldr	r0, [sp, #12]
 1852 004c 0200     		movs	r2, r0
 1853 004e 3100     		movs	r1, r6
 1854 0050 FFF7FEFF 		bl	gfx_drawLine
 1855              	.LVL193:
 527:..\..\Cypress-PSOC-OLED-master\Cypress-PSOC-OLED-master\OLED.cydsn/ssd1306.c **** }
 1856              		.loc 1 527 0
 1857 0054 05B0     		add	sp, sp, #20
 1858              		@ sp needed
 1859 0056 F0BD     		pop	{r4, r5, r6, r7, pc}
 1860              		.cfi_endproc
 1861              	.LFE56:
 1862              		.size	gfx_drawRect, .-gfx_drawRect
 1863              		.section	.text.gfx_fillRect,"ax",%progbits
 1864              		.align	2
 1865              		.global	gfx_fillRect
 1866              		.code	16
 1867              		.thumb_func
 1868              		.type	gfx_fillRect, %function
 1869              	gfx_fillRect:
 1870              	.LFB57:
 528:..\..\Cypress-PSOC-OLED-master\Cypress-PSOC-OLED-master\OLED.cydsn/ssd1306.c **** 
 529:..\..\Cypress-PSOC-OLED-master\Cypress-PSOC-OLED-master\OLED.cydsn/ssd1306.c **** void gfx_fillRect( int16_t x, int16_t y, int16_t w, int16_t h, uint16_t color ){
 1871              		.loc 1 529 0
 1872              		.cfi_startproc
 1873              		@ args = 4, pretend = 0, frame = 0
 1874              		@ frame_needed = 0, uses_anonymous_args = 0
 1875              	.LVL194:
 1876 0000 F0B5     		push	{r4, r5, r6, r7, lr}
 1877              		.cfi_def_cfa_offset 20
ARM GAS  C:\Users\boise\AppData\Local\Temp\ccDu5XGS.s 			page 45


 1878              		.cfi_offset 4, -20
 1879              		.cfi_offset 5, -16
 1880              		.cfi_offset 6, -12
 1881              		.cfi_offset 7, -8
 1882              		.cfi_offset 14, -4
 1883 0002 4F46     		mov	r7, r9
 1884 0004 4646     		mov	r6, r8
 1885 0006 C0B4     		push	{r6, r7}
 1886              		.cfi_def_cfa_offset 28
 1887              		.cfi_offset 8, -28
 1888              		.cfi_offset 9, -24
 1889 0008 83B0     		sub	sp, sp, #12
 1890              		.cfi_def_cfa_offset 40
 1891 000a 0500     		movs	r5, r0
 1892 000c 0E00     		movs	r6, r1
 1893 000e 1700     		movs	r7, r2
 1894 0010 9846     		mov	r8, r3
 1895 0012 0AAB     		add	r3, sp, #40
 1896              	.LVL195:
 1897 0014 1B88     		ldrh	r3, [r3]
 1898              	.LVL196:
 1899 0016 9946     		mov	r9, r3
 1900              	.LVL197:
 530:..\..\Cypress-PSOC-OLED-master\Cypress-PSOC-OLED-master\OLED.cydsn/ssd1306.c ****     int16_t i = 0;
 531:..\..\Cypress-PSOC-OLED-master\Cypress-PSOC-OLED-master\OLED.cydsn/ssd1306.c ****     if( h > w ){
 1901              		.loc 1 531 0
 1902 0018 9045     		cmp	r8, r2
 1903 001a 0FDC     		bgt	.L137
 1904 001c 0C00     		movs	r4, r1
 1905 001e 1EE0     		b	.L133
 1906              	.LVL198:
 1907              	.L134:
 532:..\..\Cypress-PSOC-OLED-master\Cypress-PSOC-OLED-master\OLED.cydsn/ssd1306.c ****         for( i = x ; i < x+w ; i++ ){
 533:..\..\Cypress-PSOC-OLED-master\Cypress-PSOC-OLED-master\OLED.cydsn/ssd1306.c ****             gfx_drawLine( i, y, i, y+h-1, color );
 1908              		.loc 1 533 0 discriminator 3
 1909 0020 4346     		mov	r3, r8
 1910 0022 F318     		adds	r3, r6, r3
 1911 0024 013B     		subs	r3, r3, #1
 1912 0026 1BB2     		sxth	r3, r3
 1913 0028 4A46     		mov	r2, r9
 1914 002a 0092     		str	r2, [sp]
 1915 002c 2200     		movs	r2, r4
 1916 002e 3100     		movs	r1, r6
 1917 0030 2000     		movs	r0, r4
 1918 0032 FFF7FEFF 		bl	gfx_drawLine
 1919              	.LVL199:
 532:..\..\Cypress-PSOC-OLED-master\Cypress-PSOC-OLED-master\OLED.cydsn/ssd1306.c ****         for( i = x ; i < x+w ; i++ ){
 1920              		.loc 1 532 0 discriminator 3
 1921 0036 0134     		adds	r4, r4, #1
 1922              	.LVL200:
 1923 0038 24B2     		sxth	r4, r4
 1924              	.LVL201:
 1925 003a 00E0     		b	.L132
 1926              	.LVL202:
 1927              	.L137:
 1928 003c 0400     		movs	r4, r0
 1929              	.LVL203:
ARM GAS  C:\Users\boise\AppData\Local\Temp\ccDu5XGS.s 			page 46


 1930              	.L132:
 532:..\..\Cypress-PSOC-OLED-master\Cypress-PSOC-OLED-master\OLED.cydsn/ssd1306.c ****         for( i = x ; i < x+w ; i++ ){
 1931              		.loc 1 532 0 is_stmt 0 discriminator 1
 1932 003e EB19     		adds	r3, r5, r7
 1933 0040 9C42     		cmp	r4, r3
 1934 0042 EDDB     		blt	.L134
 1935 0044 0FE0     		b	.L131
 1936              	.L136:
 534:..\..\Cypress-PSOC-OLED-master\Cypress-PSOC-OLED-master\OLED.cydsn/ssd1306.c ****         }
 535:..\..\Cypress-PSOC-OLED-master\Cypress-PSOC-OLED-master\OLED.cydsn/ssd1306.c ****     }else{
 536:..\..\Cypress-PSOC-OLED-master\Cypress-PSOC-OLED-master\OLED.cydsn/ssd1306.c ****         for( i = y ; i < y+h ; i++ ){
 537:..\..\Cypress-PSOC-OLED-master\Cypress-PSOC-OLED-master\OLED.cydsn/ssd1306.c ****             gfx_drawLine( x, i, x+w-1, i, color );
 1937              		.loc 1 537 0 is_stmt 1 discriminator 3
 1938 0046 EA19     		adds	r2, r5, r7
 1939 0048 013A     		subs	r2, r2, #1
 1940 004a 12B2     		sxth	r2, r2
 1941 004c 4B46     		mov	r3, r9
 1942 004e 0093     		str	r3, [sp]
 1943 0050 2300     		movs	r3, r4
 1944 0052 2100     		movs	r1, r4
 1945 0054 2800     		movs	r0, r5
 1946 0056 FFF7FEFF 		bl	gfx_drawLine
 1947              	.LVL204:
 536:..\..\Cypress-PSOC-OLED-master\Cypress-PSOC-OLED-master\OLED.cydsn/ssd1306.c ****             gfx_drawLine( x, i, x+w-1, i, color );
 1948              		.loc 1 536 0 discriminator 3
 1949 005a 0134     		adds	r4, r4, #1
 1950              	.LVL205:
 1951 005c 24B2     		sxth	r4, r4
 1952              	.LVL206:
 1953              	.L133:
 536:..\..\Cypress-PSOC-OLED-master\Cypress-PSOC-OLED-master\OLED.cydsn/ssd1306.c ****             gfx_drawLine( x, i, x+w-1, i, color );
 1954              		.loc 1 536 0 is_stmt 0 discriminator 1
 1955 005e 4346     		mov	r3, r8
 1956 0060 F318     		adds	r3, r6, r3
 1957 0062 9C42     		cmp	r4, r3
 1958 0064 EFDB     		blt	.L136
 1959              	.L131:
 538:..\..\Cypress-PSOC-OLED-master\Cypress-PSOC-OLED-master\OLED.cydsn/ssd1306.c ****         }
 539:..\..\Cypress-PSOC-OLED-master\Cypress-PSOC-OLED-master\OLED.cydsn/ssd1306.c ****     }
 540:..\..\Cypress-PSOC-OLED-master\Cypress-PSOC-OLED-master\OLED.cydsn/ssd1306.c **** }
 1960              		.loc 1 540 0 is_stmt 1
 1961 0066 03B0     		add	sp, sp, #12
 1962              		@ sp needed
 1963              	.LVL207:
 1964 0068 0CBC     		pop	{r2, r3}
 1965 006a 9046     		mov	r8, r2
 1966 006c 9946     		mov	r9, r3
 1967 006e F0BD     		pop	{r4, r5, r6, r7, pc}
 1968              		.cfi_endproc
 1969              	.LFE57:
 1970              		.size	gfx_fillRect, .-gfx_fillRect
 1971              		.section	.text.gfx_drawCircle,"ax",%progbits
 1972              		.align	2
 1973              		.global	gfx_drawCircle
 1974              		.code	16
 1975              		.thumb_func
 1976              		.type	gfx_drawCircle, %function
ARM GAS  C:\Users\boise\AppData\Local\Temp\ccDu5XGS.s 			page 47


 1977              	gfx_drawCircle:
 1978              	.LFB58:
 541:..\..\Cypress-PSOC-OLED-master\Cypress-PSOC-OLED-master\OLED.cydsn/ssd1306.c **** 
 542:..\..\Cypress-PSOC-OLED-master\Cypress-PSOC-OLED-master\OLED.cydsn/ssd1306.c **** 
 543:..\..\Cypress-PSOC-OLED-master\Cypress-PSOC-OLED-master\OLED.cydsn/ssd1306.c **** // circle outline
 544:..\..\Cypress-PSOC-OLED-master\Cypress-PSOC-OLED-master\OLED.cydsn/ssd1306.c **** void gfx_drawCircle( int16_t x0, int16_t y0, int16_t r,uint16_t color ){
 1979              		.loc 1 544 0
 1980              		.cfi_startproc
 1981              		@ args = 0, pretend = 0, frame = 24
 1982              		@ frame_needed = 0, uses_anonymous_args = 0
 1983              	.LVL208:
 1984 0000 F0B5     		push	{r4, r5, r6, r7, lr}
 1985              		.cfi_def_cfa_offset 20
 1986              		.cfi_offset 4, -20
 1987              		.cfi_offset 5, -16
 1988              		.cfi_offset 6, -12
 1989              		.cfi_offset 7, -8
 1990              		.cfi_offset 14, -4
 1991 0002 5F46     		mov	r7, fp
 1992 0004 5646     		mov	r6, r10
 1993 0006 4D46     		mov	r5, r9
 1994 0008 4446     		mov	r4, r8
 1995 000a F0B4     		push	{r4, r5, r6, r7}
 1996              		.cfi_def_cfa_offset 36
 1997              		.cfi_offset 8, -36
 1998              		.cfi_offset 9, -32
 1999              		.cfi_offset 10, -28
 2000              		.cfi_offset 11, -24
 2001 000c 87B0     		sub	sp, sp, #28
 2002              		.cfi_def_cfa_offset 64
 2003 000e 0600     		movs	r6, r0
 2004 0010 0D00     		movs	r5, r1
 2005 0012 0292     		str	r2, [sp, #8]
 2006 0014 1800     		movs	r0, r3
 2007              	.LVL209:
 545:..\..\Cypress-PSOC-OLED-master\Cypress-PSOC-OLED-master\OLED.cydsn/ssd1306.c **** 
 546:..\..\Cypress-PSOC-OLED-master\Cypress-PSOC-OLED-master\OLED.cydsn/ssd1306.c ****     int16_t f = 1 - r;
 2008              		.loc 1 546 0
 2009 0016 97B2     		uxth	r7, r2
 2010 0018 0124     		movs	r4, #1
 2011 001a E41B     		subs	r4, r4, r7
 2012 001c 24B2     		sxth	r4, r4
 2013              	.LVL210:
 547:..\..\Cypress-PSOC-OLED-master\Cypress-PSOC-OLED-master\OLED.cydsn/ssd1306.c ****     int16_t ddF_x = 1;
 548:..\..\Cypress-PSOC-OLED-master\Cypress-PSOC-OLED-master\OLED.cydsn/ssd1306.c ****     int16_t ddF_y = -2 * r;
 2014              		.loc 1 548 0
 2015 001e FB03     		lsls	r3, r7, #15
 2016              	.LVL211:
 2017 0020 DB1B     		subs	r3, r3, r7
 2018 0022 5A00     		lsls	r2, r3, #1
 2019              	.LVL212:
 2020 0024 13B2     		sxth	r3, r2
 2021 0026 0593     		str	r3, [sp, #20]
 2022              	.LVL213:
 549:..\..\Cypress-PSOC-OLED-master\Cypress-PSOC-OLED-master\OLED.cydsn/ssd1306.c ****     int16_t x = 0;
 550:..\..\Cypress-PSOC-OLED-master\Cypress-PSOC-OLED-master\OLED.cydsn/ssd1306.c ****     int16_t y = r;
 551:..\..\Cypress-PSOC-OLED-master\Cypress-PSOC-OLED-master\OLED.cydsn/ssd1306.c ****     gfx_drawPixel( x0 , y0+r, color );
ARM GAS  C:\Users\boise\AppData\Local\Temp\ccDu5XGS.s 			page 48


 2023              		.loc 1 551 0
 2024 0028 8BB2     		uxth	r3, r1
 2025 002a 9A46     		mov	r10, r3
 2026 002c F918     		adds	r1, r7, r3
 2027              	.LVL214:
 2028 002e 09B2     		sxth	r1, r1
 2029 0030 0190     		str	r0, [sp, #4]
 2030 0032 0200     		movs	r2, r0
 2031 0034 3000     		movs	r0, r6
 2032 0036 FFF7FEFF 		bl	gfx_drawPixel
 2033              	.LVL215:
 552:..\..\Cypress-PSOC-OLED-master\Cypress-PSOC-OLED-master\OLED.cydsn/ssd1306.c ****     gfx_drawPixel( x0 , y0-r, color );
 2034              		.loc 1 552 0
 2035 003a 5346     		mov	r3, r10
 2036 003c D91B     		subs	r1, r3, r7
 2037 003e 09B2     		sxth	r1, r1
 2038 0040 019A     		ldr	r2, [sp, #4]
 2039 0042 3000     		movs	r0, r6
 2040 0044 FFF7FEFF 		bl	gfx_drawPixel
 2041              	.LVL216:
 553:..\..\Cypress-PSOC-OLED-master\Cypress-PSOC-OLED-master\OLED.cydsn/ssd1306.c ****     gfx_drawPixel( x0+r, y0 , color );
 2042              		.loc 1 553 0
 2043 0048 B3B2     		uxth	r3, r6
 2044 004a 9B46     		mov	fp, r3
 2045 004c F818     		adds	r0, r7, r3
 2046 004e 00B2     		sxth	r0, r0
 2047 0050 019E     		ldr	r6, [sp, #4]
 2048 0052 3200     		movs	r2, r6
 2049 0054 2900     		movs	r1, r5
 2050 0056 FFF7FEFF 		bl	gfx_drawPixel
 2051              	.LVL217:
 554:..\..\Cypress-PSOC-OLED-master\Cypress-PSOC-OLED-master\OLED.cydsn/ssd1306.c ****     gfx_drawPixel( x0-r, y0 , color );
 2052              		.loc 1 554 0
 2053 005a 5B46     		mov	r3, fp
 2054 005c D81B     		subs	r0, r3, r7
 2055 005e 00B2     		sxth	r0, r0
 2056 0060 3200     		movs	r2, r6
 2057 0062 2900     		movs	r1, r5
 2058 0064 FFF7FEFF 		bl	gfx_drawPixel
 2059              	.LVL218:
 549:..\..\Cypress-PSOC-OLED-master\Cypress-PSOC-OLED-master\OLED.cydsn/ssd1306.c ****     int16_t y = r;
 2060              		.loc 1 549 0
 2061 0068 0023     		movs	r3, #0
 547:..\..\Cypress-PSOC-OLED-master\Cypress-PSOC-OLED-master\OLED.cydsn/ssd1306.c ****     int16_t ddF_y = -2 * r;
 2062              		.loc 1 547 0
 2063 006a 0122     		movs	r2, #1
 2064 006c 0392     		str	r2, [sp, #12]
 2065 006e A046     		mov	r8, r4
 2066 0070 9946     		mov	r9, r3
 555:..\..\Cypress-PSOC-OLED-master\Cypress-PSOC-OLED-master\OLED.cydsn/ssd1306.c ****     while( x < y ){
 2067              		.loc 1 555 0
 2068 0072 5FE0     		b	.L139
 2069              	.LVL219:
 2070              	.L141:
 556:..\..\Cypress-PSOC-OLED-master\Cypress-PSOC-OLED-master\OLED.cydsn/ssd1306.c ****         if( f >= 0 ){
 2071              		.loc 1 556 0
 2072 0074 4346     		mov	r3, r8
ARM GAS  C:\Users\boise\AppData\Local\Temp\ccDu5XGS.s 			page 49


 2073 0076 002B     		cmp	r3, #0
 2074 0078 0BDB     		blt	.L140
 557:..\..\Cypress-PSOC-OLED-master\Cypress-PSOC-OLED-master\OLED.cydsn/ssd1306.c ****             y--;
 2075              		.loc 1 557 0
 2076 007a 029B     		ldr	r3, [sp, #8]
 2077 007c 013B     		subs	r3, r3, #1
 2078 007e 1BB2     		sxth	r3, r3
 2079 0080 0293     		str	r3, [sp, #8]
 2080              	.LVL220:
 558:..\..\Cypress-PSOC-OLED-master\Cypress-PSOC-OLED-master\OLED.cydsn/ssd1306.c ****             ddF_y += 2;
 2081              		.loc 1 558 0
 2082 0082 059B     		ldr	r3, [sp, #20]
 2083 0084 0233     		adds	r3, r3, #2
 2084 0086 9BB2     		uxth	r3, r3
 2085 0088 1AB2     		sxth	r2, r3
 2086 008a 0592     		str	r2, [sp, #20]
 2087              	.LVL221:
 559:..\..\Cypress-PSOC-OLED-master\Cypress-PSOC-OLED-master\OLED.cydsn/ssd1306.c ****             f += ddF_y;
 2088              		.loc 1 559 0
 2089 008c 4344     		add	r3, r3, r8
 2090 008e 1BB2     		sxth	r3, r3
 2091 0090 9846     		mov	r8, r3
 2092              	.LVL222:
 2093              	.L140:
 560:..\..\Cypress-PSOC-OLED-master\Cypress-PSOC-OLED-master\OLED.cydsn/ssd1306.c ****         }
 561:..\..\Cypress-PSOC-OLED-master\Cypress-PSOC-OLED-master\OLED.cydsn/ssd1306.c ****         x++;
 2094              		.loc 1 561 0
 2095 0092 4D46     		mov	r5, r9
 2096 0094 0135     		adds	r5, r5, #1
 2097 0096 ADB2     		uxth	r5, r5
 2098 0098 2BB2     		sxth	r3, r5
 2099 009a 9946     		mov	r9, r3
 2100              	.LVL223:
 562:..\..\Cypress-PSOC-OLED-master\Cypress-PSOC-OLED-master\OLED.cydsn/ssd1306.c ****         ddF_x += 2;
 2101              		.loc 1 562 0
 2102 009c 039B     		ldr	r3, [sp, #12]
 2103 009e 0233     		adds	r3, r3, #2
 2104 00a0 9BB2     		uxth	r3, r3
 2105 00a2 1AB2     		sxth	r2, r3
 2106 00a4 0392     		str	r2, [sp, #12]
 2107              	.LVL224:
 563:..\..\Cypress-PSOC-OLED-master\Cypress-PSOC-OLED-master\OLED.cydsn/ssd1306.c ****         f += ddF_x;
 2108              		.loc 1 563 0
 2109 00a6 4344     		add	r3, r3, r8
 2110 00a8 1BB2     		sxth	r3, r3
 2111 00aa 9846     		mov	r8, r3
 2112              	.LVL225:
 564:..\..\Cypress-PSOC-OLED-master\Cypress-PSOC-OLED-master\OLED.cydsn/ssd1306.c ****         gfx_drawPixel( x0 + x, y0 + y, color );
 2113              		.loc 1 564 0
 2114 00ac 5B46     		mov	r3, fp
 2115 00ae 5B19     		adds	r3, r3, r5
 2116 00b0 1BB2     		sxth	r3, r3
 2117 00b2 6A46     		mov	r2, sp
 2118 00b4 1689     		ldrh	r6, [r2, #8]
 2119 00b6 5246     		mov	r2, r10
 2120 00b8 9719     		adds	r7, r2, r6
 2121 00ba 3FB2     		sxth	r7, r7
ARM GAS  C:\Users\boise\AppData\Local\Temp\ccDu5XGS.s 			page 50


 2122 00bc 019A     		ldr	r2, [sp, #4]
 2123 00be 3900     		movs	r1, r7
 2124 00c0 0493     		str	r3, [sp, #16]
 2125 00c2 1800     		movs	r0, r3
 2126 00c4 FFF7FEFF 		bl	gfx_drawPixel
 2127              	.LVL226:
 565:..\..\Cypress-PSOC-OLED-master\Cypress-PSOC-OLED-master\OLED.cydsn/ssd1306.c ****         gfx_drawPixel( x0 - x, y0 + y, color );
 2128              		.loc 1 565 0
 2129 00c8 5A46     		mov	r2, fp
 2130 00ca 541B     		subs	r4, r2, r5
 2131 00cc 24B2     		sxth	r4, r4
 2132 00ce 019A     		ldr	r2, [sp, #4]
 2133 00d0 3900     		movs	r1, r7
 2134 00d2 2000     		movs	r0, r4
 2135 00d4 FFF7FEFF 		bl	gfx_drawPixel
 2136              	.LVL227:
 566:..\..\Cypress-PSOC-OLED-master\Cypress-PSOC-OLED-master\OLED.cydsn/ssd1306.c ****         gfx_drawPixel( x0 + x, y0 - y, color );
 2137              		.loc 1 566 0
 2138 00d8 5246     		mov	r2, r10
 2139 00da 971B     		subs	r7, r2, r6
 2140 00dc 3FB2     		sxth	r7, r7
 2141 00de 019A     		ldr	r2, [sp, #4]
 2142 00e0 3900     		movs	r1, r7
 2143 00e2 0498     		ldr	r0, [sp, #16]
 2144 00e4 FFF7FEFF 		bl	gfx_drawPixel
 2145              	.LVL228:
 567:..\..\Cypress-PSOC-OLED-master\Cypress-PSOC-OLED-master\OLED.cydsn/ssd1306.c ****         gfx_drawPixel( x0 - x, y0 - y, color );
 2146              		.loc 1 567 0
 2147 00e8 019A     		ldr	r2, [sp, #4]
 2148 00ea 3900     		movs	r1, r7
 2149 00ec 2000     		movs	r0, r4
 2150 00ee FFF7FEFF 		bl	gfx_drawPixel
 2151              	.LVL229:
 568:..\..\Cypress-PSOC-OLED-master\Cypress-PSOC-OLED-master\OLED.cydsn/ssd1306.c ****         gfx_drawPixel( x0 + y, y0 + x, color );
 2152              		.loc 1 568 0
 2153 00f2 5B46     		mov	r3, fp
 2154 00f4 9F19     		adds	r7, r3, r6
 2155 00f6 3FB2     		sxth	r7, r7
 2156 00f8 5346     		mov	r3, r10
 2157 00fa 5C19     		adds	r4, r3, r5
 2158 00fc 24B2     		sxth	r4, r4
 2159 00fe 019A     		ldr	r2, [sp, #4]
 2160 0100 2100     		movs	r1, r4
 2161 0102 3800     		movs	r0, r7
 2162 0104 FFF7FEFF 		bl	gfx_drawPixel
 2163              	.LVL230:
 569:..\..\Cypress-PSOC-OLED-master\Cypress-PSOC-OLED-master\OLED.cydsn/ssd1306.c ****         gfx_drawPixel( x0 - y, y0 + x, color );
 2164              		.loc 1 569 0
 2165 0108 5B46     		mov	r3, fp
 2166 010a 9E1B     		subs	r6, r3, r6
 2167 010c 36B2     		sxth	r6, r6
 2168 010e 019A     		ldr	r2, [sp, #4]
 2169 0110 2100     		movs	r1, r4
 2170 0112 3000     		movs	r0, r6
 2171 0114 FFF7FEFF 		bl	gfx_drawPixel
 2172              	.LVL231:
 570:..\..\Cypress-PSOC-OLED-master\Cypress-PSOC-OLED-master\OLED.cydsn/ssd1306.c ****         gfx_drawPixel( x0 + y, y0 - x, color );
ARM GAS  C:\Users\boise\AppData\Local\Temp\ccDu5XGS.s 			page 51


 2173              		.loc 1 570 0
 2174 0118 5346     		mov	r3, r10
 2175 011a 5D1B     		subs	r5, r3, r5
 2176 011c 2DB2     		sxth	r5, r5
 2177 011e 019C     		ldr	r4, [sp, #4]
 2178 0120 2200     		movs	r2, r4
 2179 0122 2900     		movs	r1, r5
 2180 0124 3800     		movs	r0, r7
 2181 0126 FFF7FEFF 		bl	gfx_drawPixel
 2182              	.LVL232:
 571:..\..\Cypress-PSOC-OLED-master\Cypress-PSOC-OLED-master\OLED.cydsn/ssd1306.c ****         gfx_drawPixel( x0 - y, y0 - x, color );
 2183              		.loc 1 571 0
 2184 012a 2200     		movs	r2, r4
 2185 012c 2900     		movs	r1, r5
 2186 012e 3000     		movs	r0, r6
 2187 0130 FFF7FEFF 		bl	gfx_drawPixel
 2188              	.LVL233:
 2189              	.L139:
 555:..\..\Cypress-PSOC-OLED-master\Cypress-PSOC-OLED-master\OLED.cydsn/ssd1306.c ****         if( f >= 0 ){
 2190              		.loc 1 555 0
 2191 0134 029B     		ldr	r3, [sp, #8]
 2192 0136 9945     		cmp	r9, r3
 2193 0138 9CDB     		blt	.L141
 572:..\..\Cypress-PSOC-OLED-master\Cypress-PSOC-OLED-master\OLED.cydsn/ssd1306.c ****     }
 573:..\..\Cypress-PSOC-OLED-master\Cypress-PSOC-OLED-master\OLED.cydsn/ssd1306.c **** }
 2194              		.loc 1 573 0
 2195 013a 07B0     		add	sp, sp, #28
 2196              		@ sp needed
 2197              	.LVL234:
 2198              	.LVL235:
 2199              	.LVL236:
 2200 013c 3CBC     		pop	{r2, r3, r4, r5}
 2201 013e 9046     		mov	r8, r2
 2202 0140 9946     		mov	r9, r3
 2203 0142 A246     		mov	r10, r4
 2204 0144 AB46     		mov	fp, r5
 2205 0146 F0BD     		pop	{r4, r5, r6, r7, pc}
 2206              		.cfi_endproc
 2207              	.LFE58:
 2208              		.size	gfx_drawCircle, .-gfx_drawCircle
 2209              		.section	.text.gfx_drawTriangle,"ax",%progbits
 2210              		.align	2
 2211              		.global	gfx_drawTriangle
 2212              		.code	16
 2213              		.thumb_func
 2214              		.type	gfx_drawTriangle, %function
 2215              	gfx_drawTriangle:
 2216              	.LFB59:
 574:..\..\Cypress-PSOC-OLED-master\Cypress-PSOC-OLED-master\OLED.cydsn/ssd1306.c **** 
 575:..\..\Cypress-PSOC-OLED-master\Cypress-PSOC-OLED-master\OLED.cydsn/ssd1306.c **** void gfx_drawTriangle( int16_t x0, int16_t y0,int16_t x1, int16_t y1, int16_t x2, int16_t y2, uint1
 2217              		.loc 1 575 0
 2218              		.cfi_startproc
 2219              		@ args = 12, pretend = 0, frame = 16
 2220              		@ frame_needed = 0, uses_anonymous_args = 0
 2221              	.LVL237:
 2222 0000 F0B5     		push	{r4, r5, r6, r7, lr}
 2223              		.cfi_def_cfa_offset 20
ARM GAS  C:\Users\boise\AppData\Local\Temp\ccDu5XGS.s 			page 52


 2224              		.cfi_offset 4, -20
 2225              		.cfi_offset 5, -16
 2226              		.cfi_offset 6, -12
 2227              		.cfi_offset 7, -8
 2228              		.cfi_offset 14, -4
 2229 0002 87B0     		sub	sp, sp, #28
 2230              		.cfi_def_cfa_offset 48
 2231 0004 1F00     		movs	r7, r3
 2232 0006 0CAB     		add	r3, sp, #48
 2233              	.LVL238:
 2234 0008 0024     		movs	r4, #0
 2235 000a 1C5F     		ldrsh	r4, [r3, r4]
 2236              	.LVL239:
 2237 000c 0DAB     		add	r3, sp, #52
 2238              	.LVL240:
 2239 000e 0025     		movs	r5, #0
 2240 0010 5D5F     		ldrsh	r5, [r3, r5]
 2241              	.LVL241:
 2242 0012 0EAB     		add	r3, sp, #56
 2243              	.LVL242:
 2244 0014 1E88     		ldrh	r6, [r3]
 576:..\..\Cypress-PSOC-OLED-master\Cypress-PSOC-OLED-master\OLED.cydsn/ssd1306.c ****     
 577:..\..\Cypress-PSOC-OLED-master\Cypress-PSOC-OLED-master\OLED.cydsn/ssd1306.c ****     gfx_drawLine( x0, y0, x1, y1, color );
 2245              		.loc 1 577 0
 2246 0016 0096     		str	r6, [sp]
 2247 0018 3B00     		movs	r3, r7
 2248              	.LVL243:
 2249 001a 0592     		str	r2, [sp, #20]
 2250 001c 0491     		str	r1, [sp, #16]
 2251 001e 0390     		str	r0, [sp, #12]
 2252 0020 FFF7FEFF 		bl	gfx_drawLine
 2253              	.LVL244:
 578:..\..\Cypress-PSOC-OLED-master\Cypress-PSOC-OLED-master\OLED.cydsn/ssd1306.c ****     gfx_drawLine( x1, y1, x2, y2, color );
 2254              		.loc 1 578 0
 2255 0024 0096     		str	r6, [sp]
 2256 0026 2B00     		movs	r3, r5
 2257 0028 2200     		movs	r2, r4
 2258 002a 3900     		movs	r1, r7
 2259 002c 0598     		ldr	r0, [sp, #20]
 2260 002e FFF7FEFF 		bl	gfx_drawLine
 2261              	.LVL245:
 579:..\..\Cypress-PSOC-OLED-master\Cypress-PSOC-OLED-master\OLED.cydsn/ssd1306.c ****     gfx_drawLine( x2, y2, x0, y0, color );
 2262              		.loc 1 579 0
 2263 0032 0096     		str	r6, [sp]
 2264 0034 049B     		ldr	r3, [sp, #16]
 2265 0036 039A     		ldr	r2, [sp, #12]
 2266 0038 2900     		movs	r1, r5
 2267 003a 2000     		movs	r0, r4
 2268 003c FFF7FEFF 		bl	gfx_drawLine
 2269              	.LVL246:
 580:..\..\Cypress-PSOC-OLED-master\Cypress-PSOC-OLED-master\OLED.cydsn/ssd1306.c **** }
 2270              		.loc 1 580 0
 2271 0040 07B0     		add	sp, sp, #28
 2272              		@ sp needed
 2273 0042 F0BD     		pop	{r4, r5, r6, r7, pc}
 2274              		.cfi_endproc
 2275              	.LFE59:
ARM GAS  C:\Users\boise\AppData\Local\Temp\ccDu5XGS.s 			page 53


 2276              		.size	gfx_drawTriangle, .-gfx_drawTriangle
 2277              		.section	.text.gfx_drawChar,"ax",%progbits
 2278              		.align	2
 2279              		.global	gfx_drawChar
 2280              		.code	16
 2281              		.thumb_func
 2282              		.type	gfx_drawChar, %function
 2283              	gfx_drawChar:
 2284              	.LFB60:
 581:..\..\Cypress-PSOC-OLED-master\Cypress-PSOC-OLED-master\OLED.cydsn/ssd1306.c **** 
 582:..\..\Cypress-PSOC-OLED-master\Cypress-PSOC-OLED-master\OLED.cydsn/ssd1306.c **** 
 583:..\..\Cypress-PSOC-OLED-master\Cypress-PSOC-OLED-master\OLED.cydsn/ssd1306.c **** // Draw a character
 584:..\..\Cypress-PSOC-OLED-master\Cypress-PSOC-OLED-master\OLED.cydsn/ssd1306.c **** void gfx_drawChar( int16_t x, int16_t y, unsigned char c,uint16_t color, uint16_t bg, uint8_t size)
 2285              		.loc 1 584 0
 2286              		.cfi_startproc
 2287              		@ args = 8, pretend = 0, frame = 8
 2288              		@ frame_needed = 0, uses_anonymous_args = 0
 2289              	.LVL247:
 2290 0000 F0B5     		push	{r4, r5, r6, r7, lr}
 2291              		.cfi_def_cfa_offset 20
 2292              		.cfi_offset 4, -20
 2293              		.cfi_offset 5, -16
 2294              		.cfi_offset 6, -12
 2295              		.cfi_offset 7, -8
 2296              		.cfi_offset 14, -4
 2297 0002 5F46     		mov	r7, fp
 2298 0004 5646     		mov	r6, r10
 2299 0006 4D46     		mov	r5, r9
 2300 0008 4446     		mov	r4, r8
 2301 000a F0B4     		push	{r4, r5, r6, r7}
 2302              		.cfi_def_cfa_offset 36
 2303              		.cfi_offset 8, -36
 2304              		.cfi_offset 9, -32
 2305              		.cfi_offset 10, -28
 2306              		.cfi_offset 11, -24
 2307 000c 85B0     		sub	sp, sp, #20
 2308              		.cfi_def_cfa_offset 56
 2309 000e 8146     		mov	r9, r0
 2310 0010 8A46     		mov	r10, r1
 2311 0012 0392     		str	r2, [sp, #12]
 2312 0014 9846     		mov	r8, r3
 2313 0016 0EAB     		add	r3, sp, #56
 2314              	.LVL248:
 2315 0018 1B88     		ldrh	r3, [r3]
 2316              	.LVL249:
 2317 001a 9B46     		mov	fp, r3
 2318 001c 0FAB     		add	r3, sp, #60
 2319              	.LVL250:
 2320 001e 1E78     		ldrb	r6, [r3]
 585:..\..\Cypress-PSOC-OLED-master\Cypress-PSOC-OLED-master\OLED.cydsn/ssd1306.c ****     if( (x >= _width) || // Clip right
 2321              		.loc 1 585 0
 2322 0020 3A4B     		ldr	r3, .L155
 2323              	.LVL251:
 2324 0022 0222     		movs	r2, #2
 2325 0024 9B5E     		ldrsh	r3, [r3, r2]
 2326              	.LVL252:
 2327 0026 8342     		cmp	r3, r0
ARM GAS  C:\Users\boise\AppData\Local\Temp\ccDu5XGS.s 			page 54


 2328 0028 68DD     		ble	.L143
 586:..\..\Cypress-PSOC-OLED-master\Cypress-PSOC-OLED-master\OLED.cydsn/ssd1306.c ****         (y >= _height) || // Clip bottom
 2329              		.loc 1 586 0 discriminator 1
 2330 002a 384B     		ldr	r3, .L155
 2331 002c 0422     		movs	r2, #4
 2332 002e 9B5E     		ldrsh	r3, [r3, r2]
 585:..\..\Cypress-PSOC-OLED-master\Cypress-PSOC-OLED-master\OLED.cydsn/ssd1306.c ****     if( (x >= _width) || // Clip right
 2333              		.loc 1 585 0 discriminator 1
 2334 0030 8B42     		cmp	r3, r1
 2335 0032 63DD     		ble	.L143
 587:..\..\Cypress-PSOC-OLED-master\Cypress-PSOC-OLED-master\OLED.cydsn/ssd1306.c ****         ((x + 6 * size - 1) < 0) || // Clip left
 2336              		.loc 1 587 0
 2337 0034 7200     		lsls	r2, r6, #1
 2338 0036 9219     		adds	r2, r2, r6
 2339 0038 5300     		lsls	r3, r2, #1
 2340 003a 4B44     		add	r3, r3, r9
 586:..\..\Cypress-PSOC-OLED-master\Cypress-PSOC-OLED-master\OLED.cydsn/ssd1306.c ****         (y >= _height) || // Clip bottom
 2341              		.loc 1 586 0
 2342 003c 012B     		cmp	r3, #1
 2343 003e 5DD4     		bmi	.L143
 588:..\..\Cypress-PSOC-OLED-master\Cypress-PSOC-OLED-master\OLED.cydsn/ssd1306.c ****         ((y + 8 * size - 1) < 0)) // Clip top
 2344              		.loc 1 588 0
 2345 0040 F300     		lsls	r3, r6, #3
 2346 0042 5344     		add	r3, r3, r10
 587:..\..\Cypress-PSOC-OLED-master\Cypress-PSOC-OLED-master\OLED.cydsn/ssd1306.c ****         ((x + 6 * size - 1) < 0) || // Clip left
 2347              		.loc 1 587 0
 2348 0044 012B     		cmp	r3, #1
 2349 0046 59D4     		bmi	.L143
 2350 0048 0027     		movs	r7, #0
 2351 004a 55E0     		b	.L145
 2352              	.LVL253:
 2353              	.L153:
 2354              	.LBB7:
 589:..\..\Cypress-PSOC-OLED-master\Cypress-PSOC-OLED-master\OLED.cydsn/ssd1306.c ****         return;
 590:..\..\Cypress-PSOC-OLED-master\Cypress-PSOC-OLED-master\OLED.cydsn/ssd1306.c **** 
 591:..\..\Cypress-PSOC-OLED-master\Cypress-PSOC-OLED-master\OLED.cydsn/ssd1306.c ****     int8_t i = 0;
 592:..\..\Cypress-PSOC-OLED-master\Cypress-PSOC-OLED-master\OLED.cydsn/ssd1306.c ****     for( i = 0 ; i < 6 ; i++ ){
 593:..\..\Cypress-PSOC-OLED-master\Cypress-PSOC-OLED-master\OLED.cydsn/ssd1306.c ****         uint8_t line;
 594:..\..\Cypress-PSOC-OLED-master\Cypress-PSOC-OLED-master\OLED.cydsn/ssd1306.c ****         if( i == 5 )
 2355              		.loc 1 594 0
 2356 004c 052F     		cmp	r7, #5
 2357 004e 09D0     		beq	.L154
 595:..\..\Cypress-PSOC-OLED-master\Cypress-PSOC-OLED-master\OLED.cydsn/ssd1306.c ****             line = 0x0;
 596:..\..\Cypress-PSOC-OLED-master\Cypress-PSOC-OLED-master\OLED.cydsn/ssd1306.c ****         else
 597:..\..\Cypress-PSOC-OLED-master\Cypress-PSOC-OLED-master\OLED.cydsn/ssd1306.c ****            line = font[(c*5)+i];
 2358              		.loc 1 597 0
 2359 0050 039A     		ldr	r2, [sp, #12]
 2360 0052 9300     		lsls	r3, r2, #2
 2361 0054 9446     		mov	ip, r2
 2362 0056 6344     		add	r3, r3, ip
 2363 0058 FB18     		adds	r3, r7, r3
 2364 005a 2D4A     		ldr	r2, .L155+4
 2365 005c D318     		adds	r3, r2, r3
 2366 005e 2422     		movs	r2, #36
 2367 0060 9D5C     		ldrb	r5, [r3, r2]
 2368              	.LVL254:
 2369 0062 00E0     		b	.L146
ARM GAS  C:\Users\boise\AppData\Local\Temp\ccDu5XGS.s 			page 55


 2370              	.LVL255:
 2371              	.L154:
 595:..\..\Cypress-PSOC-OLED-master\Cypress-PSOC-OLED-master\OLED.cydsn/ssd1306.c ****             line = 0x0;
 2372              		.loc 1 595 0
 2373 0064 0025     		movs	r5, #0
 2374              	.L146:
 595:..\..\Cypress-PSOC-OLED-master\Cypress-PSOC-OLED-master\OLED.cydsn/ssd1306.c ****             line = 0x0;
 2375              		.loc 1 595 0 is_stmt 0 discriminator 1
 2376 0066 0024     		movs	r4, #0
 2377 0068 4346     		mov	r3, r8
 2378 006a B846     		mov	r8, r7
 2379 006c 1F00     		movs	r7, r3
 2380              	.LVL256:
 2381 006e 3CE0     		b	.L147
 2382              	.LVL257:
 2383              	.L152:
 598:..\..\Cypress-PSOC-OLED-master\Cypress-PSOC-OLED-master\OLED.cydsn/ssd1306.c ****         int8_t j = 0;
 599:..\..\Cypress-PSOC-OLED-master\Cypress-PSOC-OLED-master\OLED.cydsn/ssd1306.c ****         for( j = 0; j < 8 ; j++ ){
 600:..\..\Cypress-PSOC-OLED-master\Cypress-PSOC-OLED-master\OLED.cydsn/ssd1306.c ****             if( line & 0x1 ){
 2384              		.loc 1 600 0 is_stmt 1
 2385 0070 EB07     		lsls	r3, r5, #31
 2386 0072 1AD5     		bpl	.L148
 601:..\..\Cypress-PSOC-OLED-master\Cypress-PSOC-OLED-master\OLED.cydsn/ssd1306.c ****                 if( size == 1 ) // default size
 2387              		.loc 1 601 0
 2388 0074 012E     		cmp	r6, #1
 2389 0076 09D1     		bne	.L149
 602:..\..\Cypress-PSOC-OLED-master\Cypress-PSOC-OLED-master\OLED.cydsn/ssd1306.c ****                     gfx_drawPixel( x+i, y+j, color );
 2390              		.loc 1 602 0
 2391 0078 5346     		mov	r3, r10
 2392 007a E118     		adds	r1, r4, r3
 2393 007c 09B2     		sxth	r1, r1
 2394 007e 4046     		mov	r0, r8
 2395 0080 4844     		add	r0, r0, r9
 2396 0082 00B2     		sxth	r0, r0
 2397 0084 3A00     		movs	r2, r7
 2398 0086 FFF7FEFF 		bl	gfx_drawPixel
 2399              	.LVL258:
 2400 008a 2BE0     		b	.L150
 2401              	.L149:
 603:..\..\Cypress-PSOC-OLED-master\Cypress-PSOC-OLED-master\OLED.cydsn/ssd1306.c ****                 else { // big size
 604:..\..\Cypress-PSOC-OLED-master\Cypress-PSOC-OLED-master\OLED.cydsn/ssd1306.c ****                     gfx_fillRect( x+(i*size), y+(j*size), size, size, color );
 2402              		.loc 1 604 0
 2403 008c B0B2     		uxth	r0, r6
 2404 008e 32B2     		sxth	r2, r6
 2405 0090 2100     		movs	r1, r4
 2406 0092 4143     		muls	r1, r0
 2407 0094 5144     		add	r1, r1, r10
 2408 0096 09B2     		sxth	r1, r1
 2409 0098 4346     		mov	r3, r8
 2410 009a 5843     		muls	r0, r3
 2411 009c 4844     		add	r0, r0, r9
 2412 009e 00B2     		sxth	r0, r0
 2413 00a0 0097     		str	r7, [sp]
 2414 00a2 1300     		movs	r3, r2
 2415 00a4 FFF7FEFF 		bl	gfx_fillRect
 2416              	.LVL259:
 2417 00a8 1CE0     		b	.L150
ARM GAS  C:\Users\boise\AppData\Local\Temp\ccDu5XGS.s 			page 56


 2418              	.L148:
 605:..\..\Cypress-PSOC-OLED-master\Cypress-PSOC-OLED-master\OLED.cydsn/ssd1306.c ****                 }
 606:..\..\Cypress-PSOC-OLED-master\Cypress-PSOC-OLED-master\OLED.cydsn/ssd1306.c ****             } else if( bg != color ){
 2419              		.loc 1 606 0
 2420 00aa 5F45     		cmp	r7, fp
 2421 00ac 1AD0     		beq	.L150
 607:..\..\Cypress-PSOC-OLED-master\Cypress-PSOC-OLED-master\OLED.cydsn/ssd1306.c ****                 if( size == 1 ) // default size
 2422              		.loc 1 607 0
 2423 00ae 012E     		cmp	r6, #1
 2424 00b0 09D1     		bne	.L151
 608:..\..\Cypress-PSOC-OLED-master\Cypress-PSOC-OLED-master\OLED.cydsn/ssd1306.c ****                     gfx_drawPixel( x+i, y+j, bg );
 2425              		.loc 1 608 0
 2426 00b2 5346     		mov	r3, r10
 2427 00b4 E118     		adds	r1, r4, r3
 2428 00b6 09B2     		sxth	r1, r1
 2429 00b8 4046     		mov	r0, r8
 2430 00ba 4844     		add	r0, r0, r9
 2431 00bc 00B2     		sxth	r0, r0
 2432 00be 5A46     		mov	r2, fp
 2433 00c0 FFF7FEFF 		bl	gfx_drawPixel
 2434              	.LVL260:
 2435 00c4 0EE0     		b	.L150
 2436              	.L151:
 609:..\..\Cypress-PSOC-OLED-master\Cypress-PSOC-OLED-master\OLED.cydsn/ssd1306.c ****                 else { // big size
 610:..\..\Cypress-PSOC-OLED-master\Cypress-PSOC-OLED-master\OLED.cydsn/ssd1306.c ****                     gfx_fillRect( x+i*size, y+j*size, size, size, bg );
 2437              		.loc 1 610 0
 2438 00c6 B0B2     		uxth	r0, r6
 2439 00c8 32B2     		sxth	r2, r6
 2440 00ca 2100     		movs	r1, r4
 2441 00cc 4143     		muls	r1, r0
 2442 00ce 5144     		add	r1, r1, r10
 2443 00d0 09B2     		sxth	r1, r1
 2444 00d2 4346     		mov	r3, r8
 2445 00d4 5843     		muls	r0, r3
 2446 00d6 4844     		add	r0, r0, r9
 2447 00d8 00B2     		sxth	r0, r0
 2448 00da 5B46     		mov	r3, fp
 2449 00dc 0093     		str	r3, [sp]
 2450 00de 1300     		movs	r3, r2
 2451 00e0 FFF7FEFF 		bl	gfx_fillRect
 2452              	.LVL261:
 2453              	.L150:
 611:..\..\Cypress-PSOC-OLED-master\Cypress-PSOC-OLED-master\OLED.cydsn/ssd1306.c ****                 }
 612:..\..\Cypress-PSOC-OLED-master\Cypress-PSOC-OLED-master\OLED.cydsn/ssd1306.c ****             }
 613:..\..\Cypress-PSOC-OLED-master\Cypress-PSOC-OLED-master\OLED.cydsn/ssd1306.c ****             line >>= 1;
 2454              		.loc 1 613 0 discriminator 2
 2455 00e4 6D08     		lsrs	r5, r5, #1
 2456              	.LVL262:
 599:..\..\Cypress-PSOC-OLED-master\Cypress-PSOC-OLED-master\OLED.cydsn/ssd1306.c ****             if( line & 0x1 ){
 2457              		.loc 1 599 0 discriminator 2
 2458 00e6 0134     		adds	r4, r4, #1
 2459              	.LVL263:
 2460 00e8 64B2     		sxtb	r4, r4
 2461              	.LVL264:
 2462              	.L147:
 599:..\..\Cypress-PSOC-OLED-master\Cypress-PSOC-OLED-master\OLED.cydsn/ssd1306.c ****             if( line & 0x1 ){
 2463              		.loc 1 599 0 is_stmt 0 discriminator 1
ARM GAS  C:\Users\boise\AppData\Local\Temp\ccDu5XGS.s 			page 57


 2464 00ea 072C     		cmp	r4, #7
 2465 00ec C0DD     		ble	.L152
 2466 00ee 3B00     		movs	r3, r7
 2467 00f0 4746     		mov	r7, r8
 2468 00f2 9846     		mov	r8, r3
 2469              	.LBE7:
 592:..\..\Cypress-PSOC-OLED-master\Cypress-PSOC-OLED-master\OLED.cydsn/ssd1306.c ****         uint8_t line;
 2470              		.loc 1 592 0 is_stmt 1 discriminator 2
 2471 00f4 0137     		adds	r7, r7, #1
 2472 00f6 7FB2     		sxtb	r7, r7
 2473              	.LVL265:
 2474              	.L145:
 592:..\..\Cypress-PSOC-OLED-master\Cypress-PSOC-OLED-master\OLED.cydsn/ssd1306.c ****         uint8_t line;
 2475              		.loc 1 592 0 is_stmt 0 discriminator 1
 2476 00f8 052F     		cmp	r7, #5
 2477 00fa A7DD     		ble	.L153
 2478              	.LVL266:
 2479              	.L143:
 614:..\..\Cypress-PSOC-OLED-master\Cypress-PSOC-OLED-master\OLED.cydsn/ssd1306.c ****         }
 615:..\..\Cypress-PSOC-OLED-master\Cypress-PSOC-OLED-master\OLED.cydsn/ssd1306.c ****     }
 616:..\..\Cypress-PSOC-OLED-master\Cypress-PSOC-OLED-master\OLED.cydsn/ssd1306.c **** }
 2480              		.loc 1 616 0 is_stmt 1
 2481 00fc 05B0     		add	sp, sp, #20
 2482              		@ sp needed
 2483 00fe 3CBC     		pop	{r2, r3, r4, r5}
 2484 0100 9046     		mov	r8, r2
 2485 0102 9946     		mov	r9, r3
 2486 0104 A246     		mov	r10, r4
 2487 0106 AB46     		mov	fp, r5
 2488 0108 F0BD     		pop	{r4, r5, r6, r7, pc}
 2489              	.L156:
 2490 010a C046     		.align	2
 2491              	.L155:
 2492 010c 00000000 		.word	.LANCHOR1
 2493 0110 00000000 		.word	.LANCHOR2
 2494              		.cfi_endproc
 2495              	.LFE60:
 2496              		.size	gfx_drawChar, .-gfx_drawChar
 2497              		.section	.text.gfx_write,"ax",%progbits
 2498              		.align	2
 2499              		.global	gfx_write
 2500              		.code	16
 2501              		.thumb_func
 2502              		.type	gfx_write, %function
 2503              	gfx_write:
 2504              	.LFB61:
 617:..\..\Cypress-PSOC-OLED-master\Cypress-PSOC-OLED-master\OLED.cydsn/ssd1306.c **** 
 618:..\..\Cypress-PSOC-OLED-master\Cypress-PSOC-OLED-master\OLED.cydsn/ssd1306.c **** void gfx_write( uint8_t ch ){
 2505              		.loc 1 618 0
 2506              		.cfi_startproc
 2507              		@ args = 0, pretend = 0, frame = 0
 2508              		@ frame_needed = 0, uses_anonymous_args = 0
 2509              	.LVL267:
 2510 0000 30B5     		push	{r4, r5, lr}
 2511              		.cfi_def_cfa_offset 12
 2512              		.cfi_offset 4, -12
 2513              		.cfi_offset 5, -8
ARM GAS  C:\Users\boise\AppData\Local\Temp\ccDu5XGS.s 			page 58


 2514              		.cfi_offset 14, -4
 2515 0002 83B0     		sub	sp, sp, #12
 2516              		.cfi_def_cfa_offset 24
 619:..\..\Cypress-PSOC-OLED-master\Cypress-PSOC-OLED-master\OLED.cydsn/ssd1306.c ****     if( ch == '\n' ){
 2517              		.loc 1 619 0
 2518 0004 0A28     		cmp	r0, #10
 2519 0006 08D1     		bne	.L158
 620:..\..\Cypress-PSOC-OLED-master\Cypress-PSOC-OLED-master\OLED.cydsn/ssd1306.c ****         cursor_y += textsize*8;
 2520              		.loc 1 620 0
 2521 0008 1B4B     		ldr	r3, .L160
 2522 000a 9A7A     		ldrb	r2, [r3, #10]
 2523 000c D200     		lsls	r2, r2, #3
 2524 000e 1989     		ldrh	r1, [r3, #8]
 2525 0010 5218     		adds	r2, r2, r1
 2526 0012 1A81     		strh	r2, [r3, #8]
 621:..\..\Cypress-PSOC-OLED-master\Cypress-PSOC-OLED-master\OLED.cydsn/ssd1306.c ****         cursor_x = 0;
 2527              		.loc 1 621 0
 2528 0014 0022     		movs	r2, #0
 2529 0016 DA80     		strh	r2, [r3, #6]
 2530 0018 2CE0     		b	.L157
 2531              	.L158:
 622:..\..\Cypress-PSOC-OLED-master\Cypress-PSOC-OLED-master\OLED.cydsn/ssd1306.c ****     }else if( ch == '\r' ){
 2532              		.loc 1 622 0
 2533 001a 0D28     		cmp	r0, #13
 2534 001c 2AD0     		beq	.L157
 623:..\..\Cypress-PSOC-OLED-master\Cypress-PSOC-OLED-master\OLED.cydsn/ssd1306.c ****         // skip em
 624:..\..\Cypress-PSOC-OLED-master\Cypress-PSOC-OLED-master\OLED.cydsn/ssd1306.c ****     }else{
 625:..\..\Cypress-PSOC-OLED-master\Cypress-PSOC-OLED-master\OLED.cydsn/ssd1306.c ****         gfx_drawChar(cursor_x, cursor_y, ch, textcolor, textbgcolor, textsize);
 2535              		.loc 1 625 0
 2536 001e 164C     		ldr	r4, .L160
 2537 0020 E389     		ldrh	r3, [r4, #14]
 2538 0022 0822     		movs	r2, #8
 2539 0024 A15E     		ldrsh	r1, [r4, r2]
 2540 0026 0622     		movs	r2, #6
 2541 0028 A55E     		ldrsh	r5, [r4, r2]
 2542 002a A27A     		ldrb	r2, [r4, #10]
 2543 002c 0192     		str	r2, [sp, #4]
 2544 002e A289     		ldrh	r2, [r4, #12]
 2545 0030 0092     		str	r2, [sp]
 2546 0032 0200     		movs	r2, r0
 2547 0034 2800     		movs	r0, r5
 2548              	.LVL268:
 2549 0036 FFF7FEFF 		bl	gfx_drawChar
 2550              	.LVL269:
 626:..\..\Cypress-PSOC-OLED-master\Cypress-PSOC-OLED-master\OLED.cydsn/ssd1306.c ****         cursor_x += textsize*6;
 2551              		.loc 1 626 0
 2552 003a A27A     		ldrb	r2, [r4, #10]
 2553 003c 90B2     		uxth	r0, r2
 2554 003e 4100     		lsls	r1, r0, #1
 2555 0040 4118     		adds	r1, r0, r1
 2556 0042 4D00     		lsls	r5, r1, #1
 2557 0044 E388     		ldrh	r3, [r4, #6]
 2558 0046 EB18     		adds	r3, r5, r3
 2559 0048 1BB2     		sxth	r3, r3
 2560 004a E380     		strh	r3, [r4, #6]
 627:..\..\Cypress-PSOC-OLED-master\Cypress-PSOC-OLED-master\OLED.cydsn/ssd1306.c ****         if( wrap && (cursor_x > (_width - textsize*6)) ){
 2561              		.loc 1 627 0
ARM GAS  C:\Users\boise\AppData\Local\Temp\ccDu5XGS.s 			page 59


 2562 004c 0B49     		ldr	r1, .L160+4
 2563 004e 0978     		ldrb	r1, [r1]
 2564 0050 0029     		cmp	r1, #0
 2565 0052 0FD0     		beq	.L157
 2566              		.loc 1 627 0 is_stmt 0 discriminator 1
 2567 0054 9100     		lsls	r1, r2, #2
 2568 0056 521A     		subs	r2, r2, r1
 2569 0058 5100     		lsls	r1, r2, #1
 2570 005a 074A     		ldr	r2, .L160
 2571 005c 0224     		movs	r4, #2
 2572 005e 125F     		ldrsh	r2, [r2, r4]
 2573 0060 5118     		adds	r1, r2, r1
 2574 0062 8B42     		cmp	r3, r1
 2575 0064 06DD     		ble	.L157
 628:..\..\Cypress-PSOC-OLED-master\Cypress-PSOC-OLED-master\OLED.cydsn/ssd1306.c ****             cursor_y += textsize*8;
 2576              		.loc 1 628 0 is_stmt 1
 2577 0066 044B     		ldr	r3, .L160
 2578 0068 C000     		lsls	r0, r0, #3
 2579 006a 1A89     		ldrh	r2, [r3, #8]
 2580 006c 8018     		adds	r0, r0, r2
 2581 006e 1881     		strh	r0, [r3, #8]
 629:..\..\Cypress-PSOC-OLED-master\Cypress-PSOC-OLED-master\OLED.cydsn/ssd1306.c ****             cursor_x = 0;
 2582              		.loc 1 629 0
 2583 0070 0022     		movs	r2, #0
 2584 0072 DA80     		strh	r2, [r3, #6]
 2585              	.L157:
 630:..\..\Cypress-PSOC-OLED-master\Cypress-PSOC-OLED-master\OLED.cydsn/ssd1306.c ****         }
 631:..\..\Cypress-PSOC-OLED-master\Cypress-PSOC-OLED-master\OLED.cydsn/ssd1306.c ****     }
 632:..\..\Cypress-PSOC-OLED-master\Cypress-PSOC-OLED-master\OLED.cydsn/ssd1306.c **** }
 2586              		.loc 1 632 0
 2587 0074 03B0     		add	sp, sp, #12
 2588              		@ sp needed
 2589 0076 30BD     		pop	{r4, r5, pc}
 2590              	.L161:
 2591              		.align	2
 2592              	.L160:
 2593 0078 00000000 		.word	.LANCHOR1
 2594 007c 00000000 		.word	wrap
 2595              		.cfi_endproc
 2596              	.LFE61:
 2597              		.size	gfx_write, .-gfx_write
 2598              		.section	.text.gfx_print,"ax",%progbits
 2599              		.align	2
 2600              		.global	gfx_print
 2601              		.code	16
 2602              		.thumb_func
 2603              		.type	gfx_print, %function
 2604              	gfx_print:
 2605              	.LFB62:
 633:..\..\Cypress-PSOC-OLED-master\Cypress-PSOC-OLED-master\OLED.cydsn/ssd1306.c **** 
 634:..\..\Cypress-PSOC-OLED-master\Cypress-PSOC-OLED-master\OLED.cydsn/ssd1306.c **** void gfx_print( const char* s ){
 2606              		.loc 1 634 0
 2607              		.cfi_startproc
 2608              		@ args = 0, pretend = 0, frame = 0
 2609              		@ frame_needed = 0, uses_anonymous_args = 0
 2610              	.LVL270:
 2611 0000 70B5     		push	{r4, r5, r6, lr}
ARM GAS  C:\Users\boise\AppData\Local\Temp\ccDu5XGS.s 			page 60


 2612              		.cfi_def_cfa_offset 16
 2613              		.cfi_offset 4, -16
 2614              		.cfi_offset 5, -12
 2615              		.cfi_offset 6, -8
 2616              		.cfi_offset 14, -4
 2617 0002 0600     		movs	r6, r0
 635:..\..\Cypress-PSOC-OLED-master\Cypress-PSOC-OLED-master\OLED.cydsn/ssd1306.c ****     
 636:..\..\Cypress-PSOC-OLED-master\Cypress-PSOC-OLED-master\OLED.cydsn/ssd1306.c ****     unsigned int len = strlen( s );
 2618              		.loc 1 636 0
 2619 0004 FFF7FEFF 		bl	strlen
 2620              	.LVL271:
 2621 0008 0500     		movs	r5, r0
 2622              	.LVL272:
 637:..\..\Cypress-PSOC-OLED-master\Cypress-PSOC-OLED-master\OLED.cydsn/ssd1306.c ****     unsigned int i = 0; 
 638:..\..\Cypress-PSOC-OLED-master\Cypress-PSOC-OLED-master\OLED.cydsn/ssd1306.c ****     for( i = 0 ; i < len ; i++ ){
 2623              		.loc 1 638 0
 2624 000a 0024     		movs	r4, #0
 2625 000c 03E0     		b	.L163
 2626              	.LVL273:
 2627              	.L164:
 639:..\..\Cypress-PSOC-OLED-master\Cypress-PSOC-OLED-master\OLED.cydsn/ssd1306.c ****         gfx_write( s[i] );
 2628              		.loc 1 639 0 discriminator 3
 2629 000e 305D     		ldrb	r0, [r6, r4]
 2630 0010 FFF7FEFF 		bl	gfx_write
 2631              	.LVL274:
 638:..\..\Cypress-PSOC-OLED-master\Cypress-PSOC-OLED-master\OLED.cydsn/ssd1306.c ****         gfx_write( s[i] );
 2632              		.loc 1 638 0 discriminator 3
 2633 0014 0134     		adds	r4, r4, #1
 2634              	.LVL275:
 2635              	.L163:
 638:..\..\Cypress-PSOC-OLED-master\Cypress-PSOC-OLED-master\OLED.cydsn/ssd1306.c ****         gfx_write( s[i] );
 2636              		.loc 1 638 0 is_stmt 0 discriminator 1
 2637 0016 AC42     		cmp	r4, r5
 2638 0018 F9D3     		bcc	.L164
 640:..\..\Cypress-PSOC-OLED-master\Cypress-PSOC-OLED-master\OLED.cydsn/ssd1306.c ****     }
 641:..\..\Cypress-PSOC-OLED-master\Cypress-PSOC-OLED-master\OLED.cydsn/ssd1306.c **** }
 2639              		.loc 1 641 0 is_stmt 1
 2640              		@ sp needed
 2641              	.LVL276:
 2642              	.LVL277:
 2643              	.LVL278:
 2644 001a 70BD     		pop	{r4, r5, r6, pc}
 2645              		.cfi_endproc
 2646              	.LFE62:
 2647              		.size	gfx_print, .-gfx_print
 2648              		.section	.text.gfx_println,"ax",%progbits
 2649              		.align	2
 2650              		.global	gfx_println
 2651              		.code	16
 2652              		.thumb_func
 2653              		.type	gfx_println, %function
 2654              	gfx_println:
 2655              	.LFB63:
 642:..\..\Cypress-PSOC-OLED-master\Cypress-PSOC-OLED-master\OLED.cydsn/ssd1306.c **** 
 643:..\..\Cypress-PSOC-OLED-master\Cypress-PSOC-OLED-master\OLED.cydsn/ssd1306.c **** void gfx_println( const char* s ){ 
 2656              		.loc 1 643 0
 2657              		.cfi_startproc
ARM GAS  C:\Users\boise\AppData\Local\Temp\ccDu5XGS.s 			page 61


 2658              		@ args = 0, pretend = 0, frame = 0
 2659              		@ frame_needed = 0, uses_anonymous_args = 0
 2660              	.LVL279:
 2661 0000 10B5     		push	{r4, lr}
 2662              		.cfi_def_cfa_offset 8
 2663              		.cfi_offset 4, -8
 2664              		.cfi_offset 14, -4
 644:..\..\Cypress-PSOC-OLED-master\Cypress-PSOC-OLED-master\OLED.cydsn/ssd1306.c ****     gfx_print( s ); 
 2665              		.loc 1 644 0
 2666 0002 FFF7FEFF 		bl	gfx_print
 2667              	.LVL280:
 645:..\..\Cypress-PSOC-OLED-master\Cypress-PSOC-OLED-master\OLED.cydsn/ssd1306.c ****     gfx_write( '\n' );
 2668              		.loc 1 645 0
 2669 0006 0A20     		movs	r0, #10
 2670 0008 FFF7FEFF 		bl	gfx_write
 2671              	.LVL281:
 646:..\..\Cypress-PSOC-OLED-master\Cypress-PSOC-OLED-master\OLED.cydsn/ssd1306.c **** }
 2672              		.loc 1 646 0
 2673              		@ sp needed
 2674 000c 10BD     		pop	{r4, pc}
 2675              		.cfi_endproc
 2676              	.LFE63:
 2677              		.size	gfx_println, .-gfx_println
 2678              		.comm	wrap,1,1
 2679              		.comm	rotation,1,1
 2680              		.comm	HEIGHT,2,2
 2681              		.comm	WIDTH,2,2
 2682 000e C046     		.section	.rodata
 2683              		.align	2
 2684              		.set	.LANCHOR2,. + 0
 2685              	.LC1:
 2686 0000 00       		.byte	0
 2687 0001 21       		.byte	33
 2688 0002 00       		.byte	0
 2689 0003 7F       		.byte	127
 2690 0004 22       		.byte	34
 2691 0005 00       		.byte	0
 2692 0006 07       		.byte	7
 2693 0007 00       		.space	1
 2694              	.LC0:
 2695 0008 00       		.byte	0
 2696 0009 AE       		.byte	-82
 2697 000a D5       		.byte	-43
 2698 000b 80       		.byte	-128
 2699 000c A8       		.byte	-88
 2700 000d 3F       		.byte	63
 2701 000e D3       		.byte	-45
 2702 000f 00       		.byte	0
 2703 0010 40       		.byte	64
 2704 0011 8D       		.byte	-115
 2705 0012 14       		.byte	20
 2706 0013 20       		.byte	32
 2707 0014 00       		.byte	0
 2708 0015 A1       		.byte	-95
 2709 0016 C8       		.byte	-56
 2710 0017 DA       		.byte	-38
 2711 0018 12       		.byte	18
ARM GAS  C:\Users\boise\AppData\Local\Temp\ccDu5XGS.s 			page 62


 2712 0019 81       		.byte	-127
 2713 001a CF       		.byte	-49
 2714 001b D9       		.byte	-39
 2715 001c F1       		.byte	-15
 2716 001d DB       		.byte	-37
 2717 001e 40       		.byte	64
 2718 001f A4       		.byte	-92
 2719 0020 A6       		.byte	-90
 2720 0021 AF       		.byte	-81
 2721 0022 0000     		.space	2
 2722              		.type	font, %object
 2723              		.size	font, 1275
 2724              	font:
 2725 0024 00       		.byte	0
 2726 0025 00       		.byte	0
 2727 0026 00       		.byte	0
 2728 0027 00       		.byte	0
 2729 0028 00       		.byte	0
 2730 0029 3E       		.byte	62
 2731 002a 5B       		.byte	91
 2732 002b 4F       		.byte	79
 2733 002c 5B       		.byte	91
 2734 002d 3E       		.byte	62
 2735 002e 3E       		.byte	62
 2736 002f 6B       		.byte	107
 2737 0030 4F       		.byte	79
 2738 0031 6B       		.byte	107
 2739 0032 3E       		.byte	62
 2740 0033 1C       		.byte	28
 2741 0034 3E       		.byte	62
 2742 0035 7C       		.byte	124
 2743 0036 3E       		.byte	62
 2744 0037 1C       		.byte	28
 2745 0038 18       		.byte	24
 2746 0039 3C       		.byte	60
 2747 003a 7E       		.byte	126
 2748 003b 3C       		.byte	60
 2749 003c 18       		.byte	24
 2750 003d 1C       		.byte	28
 2751 003e 57       		.byte	87
 2752 003f 7D       		.byte	125
 2753 0040 57       		.byte	87
 2754 0041 1C       		.byte	28
 2755 0042 1C       		.byte	28
 2756 0043 5E       		.byte	94
 2757 0044 7F       		.byte	127
 2758 0045 5E       		.byte	94
 2759 0046 1C       		.byte	28
 2760 0047 00       		.byte	0
 2761 0048 18       		.byte	24
 2762 0049 3C       		.byte	60
 2763 004a 18       		.byte	24
 2764 004b 00       		.byte	0
 2765 004c FF       		.byte	-1
 2766 004d E7       		.byte	-25
 2767 004e C3       		.byte	-61
 2768 004f E7       		.byte	-25
ARM GAS  C:\Users\boise\AppData\Local\Temp\ccDu5XGS.s 			page 63


 2769 0050 FF       		.byte	-1
 2770 0051 00       		.byte	0
 2771 0052 18       		.byte	24
 2772 0053 24       		.byte	36
 2773 0054 18       		.byte	24
 2774 0055 00       		.byte	0
 2775 0056 FF       		.byte	-1
 2776 0057 E7       		.byte	-25
 2777 0058 DB       		.byte	-37
 2778 0059 E7       		.byte	-25
 2779 005a FF       		.byte	-1
 2780 005b 30       		.byte	48
 2781 005c 48       		.byte	72
 2782 005d 3A       		.byte	58
 2783 005e 06       		.byte	6
 2784 005f 0E       		.byte	14
 2785 0060 26       		.byte	38
 2786 0061 29       		.byte	41
 2787 0062 79       		.byte	121
 2788 0063 29       		.byte	41
 2789 0064 26       		.byte	38
 2790 0065 40       		.byte	64
 2791 0066 7F       		.byte	127
 2792 0067 05       		.byte	5
 2793 0068 05       		.byte	5
 2794 0069 07       		.byte	7
 2795 006a 40       		.byte	64
 2796 006b 7F       		.byte	127
 2797 006c 05       		.byte	5
 2798 006d 25       		.byte	37
 2799 006e 3F       		.byte	63
 2800 006f 5A       		.byte	90
 2801 0070 3C       		.byte	60
 2802 0071 E7       		.byte	-25
 2803 0072 3C       		.byte	60
 2804 0073 5A       		.byte	90
 2805 0074 7F       		.byte	127
 2806 0075 3E       		.byte	62
 2807 0076 1C       		.byte	28
 2808 0077 1C       		.byte	28
 2809 0078 08       		.byte	8
 2810 0079 08       		.byte	8
 2811 007a 1C       		.byte	28
 2812 007b 1C       		.byte	28
 2813 007c 3E       		.byte	62
 2814 007d 7F       		.byte	127
 2815 007e 14       		.byte	20
 2816 007f 22       		.byte	34
 2817 0080 7F       		.byte	127
 2818 0081 22       		.byte	34
 2819 0082 14       		.byte	20
 2820 0083 5F       		.byte	95
 2821 0084 5F       		.byte	95
 2822 0085 00       		.byte	0
 2823 0086 5F       		.byte	95
 2824 0087 5F       		.byte	95
 2825 0088 06       		.byte	6
ARM GAS  C:\Users\boise\AppData\Local\Temp\ccDu5XGS.s 			page 64


 2826 0089 09       		.byte	9
 2827 008a 7F       		.byte	127
 2828 008b 01       		.byte	1
 2829 008c 7F       		.byte	127
 2830 008d 00       		.byte	0
 2831 008e 66       		.byte	102
 2832 008f 89       		.byte	-119
 2833 0090 95       		.byte	-107
 2834 0091 6A       		.byte	106
 2835 0092 60       		.byte	96
 2836 0093 60       		.byte	96
 2837 0094 60       		.byte	96
 2838 0095 60       		.byte	96
 2839 0096 60       		.byte	96
 2840 0097 94       		.byte	-108
 2841 0098 A2       		.byte	-94
 2842 0099 FF       		.byte	-1
 2843 009a A2       		.byte	-94
 2844 009b 94       		.byte	-108
 2845 009c 08       		.byte	8
 2846 009d 04       		.byte	4
 2847 009e 7E       		.byte	126
 2848 009f 04       		.byte	4
 2849 00a0 08       		.byte	8
 2850 00a1 10       		.byte	16
 2851 00a2 20       		.byte	32
 2852 00a3 7E       		.byte	126
 2853 00a4 20       		.byte	32
 2854 00a5 10       		.byte	16
 2855 00a6 08       		.byte	8
 2856 00a7 08       		.byte	8
 2857 00a8 2A       		.byte	42
 2858 00a9 1C       		.byte	28
 2859 00aa 08       		.byte	8
 2860 00ab 08       		.byte	8
 2861 00ac 1C       		.byte	28
 2862 00ad 2A       		.byte	42
 2863 00ae 08       		.byte	8
 2864 00af 08       		.byte	8
 2865 00b0 1E       		.byte	30
 2866 00b1 10       		.byte	16
 2867 00b2 10       		.byte	16
 2868 00b3 10       		.byte	16
 2869 00b4 10       		.byte	16
 2870 00b5 0C       		.byte	12
 2871 00b6 1E       		.byte	30
 2872 00b7 0C       		.byte	12
 2873 00b8 1E       		.byte	30
 2874 00b9 0C       		.byte	12
 2875 00ba 30       		.byte	48
 2876 00bb 38       		.byte	56
 2877 00bc 3E       		.byte	62
 2878 00bd 38       		.byte	56
 2879 00be 30       		.byte	48
 2880 00bf 06       		.byte	6
 2881 00c0 0E       		.byte	14
 2882 00c1 3E       		.byte	62
ARM GAS  C:\Users\boise\AppData\Local\Temp\ccDu5XGS.s 			page 65


 2883 00c2 0E       		.byte	14
 2884 00c3 06       		.byte	6
 2885 00c4 00       		.byte	0
 2886 00c5 00       		.byte	0
 2887 00c6 00       		.byte	0
 2888 00c7 00       		.byte	0
 2889 00c8 00       		.byte	0
 2890 00c9 00       		.byte	0
 2891 00ca 00       		.byte	0
 2892 00cb 5F       		.byte	95
 2893 00cc 00       		.byte	0
 2894 00cd 00       		.byte	0
 2895 00ce 00       		.byte	0
 2896 00cf 07       		.byte	7
 2897 00d0 00       		.byte	0
 2898 00d1 07       		.byte	7
 2899 00d2 00       		.byte	0
 2900 00d3 14       		.byte	20
 2901 00d4 7F       		.byte	127
 2902 00d5 14       		.byte	20
 2903 00d6 7F       		.byte	127
 2904 00d7 14       		.byte	20
 2905 00d8 24       		.byte	36
 2906 00d9 2A       		.byte	42
 2907 00da 7F       		.byte	127
 2908 00db 2A       		.byte	42
 2909 00dc 12       		.byte	18
 2910 00dd 23       		.byte	35
 2911 00de 13       		.byte	19
 2912 00df 08       		.byte	8
 2913 00e0 64       		.byte	100
 2914 00e1 62       		.byte	98
 2915 00e2 36       		.byte	54
 2916 00e3 49       		.byte	73
 2917 00e4 56       		.byte	86
 2918 00e5 20       		.byte	32
 2919 00e6 50       		.byte	80
 2920 00e7 00       		.byte	0
 2921 00e8 08       		.byte	8
 2922 00e9 07       		.byte	7
 2923 00ea 03       		.byte	3
 2924 00eb 00       		.byte	0
 2925 00ec 00       		.byte	0
 2926 00ed 1C       		.byte	28
 2927 00ee 22       		.byte	34
 2928 00ef 41       		.byte	65
 2929 00f0 00       		.byte	0
 2930 00f1 00       		.byte	0
 2931 00f2 41       		.byte	65
 2932 00f3 22       		.byte	34
 2933 00f4 1C       		.byte	28
 2934 00f5 00       		.byte	0
 2935 00f6 2A       		.byte	42
 2936 00f7 1C       		.byte	28
 2937 00f8 7F       		.byte	127
 2938 00f9 1C       		.byte	28
 2939 00fa 2A       		.byte	42
ARM GAS  C:\Users\boise\AppData\Local\Temp\ccDu5XGS.s 			page 66


 2940 00fb 08       		.byte	8
 2941 00fc 08       		.byte	8
 2942 00fd 3E       		.byte	62
 2943 00fe 08       		.byte	8
 2944 00ff 08       		.byte	8
 2945 0100 00       		.byte	0
 2946 0101 80       		.byte	-128
 2947 0102 70       		.byte	112
 2948 0103 30       		.byte	48
 2949 0104 00       		.byte	0
 2950 0105 08       		.byte	8
 2951 0106 08       		.byte	8
 2952 0107 08       		.byte	8
 2953 0108 08       		.byte	8
 2954 0109 08       		.byte	8
 2955 010a 00       		.byte	0
 2956 010b 00       		.byte	0
 2957 010c 60       		.byte	96
 2958 010d 60       		.byte	96
 2959 010e 00       		.byte	0
 2960 010f 20       		.byte	32
 2961 0110 10       		.byte	16
 2962 0111 08       		.byte	8
 2963 0112 04       		.byte	4
 2964 0113 02       		.byte	2
 2965 0114 3E       		.byte	62
 2966 0115 51       		.byte	81
 2967 0116 49       		.byte	73
 2968 0117 45       		.byte	69
 2969 0118 3E       		.byte	62
 2970 0119 00       		.byte	0
 2971 011a 42       		.byte	66
 2972 011b 7F       		.byte	127
 2973 011c 40       		.byte	64
 2974 011d 00       		.byte	0
 2975 011e 72       		.byte	114
 2976 011f 49       		.byte	73
 2977 0120 49       		.byte	73
 2978 0121 49       		.byte	73
 2979 0122 46       		.byte	70
 2980 0123 21       		.byte	33
 2981 0124 41       		.byte	65
 2982 0125 49       		.byte	73
 2983 0126 4D       		.byte	77
 2984 0127 33       		.byte	51
 2985 0128 18       		.byte	24
 2986 0129 14       		.byte	20
 2987 012a 12       		.byte	18
 2988 012b 7F       		.byte	127
 2989 012c 10       		.byte	16
 2990 012d 27       		.byte	39
 2991 012e 45       		.byte	69
 2992 012f 45       		.byte	69
 2993 0130 45       		.byte	69
 2994 0131 39       		.byte	57
 2995 0132 3C       		.byte	60
 2996 0133 4A       		.byte	74
ARM GAS  C:\Users\boise\AppData\Local\Temp\ccDu5XGS.s 			page 67


 2997 0134 49       		.byte	73
 2998 0135 49       		.byte	73
 2999 0136 31       		.byte	49
 3000 0137 41       		.byte	65
 3001 0138 21       		.byte	33
 3002 0139 11       		.byte	17
 3003 013a 09       		.byte	9
 3004 013b 07       		.byte	7
 3005 013c 36       		.byte	54
 3006 013d 49       		.byte	73
 3007 013e 49       		.byte	73
 3008 013f 49       		.byte	73
 3009 0140 36       		.byte	54
 3010 0141 46       		.byte	70
 3011 0142 49       		.byte	73
 3012 0143 49       		.byte	73
 3013 0144 29       		.byte	41
 3014 0145 1E       		.byte	30
 3015 0146 00       		.byte	0
 3016 0147 00       		.byte	0
 3017 0148 14       		.byte	20
 3018 0149 00       		.byte	0
 3019 014a 00       		.byte	0
 3020 014b 00       		.byte	0
 3021 014c 40       		.byte	64
 3022 014d 34       		.byte	52
 3023 014e 00       		.byte	0
 3024 014f 00       		.byte	0
 3025 0150 00       		.byte	0
 3026 0151 08       		.byte	8
 3027 0152 14       		.byte	20
 3028 0153 22       		.byte	34
 3029 0154 41       		.byte	65
 3030 0155 14       		.byte	20
 3031 0156 14       		.byte	20
 3032 0157 14       		.byte	20
 3033 0158 14       		.byte	20
 3034 0159 14       		.byte	20
 3035 015a 00       		.byte	0
 3036 015b 41       		.byte	65
 3037 015c 22       		.byte	34
 3038 015d 14       		.byte	20
 3039 015e 08       		.byte	8
 3040 015f 02       		.byte	2
 3041 0160 01       		.byte	1
 3042 0161 59       		.byte	89
 3043 0162 09       		.byte	9
 3044 0163 06       		.byte	6
 3045 0164 3E       		.byte	62
 3046 0165 41       		.byte	65
 3047 0166 5D       		.byte	93
 3048 0167 59       		.byte	89
 3049 0168 4E       		.byte	78
 3050 0169 7C       		.byte	124
 3051 016a 12       		.byte	18
 3052 016b 11       		.byte	17
 3053 016c 12       		.byte	18
ARM GAS  C:\Users\boise\AppData\Local\Temp\ccDu5XGS.s 			page 68


 3054 016d 7C       		.byte	124
 3055 016e 7F       		.byte	127
 3056 016f 49       		.byte	73
 3057 0170 49       		.byte	73
 3058 0171 49       		.byte	73
 3059 0172 36       		.byte	54
 3060 0173 3E       		.byte	62
 3061 0174 41       		.byte	65
 3062 0175 41       		.byte	65
 3063 0176 41       		.byte	65
 3064 0177 22       		.byte	34
 3065 0178 7F       		.byte	127
 3066 0179 41       		.byte	65
 3067 017a 41       		.byte	65
 3068 017b 41       		.byte	65
 3069 017c 3E       		.byte	62
 3070 017d 7F       		.byte	127
 3071 017e 49       		.byte	73
 3072 017f 49       		.byte	73
 3073 0180 49       		.byte	73
 3074 0181 41       		.byte	65
 3075 0182 7F       		.byte	127
 3076 0183 09       		.byte	9
 3077 0184 09       		.byte	9
 3078 0185 09       		.byte	9
 3079 0186 01       		.byte	1
 3080 0187 3E       		.byte	62
 3081 0188 41       		.byte	65
 3082 0189 41       		.byte	65
 3083 018a 51       		.byte	81
 3084 018b 73       		.byte	115
 3085 018c 7F       		.byte	127
 3086 018d 08       		.byte	8
 3087 018e 08       		.byte	8
 3088 018f 08       		.byte	8
 3089 0190 7F       		.byte	127
 3090 0191 00       		.byte	0
 3091 0192 41       		.byte	65
 3092 0193 7F       		.byte	127
 3093 0194 41       		.byte	65
 3094 0195 00       		.byte	0
 3095 0196 20       		.byte	32
 3096 0197 40       		.byte	64
 3097 0198 41       		.byte	65
 3098 0199 3F       		.byte	63
 3099 019a 01       		.byte	1
 3100 019b 7F       		.byte	127
 3101 019c 08       		.byte	8
 3102 019d 14       		.byte	20
 3103 019e 22       		.byte	34
 3104 019f 41       		.byte	65
 3105 01a0 7F       		.byte	127
 3106 01a1 40       		.byte	64
 3107 01a2 40       		.byte	64
 3108 01a3 40       		.byte	64
 3109 01a4 40       		.byte	64
 3110 01a5 7F       		.byte	127
ARM GAS  C:\Users\boise\AppData\Local\Temp\ccDu5XGS.s 			page 69


 3111 01a6 02       		.byte	2
 3112 01a7 1C       		.byte	28
 3113 01a8 02       		.byte	2
 3114 01a9 7F       		.byte	127
 3115 01aa 7F       		.byte	127
 3116 01ab 04       		.byte	4
 3117 01ac 08       		.byte	8
 3118 01ad 10       		.byte	16
 3119 01ae 7F       		.byte	127
 3120 01af 3E       		.byte	62
 3121 01b0 41       		.byte	65
 3122 01b1 41       		.byte	65
 3123 01b2 41       		.byte	65
 3124 01b3 3E       		.byte	62
 3125 01b4 7F       		.byte	127
 3126 01b5 09       		.byte	9
 3127 01b6 09       		.byte	9
 3128 01b7 09       		.byte	9
 3129 01b8 06       		.byte	6
 3130 01b9 3E       		.byte	62
 3131 01ba 41       		.byte	65
 3132 01bb 51       		.byte	81
 3133 01bc 21       		.byte	33
 3134 01bd 5E       		.byte	94
 3135 01be 7F       		.byte	127
 3136 01bf 09       		.byte	9
 3137 01c0 19       		.byte	25
 3138 01c1 29       		.byte	41
 3139 01c2 46       		.byte	70
 3140 01c3 26       		.byte	38
 3141 01c4 49       		.byte	73
 3142 01c5 49       		.byte	73
 3143 01c6 49       		.byte	73
 3144 01c7 32       		.byte	50
 3145 01c8 03       		.byte	3
 3146 01c9 01       		.byte	1
 3147 01ca 7F       		.byte	127
 3148 01cb 01       		.byte	1
 3149 01cc 03       		.byte	3
 3150 01cd 3F       		.byte	63
 3151 01ce 40       		.byte	64
 3152 01cf 40       		.byte	64
 3153 01d0 40       		.byte	64
 3154 01d1 3F       		.byte	63
 3155 01d2 1F       		.byte	31
 3156 01d3 20       		.byte	32
 3157 01d4 40       		.byte	64
 3158 01d5 20       		.byte	32
 3159 01d6 1F       		.byte	31
 3160 01d7 3F       		.byte	63
 3161 01d8 40       		.byte	64
 3162 01d9 38       		.byte	56
 3163 01da 40       		.byte	64
 3164 01db 3F       		.byte	63
 3165 01dc 63       		.byte	99
 3166 01dd 14       		.byte	20
 3167 01de 08       		.byte	8
ARM GAS  C:\Users\boise\AppData\Local\Temp\ccDu5XGS.s 			page 70


 3168 01df 14       		.byte	20
 3169 01e0 63       		.byte	99
 3170 01e1 03       		.byte	3
 3171 01e2 04       		.byte	4
 3172 01e3 78       		.byte	120
 3173 01e4 04       		.byte	4
 3174 01e5 03       		.byte	3
 3175 01e6 61       		.byte	97
 3176 01e7 59       		.byte	89
 3177 01e8 49       		.byte	73
 3178 01e9 4D       		.byte	77
 3179 01ea 43       		.byte	67
 3180 01eb 00       		.byte	0
 3181 01ec 7F       		.byte	127
 3182 01ed 41       		.byte	65
 3183 01ee 41       		.byte	65
 3184 01ef 41       		.byte	65
 3185 01f0 02       		.byte	2
 3186 01f1 04       		.byte	4
 3187 01f2 08       		.byte	8
 3188 01f3 10       		.byte	16
 3189 01f4 20       		.byte	32
 3190 01f5 00       		.byte	0
 3191 01f6 41       		.byte	65
 3192 01f7 41       		.byte	65
 3193 01f8 41       		.byte	65
 3194 01f9 7F       		.byte	127
 3195 01fa 04       		.byte	4
 3196 01fb 02       		.byte	2
 3197 01fc 01       		.byte	1
 3198 01fd 02       		.byte	2
 3199 01fe 04       		.byte	4
 3200 01ff 40       		.byte	64
 3201 0200 40       		.byte	64
 3202 0201 40       		.byte	64
 3203 0202 40       		.byte	64
 3204 0203 40       		.byte	64
 3205 0204 00       		.byte	0
 3206 0205 03       		.byte	3
 3207 0206 07       		.byte	7
 3208 0207 08       		.byte	8
 3209 0208 00       		.byte	0
 3210 0209 20       		.byte	32
 3211 020a 54       		.byte	84
 3212 020b 54       		.byte	84
 3213 020c 78       		.byte	120
 3214 020d 40       		.byte	64
 3215 020e 7F       		.byte	127
 3216 020f 28       		.byte	40
 3217 0210 44       		.byte	68
 3218 0211 44       		.byte	68
 3219 0212 38       		.byte	56
 3220 0213 38       		.byte	56
 3221 0214 44       		.byte	68
 3222 0215 44       		.byte	68
 3223 0216 44       		.byte	68
 3224 0217 28       		.byte	40
ARM GAS  C:\Users\boise\AppData\Local\Temp\ccDu5XGS.s 			page 71


 3225 0218 38       		.byte	56
 3226 0219 44       		.byte	68
 3227 021a 44       		.byte	68
 3228 021b 28       		.byte	40
 3229 021c 7F       		.byte	127
 3230 021d 38       		.byte	56
 3231 021e 54       		.byte	84
 3232 021f 54       		.byte	84
 3233 0220 54       		.byte	84
 3234 0221 18       		.byte	24
 3235 0222 00       		.byte	0
 3236 0223 08       		.byte	8
 3237 0224 7E       		.byte	126
 3238 0225 09       		.byte	9
 3239 0226 02       		.byte	2
 3240 0227 18       		.byte	24
 3241 0228 A4       		.byte	-92
 3242 0229 A4       		.byte	-92
 3243 022a 9C       		.byte	-100
 3244 022b 78       		.byte	120
 3245 022c 7F       		.byte	127
 3246 022d 08       		.byte	8
 3247 022e 04       		.byte	4
 3248 022f 04       		.byte	4
 3249 0230 78       		.byte	120
 3250 0231 00       		.byte	0
 3251 0232 44       		.byte	68
 3252 0233 7D       		.byte	125
 3253 0234 40       		.byte	64
 3254 0235 00       		.byte	0
 3255 0236 20       		.byte	32
 3256 0237 40       		.byte	64
 3257 0238 40       		.byte	64
 3258 0239 3D       		.byte	61
 3259 023a 00       		.byte	0
 3260 023b 7F       		.byte	127
 3261 023c 10       		.byte	16
 3262 023d 28       		.byte	40
 3263 023e 44       		.byte	68
 3264 023f 00       		.byte	0
 3265 0240 00       		.byte	0
 3266 0241 41       		.byte	65
 3267 0242 7F       		.byte	127
 3268 0243 40       		.byte	64
 3269 0244 00       		.byte	0
 3270 0245 7C       		.byte	124
 3271 0246 04       		.byte	4
 3272 0247 78       		.byte	120
 3273 0248 04       		.byte	4
 3274 0249 78       		.byte	120
 3275 024a 7C       		.byte	124
 3276 024b 08       		.byte	8
 3277 024c 04       		.byte	4
 3278 024d 04       		.byte	4
 3279 024e 78       		.byte	120
 3280 024f 38       		.byte	56
 3281 0250 44       		.byte	68
ARM GAS  C:\Users\boise\AppData\Local\Temp\ccDu5XGS.s 			page 72


 3282 0251 44       		.byte	68
 3283 0252 44       		.byte	68
 3284 0253 38       		.byte	56
 3285 0254 FC       		.byte	-4
 3286 0255 18       		.byte	24
 3287 0256 24       		.byte	36
 3288 0257 24       		.byte	36
 3289 0258 18       		.byte	24
 3290 0259 18       		.byte	24
 3291 025a 24       		.byte	36
 3292 025b 24       		.byte	36
 3293 025c 18       		.byte	24
 3294 025d FC       		.byte	-4
 3295 025e 7C       		.byte	124
 3296 025f 08       		.byte	8
 3297 0260 04       		.byte	4
 3298 0261 04       		.byte	4
 3299 0262 08       		.byte	8
 3300 0263 48       		.byte	72
 3301 0264 54       		.byte	84
 3302 0265 54       		.byte	84
 3303 0266 54       		.byte	84
 3304 0267 24       		.byte	36
 3305 0268 04       		.byte	4
 3306 0269 04       		.byte	4
 3307 026a 3F       		.byte	63
 3308 026b 44       		.byte	68
 3309 026c 24       		.byte	36
 3310 026d 3C       		.byte	60
 3311 026e 40       		.byte	64
 3312 026f 40       		.byte	64
 3313 0270 20       		.byte	32
 3314 0271 7C       		.byte	124
 3315 0272 1C       		.byte	28
 3316 0273 20       		.byte	32
 3317 0274 40       		.byte	64
 3318 0275 20       		.byte	32
 3319 0276 1C       		.byte	28
 3320 0277 3C       		.byte	60
 3321 0278 40       		.byte	64
 3322 0279 30       		.byte	48
 3323 027a 40       		.byte	64
 3324 027b 3C       		.byte	60
 3325 027c 44       		.byte	68
 3326 027d 28       		.byte	40
 3327 027e 10       		.byte	16
 3328 027f 28       		.byte	40
 3329 0280 44       		.byte	68
 3330 0281 4C       		.byte	76
 3331 0282 90       		.byte	-112
 3332 0283 90       		.byte	-112
 3333 0284 90       		.byte	-112
 3334 0285 7C       		.byte	124
 3335 0286 44       		.byte	68
 3336 0287 64       		.byte	100
 3337 0288 54       		.byte	84
 3338 0289 4C       		.byte	76
ARM GAS  C:\Users\boise\AppData\Local\Temp\ccDu5XGS.s 			page 73


 3339 028a 44       		.byte	68
 3340 028b 00       		.byte	0
 3341 028c 08       		.byte	8
 3342 028d 36       		.byte	54
 3343 028e 41       		.byte	65
 3344 028f 00       		.byte	0
 3345 0290 00       		.byte	0
 3346 0291 00       		.byte	0
 3347 0292 77       		.byte	119
 3348 0293 00       		.byte	0
 3349 0294 00       		.byte	0
 3350 0295 00       		.byte	0
 3351 0296 41       		.byte	65
 3352 0297 36       		.byte	54
 3353 0298 08       		.byte	8
 3354 0299 00       		.byte	0
 3355 029a 02       		.byte	2
 3356 029b 01       		.byte	1
 3357 029c 02       		.byte	2
 3358 029d 04       		.byte	4
 3359 029e 02       		.byte	2
 3360 029f 3C       		.byte	60
 3361 02a0 26       		.byte	38
 3362 02a1 23       		.byte	35
 3363 02a2 26       		.byte	38
 3364 02a3 3C       		.byte	60
 3365 02a4 1E       		.byte	30
 3366 02a5 A1       		.byte	-95
 3367 02a6 A1       		.byte	-95
 3368 02a7 61       		.byte	97
 3369 02a8 12       		.byte	18
 3370 02a9 3A       		.byte	58
 3371 02aa 40       		.byte	64
 3372 02ab 40       		.byte	64
 3373 02ac 20       		.byte	32
 3374 02ad 7A       		.byte	122
 3375 02ae 38       		.byte	56
 3376 02af 54       		.byte	84
 3377 02b0 54       		.byte	84
 3378 02b1 55       		.byte	85
 3379 02b2 59       		.byte	89
 3380 02b3 21       		.byte	33
 3381 02b4 55       		.byte	85
 3382 02b5 55       		.byte	85
 3383 02b6 79       		.byte	121
 3384 02b7 41       		.byte	65
 3385 02b8 22       		.byte	34
 3386 02b9 54       		.byte	84
 3387 02ba 54       		.byte	84
 3388 02bb 78       		.byte	120
 3389 02bc 42       		.byte	66
 3390 02bd 21       		.byte	33
 3391 02be 55       		.byte	85
 3392 02bf 54       		.byte	84
 3393 02c0 78       		.byte	120
 3394 02c1 40       		.byte	64
 3395 02c2 20       		.byte	32
ARM GAS  C:\Users\boise\AppData\Local\Temp\ccDu5XGS.s 			page 74


 3396 02c3 54       		.byte	84
 3397 02c4 55       		.byte	85
 3398 02c5 79       		.byte	121
 3399 02c6 40       		.byte	64
 3400 02c7 0C       		.byte	12
 3401 02c8 1E       		.byte	30
 3402 02c9 52       		.byte	82
 3403 02ca 72       		.byte	114
 3404 02cb 12       		.byte	18
 3405 02cc 39       		.byte	57
 3406 02cd 55       		.byte	85
 3407 02ce 55       		.byte	85
 3408 02cf 55       		.byte	85
 3409 02d0 59       		.byte	89
 3410 02d1 39       		.byte	57
 3411 02d2 54       		.byte	84
 3412 02d3 54       		.byte	84
 3413 02d4 54       		.byte	84
 3414 02d5 59       		.byte	89
 3415 02d6 39       		.byte	57
 3416 02d7 55       		.byte	85
 3417 02d8 54       		.byte	84
 3418 02d9 54       		.byte	84
 3419 02da 58       		.byte	88
 3420 02db 00       		.byte	0
 3421 02dc 00       		.byte	0
 3422 02dd 45       		.byte	69
 3423 02de 7C       		.byte	124
 3424 02df 41       		.byte	65
 3425 02e0 00       		.byte	0
 3426 02e1 02       		.byte	2
 3427 02e2 45       		.byte	69
 3428 02e3 7D       		.byte	125
 3429 02e4 42       		.byte	66
 3430 02e5 00       		.byte	0
 3431 02e6 01       		.byte	1
 3432 02e7 45       		.byte	69
 3433 02e8 7C       		.byte	124
 3434 02e9 40       		.byte	64
 3435 02ea 7D       		.byte	125
 3436 02eb 12       		.byte	18
 3437 02ec 11       		.byte	17
 3438 02ed 12       		.byte	18
 3439 02ee 7D       		.byte	125
 3440 02ef F0       		.byte	-16
 3441 02f0 28       		.byte	40
 3442 02f1 25       		.byte	37
 3443 02f2 28       		.byte	40
 3444 02f3 F0       		.byte	-16
 3445 02f4 7C       		.byte	124
 3446 02f5 54       		.byte	84
 3447 02f6 55       		.byte	85
 3448 02f7 45       		.byte	69
 3449 02f8 00       		.byte	0
 3450 02f9 20       		.byte	32
 3451 02fa 54       		.byte	84
 3452 02fb 54       		.byte	84
ARM GAS  C:\Users\boise\AppData\Local\Temp\ccDu5XGS.s 			page 75


 3453 02fc 7C       		.byte	124
 3454 02fd 54       		.byte	84
 3455 02fe 7C       		.byte	124
 3456 02ff 0A       		.byte	10
 3457 0300 09       		.byte	9
 3458 0301 7F       		.byte	127
 3459 0302 49       		.byte	73
 3460 0303 32       		.byte	50
 3461 0304 49       		.byte	73
 3462 0305 49       		.byte	73
 3463 0306 49       		.byte	73
 3464 0307 32       		.byte	50
 3465 0308 3A       		.byte	58
 3466 0309 44       		.byte	68
 3467 030a 44       		.byte	68
 3468 030b 44       		.byte	68
 3469 030c 3A       		.byte	58
 3470 030d 32       		.byte	50
 3471 030e 4A       		.byte	74
 3472 030f 48       		.byte	72
 3473 0310 48       		.byte	72
 3474 0311 30       		.byte	48
 3475 0312 3A       		.byte	58
 3476 0313 41       		.byte	65
 3477 0314 41       		.byte	65
 3478 0315 21       		.byte	33
 3479 0316 7A       		.byte	122
 3480 0317 3A       		.byte	58
 3481 0318 42       		.byte	66
 3482 0319 40       		.byte	64
 3483 031a 20       		.byte	32
 3484 031b 78       		.byte	120
 3485 031c 00       		.byte	0
 3486 031d 9D       		.byte	-99
 3487 031e A0       		.byte	-96
 3488 031f A0       		.byte	-96
 3489 0320 7D       		.byte	125
 3490 0321 3D       		.byte	61
 3491 0322 42       		.byte	66
 3492 0323 42       		.byte	66
 3493 0324 42       		.byte	66
 3494 0325 3D       		.byte	61
 3495 0326 3D       		.byte	61
 3496 0327 40       		.byte	64
 3497 0328 40       		.byte	64
 3498 0329 40       		.byte	64
 3499 032a 3D       		.byte	61
 3500 032b 3C       		.byte	60
 3501 032c 24       		.byte	36
 3502 032d FF       		.byte	-1
 3503 032e 24       		.byte	36
 3504 032f 24       		.byte	36
 3505 0330 48       		.byte	72
 3506 0331 7E       		.byte	126
 3507 0332 49       		.byte	73
 3508 0333 43       		.byte	67
 3509 0334 66       		.byte	102
ARM GAS  C:\Users\boise\AppData\Local\Temp\ccDu5XGS.s 			page 76


 3510 0335 2B       		.byte	43
 3511 0336 2F       		.byte	47
 3512 0337 FC       		.byte	-4
 3513 0338 2F       		.byte	47
 3514 0339 2B       		.byte	43
 3515 033a FF       		.byte	-1
 3516 033b 09       		.byte	9
 3517 033c 29       		.byte	41
 3518 033d F6       		.byte	-10
 3519 033e 20       		.byte	32
 3520 033f C0       		.byte	-64
 3521 0340 88       		.byte	-120
 3522 0341 7E       		.byte	126
 3523 0342 09       		.byte	9
 3524 0343 03       		.byte	3
 3525 0344 20       		.byte	32
 3526 0345 54       		.byte	84
 3527 0346 54       		.byte	84
 3528 0347 79       		.byte	121
 3529 0348 41       		.byte	65
 3530 0349 00       		.byte	0
 3531 034a 00       		.byte	0
 3532 034b 44       		.byte	68
 3533 034c 7D       		.byte	125
 3534 034d 41       		.byte	65
 3535 034e 30       		.byte	48
 3536 034f 48       		.byte	72
 3537 0350 48       		.byte	72
 3538 0351 4A       		.byte	74
 3539 0352 32       		.byte	50
 3540 0353 38       		.byte	56
 3541 0354 40       		.byte	64
 3542 0355 40       		.byte	64
 3543 0356 22       		.byte	34
 3544 0357 7A       		.byte	122
 3545 0358 00       		.byte	0
 3546 0359 7A       		.byte	122
 3547 035a 0A       		.byte	10
 3548 035b 0A       		.byte	10
 3549 035c 72       		.byte	114
 3550 035d 7D       		.byte	125
 3551 035e 0D       		.byte	13
 3552 035f 19       		.byte	25
 3553 0360 31       		.byte	49
 3554 0361 7D       		.byte	125
 3555 0362 26       		.byte	38
 3556 0363 29       		.byte	41
 3557 0364 29       		.byte	41
 3558 0365 2F       		.byte	47
 3559 0366 28       		.byte	40
 3560 0367 26       		.byte	38
 3561 0368 29       		.byte	41
 3562 0369 29       		.byte	41
 3563 036a 29       		.byte	41
 3564 036b 26       		.byte	38
 3565 036c 30       		.byte	48
 3566 036d 48       		.byte	72
ARM GAS  C:\Users\boise\AppData\Local\Temp\ccDu5XGS.s 			page 77


 3567 036e 4D       		.byte	77
 3568 036f 40       		.byte	64
 3569 0370 20       		.byte	32
 3570 0371 38       		.byte	56
 3571 0372 08       		.byte	8
 3572 0373 08       		.byte	8
 3573 0374 08       		.byte	8
 3574 0375 08       		.byte	8
 3575 0376 08       		.byte	8
 3576 0377 08       		.byte	8
 3577 0378 08       		.byte	8
 3578 0379 08       		.byte	8
 3579 037a 38       		.byte	56
 3580 037b 2F       		.byte	47
 3581 037c 10       		.byte	16
 3582 037d C8       		.byte	-56
 3583 037e AC       		.byte	-84
 3584 037f BA       		.byte	-70
 3585 0380 2F       		.byte	47
 3586 0381 10       		.byte	16
 3587 0382 28       		.byte	40
 3588 0383 34       		.byte	52
 3589 0384 FA       		.byte	-6
 3590 0385 00       		.byte	0
 3591 0386 00       		.byte	0
 3592 0387 7B       		.byte	123
 3593 0388 00       		.byte	0
 3594 0389 00       		.byte	0
 3595 038a 08       		.byte	8
 3596 038b 14       		.byte	20
 3597 038c 2A       		.byte	42
 3598 038d 14       		.byte	20
 3599 038e 22       		.byte	34
 3600 038f 22       		.byte	34
 3601 0390 14       		.byte	20
 3602 0391 2A       		.byte	42
 3603 0392 14       		.byte	20
 3604 0393 08       		.byte	8
 3605 0394 AA       		.byte	-86
 3606 0395 00       		.byte	0
 3607 0396 55       		.byte	85
 3608 0397 00       		.byte	0
 3609 0398 AA       		.byte	-86
 3610 0399 AA       		.byte	-86
 3611 039a 55       		.byte	85
 3612 039b AA       		.byte	-86
 3613 039c 55       		.byte	85
 3614 039d AA       		.byte	-86
 3615 039e 00       		.byte	0
 3616 039f 00       		.byte	0
 3617 03a0 00       		.byte	0
 3618 03a1 FF       		.byte	-1
 3619 03a2 00       		.byte	0
 3620 03a3 10       		.byte	16
 3621 03a4 10       		.byte	16
 3622 03a5 10       		.byte	16
 3623 03a6 FF       		.byte	-1
ARM GAS  C:\Users\boise\AppData\Local\Temp\ccDu5XGS.s 			page 78


 3624 03a7 00       		.byte	0
 3625 03a8 14       		.byte	20
 3626 03a9 14       		.byte	20
 3627 03aa 14       		.byte	20
 3628 03ab FF       		.byte	-1
 3629 03ac 00       		.byte	0
 3630 03ad 10       		.byte	16
 3631 03ae 10       		.byte	16
 3632 03af FF       		.byte	-1
 3633 03b0 00       		.byte	0
 3634 03b1 FF       		.byte	-1
 3635 03b2 10       		.byte	16
 3636 03b3 10       		.byte	16
 3637 03b4 F0       		.byte	-16
 3638 03b5 10       		.byte	16
 3639 03b6 F0       		.byte	-16
 3640 03b7 14       		.byte	20
 3641 03b8 14       		.byte	20
 3642 03b9 14       		.byte	20
 3643 03ba FC       		.byte	-4
 3644 03bb 00       		.byte	0
 3645 03bc 14       		.byte	20
 3646 03bd 14       		.byte	20
 3647 03be F7       		.byte	-9
 3648 03bf 00       		.byte	0
 3649 03c0 FF       		.byte	-1
 3650 03c1 00       		.byte	0
 3651 03c2 00       		.byte	0
 3652 03c3 FF       		.byte	-1
 3653 03c4 00       		.byte	0
 3654 03c5 FF       		.byte	-1
 3655 03c6 14       		.byte	20
 3656 03c7 14       		.byte	20
 3657 03c8 F4       		.byte	-12
 3658 03c9 04       		.byte	4
 3659 03ca FC       		.byte	-4
 3660 03cb 14       		.byte	20
 3661 03cc 14       		.byte	20
 3662 03cd 17       		.byte	23
 3663 03ce 10       		.byte	16
 3664 03cf 1F       		.byte	31
 3665 03d0 10       		.byte	16
 3666 03d1 10       		.byte	16
 3667 03d2 1F       		.byte	31
 3668 03d3 10       		.byte	16
 3669 03d4 1F       		.byte	31
 3670 03d5 14       		.byte	20
 3671 03d6 14       		.byte	20
 3672 03d7 14       		.byte	20
 3673 03d8 1F       		.byte	31
 3674 03d9 00       		.byte	0
 3675 03da 10       		.byte	16
 3676 03db 10       		.byte	16
 3677 03dc 10       		.byte	16
 3678 03dd F0       		.byte	-16
 3679 03de 00       		.byte	0
 3680 03df 00       		.byte	0
ARM GAS  C:\Users\boise\AppData\Local\Temp\ccDu5XGS.s 			page 79


 3681 03e0 00       		.byte	0
 3682 03e1 00       		.byte	0
 3683 03e2 1F       		.byte	31
 3684 03e3 10       		.byte	16
 3685 03e4 10       		.byte	16
 3686 03e5 10       		.byte	16
 3687 03e6 10       		.byte	16
 3688 03e7 1F       		.byte	31
 3689 03e8 10       		.byte	16
 3690 03e9 10       		.byte	16
 3691 03ea 10       		.byte	16
 3692 03eb 10       		.byte	16
 3693 03ec F0       		.byte	-16
 3694 03ed 10       		.byte	16
 3695 03ee 00       		.byte	0
 3696 03ef 00       		.byte	0
 3697 03f0 00       		.byte	0
 3698 03f1 FF       		.byte	-1
 3699 03f2 10       		.byte	16
 3700 03f3 10       		.byte	16
 3701 03f4 10       		.byte	16
 3702 03f5 10       		.byte	16
 3703 03f6 10       		.byte	16
 3704 03f7 10       		.byte	16
 3705 03f8 10       		.byte	16
 3706 03f9 10       		.byte	16
 3707 03fa 10       		.byte	16
 3708 03fb FF       		.byte	-1
 3709 03fc 10       		.byte	16
 3710 03fd 00       		.byte	0
 3711 03fe 00       		.byte	0
 3712 03ff 00       		.byte	0
 3713 0400 FF       		.byte	-1
 3714 0401 14       		.byte	20
 3715 0402 00       		.byte	0
 3716 0403 00       		.byte	0
 3717 0404 FF       		.byte	-1
 3718 0405 00       		.byte	0
 3719 0406 FF       		.byte	-1
 3720 0407 00       		.byte	0
 3721 0408 00       		.byte	0
 3722 0409 1F       		.byte	31
 3723 040a 10       		.byte	16
 3724 040b 17       		.byte	23
 3725 040c 00       		.byte	0
 3726 040d 00       		.byte	0
 3727 040e FC       		.byte	-4
 3728 040f 04       		.byte	4
 3729 0410 F4       		.byte	-12
 3730 0411 14       		.byte	20
 3731 0412 14       		.byte	20
 3732 0413 17       		.byte	23
 3733 0414 10       		.byte	16
 3734 0415 17       		.byte	23
 3735 0416 14       		.byte	20
 3736 0417 14       		.byte	20
 3737 0418 F4       		.byte	-12
ARM GAS  C:\Users\boise\AppData\Local\Temp\ccDu5XGS.s 			page 80


 3738 0419 04       		.byte	4
 3739 041a F4       		.byte	-12
 3740 041b 00       		.byte	0
 3741 041c 00       		.byte	0
 3742 041d FF       		.byte	-1
 3743 041e 00       		.byte	0
 3744 041f F7       		.byte	-9
 3745 0420 14       		.byte	20
 3746 0421 14       		.byte	20
 3747 0422 14       		.byte	20
 3748 0423 14       		.byte	20
 3749 0424 14       		.byte	20
 3750 0425 14       		.byte	20
 3751 0426 14       		.byte	20
 3752 0427 F7       		.byte	-9
 3753 0428 00       		.byte	0
 3754 0429 F7       		.byte	-9
 3755 042a 14       		.byte	20
 3756 042b 14       		.byte	20
 3757 042c 14       		.byte	20
 3758 042d 17       		.byte	23
 3759 042e 14       		.byte	20
 3760 042f 10       		.byte	16
 3761 0430 10       		.byte	16
 3762 0431 1F       		.byte	31
 3763 0432 10       		.byte	16
 3764 0433 1F       		.byte	31
 3765 0434 14       		.byte	20
 3766 0435 14       		.byte	20
 3767 0436 14       		.byte	20
 3768 0437 F4       		.byte	-12
 3769 0438 14       		.byte	20
 3770 0439 10       		.byte	16
 3771 043a 10       		.byte	16
 3772 043b F0       		.byte	-16
 3773 043c 10       		.byte	16
 3774 043d F0       		.byte	-16
 3775 043e 00       		.byte	0
 3776 043f 00       		.byte	0
 3777 0440 1F       		.byte	31
 3778 0441 10       		.byte	16
 3779 0442 1F       		.byte	31
 3780 0443 00       		.byte	0
 3781 0444 00       		.byte	0
 3782 0445 00       		.byte	0
 3783 0446 1F       		.byte	31
 3784 0447 14       		.byte	20
 3785 0448 00       		.byte	0
 3786 0449 00       		.byte	0
 3787 044a 00       		.byte	0
 3788 044b FC       		.byte	-4
 3789 044c 14       		.byte	20
 3790 044d 00       		.byte	0
 3791 044e 00       		.byte	0
 3792 044f F0       		.byte	-16
 3793 0450 10       		.byte	16
 3794 0451 F0       		.byte	-16
ARM GAS  C:\Users\boise\AppData\Local\Temp\ccDu5XGS.s 			page 81


 3795 0452 10       		.byte	16
 3796 0453 10       		.byte	16
 3797 0454 FF       		.byte	-1
 3798 0455 10       		.byte	16
 3799 0456 FF       		.byte	-1
 3800 0457 14       		.byte	20
 3801 0458 14       		.byte	20
 3802 0459 14       		.byte	20
 3803 045a FF       		.byte	-1
 3804 045b 14       		.byte	20
 3805 045c 10       		.byte	16
 3806 045d 10       		.byte	16
 3807 045e 10       		.byte	16
 3808 045f 1F       		.byte	31
 3809 0460 00       		.byte	0
 3810 0461 00       		.byte	0
 3811 0462 00       		.byte	0
 3812 0463 00       		.byte	0
 3813 0464 F0       		.byte	-16
 3814 0465 10       		.byte	16
 3815 0466 FF       		.byte	-1
 3816 0467 FF       		.byte	-1
 3817 0468 FF       		.byte	-1
 3818 0469 FF       		.byte	-1
 3819 046a FF       		.byte	-1
 3820 046b F0       		.byte	-16
 3821 046c F0       		.byte	-16
 3822 046d F0       		.byte	-16
 3823 046e F0       		.byte	-16
 3824 046f F0       		.byte	-16
 3825 0470 FF       		.byte	-1
 3826 0471 FF       		.byte	-1
 3827 0472 FF       		.byte	-1
 3828 0473 00       		.byte	0
 3829 0474 00       		.byte	0
 3830 0475 00       		.byte	0
 3831 0476 00       		.byte	0
 3832 0477 00       		.byte	0
 3833 0478 FF       		.byte	-1
 3834 0479 FF       		.byte	-1
 3835 047a 0F       		.byte	15
 3836 047b 0F       		.byte	15
 3837 047c 0F       		.byte	15
 3838 047d 0F       		.byte	15
 3839 047e 0F       		.byte	15
 3840 047f 38       		.byte	56
 3841 0480 44       		.byte	68
 3842 0481 44       		.byte	68
 3843 0482 38       		.byte	56
 3844 0483 44       		.byte	68
 3845 0484 FC       		.byte	-4
 3846 0485 4A       		.byte	74
 3847 0486 4A       		.byte	74
 3848 0487 4A       		.byte	74
 3849 0488 34       		.byte	52
 3850 0489 7E       		.byte	126
 3851 048a 02       		.byte	2
ARM GAS  C:\Users\boise\AppData\Local\Temp\ccDu5XGS.s 			page 82


 3852 048b 02       		.byte	2
 3853 048c 06       		.byte	6
 3854 048d 06       		.byte	6
 3855 048e 02       		.byte	2
 3856 048f 7E       		.byte	126
 3857 0490 02       		.byte	2
 3858 0491 7E       		.byte	126
 3859 0492 02       		.byte	2
 3860 0493 63       		.byte	99
 3861 0494 55       		.byte	85
 3862 0495 49       		.byte	73
 3863 0496 41       		.byte	65
 3864 0497 63       		.byte	99
 3865 0498 38       		.byte	56
 3866 0499 44       		.byte	68
 3867 049a 44       		.byte	68
 3868 049b 3C       		.byte	60
 3869 049c 04       		.byte	4
 3870 049d 40       		.byte	64
 3871 049e 7E       		.byte	126
 3872 049f 20       		.byte	32
 3873 04a0 1E       		.byte	30
 3874 04a1 20       		.byte	32
 3875 04a2 06       		.byte	6
 3876 04a3 02       		.byte	2
 3877 04a4 7E       		.byte	126
 3878 04a5 02       		.byte	2
 3879 04a6 02       		.byte	2
 3880 04a7 99       		.byte	-103
 3881 04a8 A5       		.byte	-91
 3882 04a9 E7       		.byte	-25
 3883 04aa A5       		.byte	-91
 3884 04ab 99       		.byte	-103
 3885 04ac 1C       		.byte	28
 3886 04ad 2A       		.byte	42
 3887 04ae 49       		.byte	73
 3888 04af 2A       		.byte	42
 3889 04b0 1C       		.byte	28
 3890 04b1 4C       		.byte	76
 3891 04b2 72       		.byte	114
 3892 04b3 01       		.byte	1
 3893 04b4 72       		.byte	114
 3894 04b5 4C       		.byte	76
 3895 04b6 30       		.byte	48
 3896 04b7 4A       		.byte	74
 3897 04b8 4D       		.byte	77
 3898 04b9 4D       		.byte	77
 3899 04ba 30       		.byte	48
 3900 04bb 30       		.byte	48
 3901 04bc 48       		.byte	72
 3902 04bd 78       		.byte	120
 3903 04be 48       		.byte	72
 3904 04bf 30       		.byte	48
 3905 04c0 BC       		.byte	-68
 3906 04c1 62       		.byte	98
 3907 04c2 5A       		.byte	90
 3908 04c3 46       		.byte	70
ARM GAS  C:\Users\boise\AppData\Local\Temp\ccDu5XGS.s 			page 83


 3909 04c4 3D       		.byte	61
 3910 04c5 3E       		.byte	62
 3911 04c6 49       		.byte	73
 3912 04c7 49       		.byte	73
 3913 04c8 49       		.byte	73
 3914 04c9 00       		.byte	0
 3915 04ca 7E       		.byte	126
 3916 04cb 01       		.byte	1
 3917 04cc 01       		.byte	1
 3918 04cd 01       		.byte	1
 3919 04ce 7E       		.byte	126
 3920 04cf 2A       		.byte	42
 3921 04d0 2A       		.byte	42
 3922 04d1 2A       		.byte	42
 3923 04d2 2A       		.byte	42
 3924 04d3 2A       		.byte	42
 3925 04d4 44       		.byte	68
 3926 04d5 44       		.byte	68
 3927 04d6 5F       		.byte	95
 3928 04d7 44       		.byte	68
 3929 04d8 44       		.byte	68
 3930 04d9 40       		.byte	64
 3931 04da 51       		.byte	81
 3932 04db 4A       		.byte	74
 3933 04dc 44       		.byte	68
 3934 04dd 40       		.byte	64
 3935 04de 40       		.byte	64
 3936 04df 44       		.byte	68
 3937 04e0 4A       		.byte	74
 3938 04e1 51       		.byte	81
 3939 04e2 40       		.byte	64
 3940 04e3 00       		.byte	0
 3941 04e4 00       		.byte	0
 3942 04e5 FF       		.byte	-1
 3943 04e6 01       		.byte	1
 3944 04e7 03       		.byte	3
 3945 04e8 E0       		.byte	-32
 3946 04e9 80       		.byte	-128
 3947 04ea FF       		.byte	-1
 3948 04eb 00       		.byte	0
 3949 04ec 00       		.byte	0
 3950 04ed 08       		.byte	8
 3951 04ee 08       		.byte	8
 3952 04ef 6B       		.byte	107
 3953 04f0 6B       		.byte	107
 3954 04f1 08       		.byte	8
 3955 04f2 36       		.byte	54
 3956 04f3 12       		.byte	18
 3957 04f4 36       		.byte	54
 3958 04f5 24       		.byte	36
 3959 04f6 36       		.byte	54
 3960 04f7 06       		.byte	6
 3961 04f8 0F       		.byte	15
 3962 04f9 09       		.byte	9
 3963 04fa 0F       		.byte	15
 3964 04fb 06       		.byte	6
 3965 04fc 00       		.byte	0
ARM GAS  C:\Users\boise\AppData\Local\Temp\ccDu5XGS.s 			page 84


 3966 04fd 00       		.byte	0
 3967 04fe 18       		.byte	24
 3968 04ff 18       		.byte	24
 3969 0500 00       		.byte	0
 3970 0501 00       		.byte	0
 3971 0502 00       		.byte	0
 3972 0503 10       		.byte	16
 3973 0504 10       		.byte	16
 3974 0505 00       		.byte	0
 3975 0506 30       		.byte	48
 3976 0507 40       		.byte	64
 3977 0508 FF       		.byte	-1
 3978 0509 01       		.byte	1
 3979 050a 01       		.byte	1
 3980 050b 00       		.byte	0
 3981 050c 1F       		.byte	31
 3982 050d 01       		.byte	1
 3983 050e 01       		.byte	1
 3984 050f 1E       		.byte	30
 3985 0510 00       		.byte	0
 3986 0511 19       		.byte	25
 3987 0512 1D       		.byte	29
 3988 0513 17       		.byte	23
 3989 0514 12       		.byte	18
 3990 0515 00       		.byte	0
 3991 0516 3C       		.byte	60
 3992 0517 3C       		.byte	60
 3993 0518 3C       		.byte	60
 3994 0519 3C       		.byte	60
 3995 051a 00       		.byte	0
 3996 051b 00       		.byte	0
 3997 051c 00       		.byte	0
 3998 051d 00       		.byte	0
 3999 051e 00       		.byte	0
 4000              		.data
 4001              		.align	2
 4002              		.set	.LANCHOR0,. + 0
 4003              		.type	SSD1306_buffer, %object
 4004              		.size	SSD1306_buffer, 1025
 4005              	SSD1306_buffer:
 4006 0000 40       		.byte	64
 4007 0001 00000000 		.space	1024
 4007      00000000 
 4007      00000000 
 4007      00000000 
 4007      00000000 
 4008              		.bss
 4009              		.align	1
 4010              		.set	.LANCHOR1,. + 0
 4011              		.type	_i2caddr, %object
 4012              		.size	_i2caddr, 1
 4013              	_i2caddr:
 4014 0000 00       		.space	1
 4015 0001 00       		.space	1
 4016              		.type	_width, %object
 4017              		.size	_width, 2
 4018              	_width:
ARM GAS  C:\Users\boise\AppData\Local\Temp\ccDu5XGS.s 			page 85


 4019 0002 0000     		.space	2
 4020              		.type	_height, %object
 4021              		.size	_height, 2
 4022              	_height:
 4023 0004 0000     		.space	2
 4024              		.type	cursor_x, %object
 4025              		.size	cursor_x, 2
 4026              	cursor_x:
 4027 0006 0000     		.space	2
 4028              		.type	cursor_y, %object
 4029              		.size	cursor_y, 2
 4030              	cursor_y:
 4031 0008 0000     		.space	2
 4032              		.type	textsize, %object
 4033              		.size	textsize, 1
 4034              	textsize:
 4035 000a 00       		.space	1
 4036 000b 00       		.space	1
 4037              		.type	textbgcolor, %object
 4038              		.size	textbgcolor, 2
 4039              	textbgcolor:
 4040 000c 0000     		.space	2
 4041              		.type	textcolor, %object
 4042              		.size	textcolor, 2
 4043              	textcolor:
 4044 000e 0000     		.space	2
 4045              		.text
 4046              	.Letext0:
 4047              		.file 2 "c:\\program files (x86)\\cypress\\psoc creator\\4.4\\psoc creator\\import\\gnu\\arm\\5.4.
 4048              		.file 3 "c:\\program files (x86)\\cypress\\psoc creator\\4.4\\psoc creator\\import\\gnu\\arm\\5.4.
 4049              		.file 4 "Generated_Source\\PSoC4/cytypes.h"
 4050              		.file 5 "..\\..\\Cypress-PSOC-OLED-master\\Cypress-PSOC-OLED-master\\OLED.cydsn\\ssd1306.h"
 4051              		.file 6 "..\\..\\Cypress-PSOC-OLED-master\\Cypress-PSOC-OLED-master\\OLED.cydsn\\font.h"
 4052              		.file 7 "Generated_Source\\PSoC4/I2C_I2C.h"
 4053              		.file 8 "c:\\program files (x86)\\cypress\\psoc creator\\4.4\\psoc creator\\import\\gnu\\arm\\5.4.